
audio_interrupt.axf:     file format elf32-littlearm


Disassembly of section .vectors:

00000000 <__cs3_interrupt_vector>:
   0:	18 f0 9f e5 18 f0 9f e5 18 f0 9f e5 18 f0 9f e5     ................
  10:	18 f0 9f e5 18 f0 9f e5 18 f0 9f e5 18 f0 9f e5     ................
  20:	68 03 00 00 74 03 00 00 80 03 00 00 8c 03 00 00     h...t...........
  30:	98 03 00 00 20 0c 00 00 a4 03 00 00 1c 04 00 00     .... ...........

Disassembly of section .text:

00000040 <__cs3_reset_generic>:
  40:	ea000026 	b	e0 <__cs3_start_asm_sim>

00000044 <__cs3_start_c>:
  44:	e59f608c 	ldr	r6, [pc, #140]	; d8 <__cs3_start_c+0x94>
  48:	e3560000 	cmp	r6, #0
  4c:	e92d4080 	push	{r7, lr}
  50:	e2466001 	sub	r6, r6, #1
  54:	0a00001e 	beq	d4 <__cs3_start_c+0x90>
  58:	e59f507c 	ldr	r5, [pc, #124]	; dc <__cs3_start_c+0x98>
  5c:	e3a00000 	mov	r0, #0
  60:	e3a01000 	mov	r1, #0
  64:	e515200c 	ldr	r2, [r5, #-12]
  68:	e515e010 	ldr	lr, [r5, #-16]
  6c:	e5154008 	ldr	r4, [r5, #-8]
  70:	e15e0002 	cmp	lr, r2
  74:	00822004 	addeq	r2, r2, r4
  78:	0a000009 	beq	a4 <__cs3_start_c+0x60>
  7c:	e3540000 	cmp	r4, #0
  80:	0a000007 	beq	a4 <__cs3_start_c+0x60>
  84:	e1a07002 	mov	r7, r2
  88:	e1a0c002 	mov	r12, r2
  8c:	e8be000c 	ldm	lr!, {r2, r3}
  90:	e8ac000c 	stmia	r12!, {r2, r3}
  94:	e067300c 	rsb	r3, r7, r12
  98:	e1540003 	cmp	r4, r3
  9c:	e1a0200c 	mov	r2, r12
  a0:	1afffff9 	bne	8c <__cs3_start_c+0x48>
  a4:	e515e004 	ldr	lr, [r5, #-4]
  a8:	e35e0000 	cmp	lr, #0
  ac:	11a03002 	movne	r3, r2
  b0:	0a000003 	beq	c4 <__cs3_start_c+0x80>
  b4:	e8a30003 	stmia	r3!, {r0, r1}
  b8:	e062c003 	rsb	r12, r2, r3
  bc:	e15e000c 	cmp	lr, r12
  c0:	1afffffb 	bne	b4 <__cs3_start_c+0x70>
  c4:	e2466001 	sub	r6, r6, #1
  c8:	e3760001 	cmn	r6, #1
  cc:	e2855014 	add	r5, r5, #20
  d0:	1affffe3 	bne	64 <__cs3_start_c+0x20>
  d4:	eb0002b8 	bl	bbc <__cs3_premain>
  d8:	00000001 	.word	0x00000001
  dc:	00004b70 	.word	0x00004b70

000000e0 <__cs3_start_asm_sim>:
  e0:	e28f103c 	add	r1, pc, #60	; 0x3c
  e4:	e3a00016 	mov	r0, #22
  e8:	ef123456 	svc	0x00123456
  ec:	e3500000 	cmp	r0, #0
  f0:	ba000008 	blt	118 <__cs3_start_asm_sim+0x38>
  f4:	e59f2028 	ldr	r2, [pc, #40]	; 124 <__cs3_heap_start_ptr>
  f8:	e59fd01c 	ldr	sp, [pc, #28]	; 11c <__cs3_start_asm_sim+0x3c>
  fc:	e5920008 	ldr	r0, [r2, #8]
 100:	e3500000 	cmp	r0, #0
 104:	11a0d000 	movne	sp, r0
 108:	e59f1010 	ldr	r1, [pc, #16]	; 120 <__cs3_start_asm_sim+0x40>
 10c:	e5920004 	ldr	r0, [r2, #4]
 110:	e3500000 	cmp	r0, #0
 114:	15810000 	strne	r0, [r1]
 118:	eaffffc9 	b	44 <__cs3_start_c>
 11c:	3ffffff8 	.word	0x3ffffff8
 120:	00004fa8 	.word	0x00004fa8

00000124 <__cs3_heap_start_ptr>:
 124:	00008e50 	.word	0x00008e50

00000128 <_start>:
 128:	e51fd000 	ldr	sp, [pc, #-0]	; 130 <_start+0x8>
 12c:	eaffffc4 	b	44 <__cs3_start_c>
 130:	3ffffff8 	.word	0x3ffffff8

00000134 <deregister_tm_clones>:
 134:	e92d4008 	push	{r3, lr}
 138:	e59f002c 	ldr	r0, [pc, #44]	; 16c <deregister_tm_clones+0x38>
 13c:	e59f302c 	ldr	r3, [pc, #44]	; 170 <deregister_tm_clones+0x3c>
 140:	e0603003 	rsb	r3, r0, r3
 144:	e3530006 	cmp	r3, #6
 148:	8a000001 	bhi	154 <deregister_tm_clones+0x20>
 14c:	e8bd4008 	pop	{r3, lr}
 150:	e12fff1e 	bx	lr
 154:	e59f3018 	ldr	r3, [pc, #24]	; 174 <deregister_tm_clones+0x40>
 158:	e3530000 	cmp	r3, #0
 15c:	0afffffa 	beq	14c <deregister_tm_clones+0x18>
 160:	e1a0e00f 	mov	lr, pc
 164:	e12fff13 	bx	r3
 168:	eafffff7 	b	14c <deregister_tm_clones+0x18>
 16c:	00004fb0 	.word	0x00004fb0
 170:	00004fb3 	.word	0x00004fb3
 174:	00000000 	.word	0x00000000

00000178 <register_tm_clones>:
 178:	e92d4008 	push	{r3, lr}
 17c:	e59f0034 	ldr	r0, [pc, #52]	; 1b8 <register_tm_clones+0x40>
 180:	e59f3034 	ldr	r3, [pc, #52]	; 1bc <register_tm_clones+0x44>
 184:	e0603003 	rsb	r3, r0, r3
 188:	e1a03143 	asr	r3, r3, #2
 18c:	e0833fa3 	add	r3, r3, r3, lsr #31
 190:	e1b010c3 	asrs	r1, r3, #1
 194:	1a000001 	bne	1a0 <register_tm_clones+0x28>
 198:	e8bd4008 	pop	{r3, lr}
 19c:	e12fff1e 	bx	lr
 1a0:	e59f2018 	ldr	r2, [pc, #24]	; 1c0 <register_tm_clones+0x48>
 1a4:	e3520000 	cmp	r2, #0
 1a8:	0afffffa 	beq	198 <register_tm_clones+0x20>
 1ac:	e1a0e00f 	mov	lr, pc
 1b0:	e12fff12 	bx	r2
 1b4:	eafffff7 	b	198 <register_tm_clones+0x20>
 1b8:	00004fb0 	.word	0x00004fb0
 1bc:	00004fb0 	.word	0x00004fb0
 1c0:	00000000 	.word	0x00000000

000001c4 <__do_global_dtors_aux>:
 1c4:	e92d4010 	push	{r4, lr}
 1c8:	e59f402c 	ldr	r4, [pc, #44]	; 1fc <__do_global_dtors_aux+0x38>
 1cc:	e5d43000 	ldrb	r3, [r4]
 1d0:	e3530000 	cmp	r3, #0
 1d4:	1a000006 	bne	1f4 <__do_global_dtors_aux+0x30>
 1d8:	ebffffd5 	bl	134 <deregister_tm_clones>
 1dc:	e59f301c 	ldr	r3, [pc, #28]	; 200 <__do_global_dtors_aux+0x3c>
 1e0:	e3530000 	cmp	r3, #0
 1e4:	159f0018 	ldrne	r0, [pc, #24]	; 204 <__do_global_dtors_aux+0x40>
 1e8:	1320f000 	nopne	{0}
 1ec:	e3a03001 	mov	r3, #1
 1f0:	e5c43000 	strb	r3, [r4]
 1f4:	e8bd4010 	pop	{r4, lr}
 1f8:	e12fff1e 	bx	lr
 1fc:	00004fb0 	.word	0x00004fb0
 200:	00000000 	.word	0x00000000
 204:	00000cac 	.word	0x00000cac

00000208 <frame_dummy>:
 208:	e92d4008 	push	{r3, lr}
 20c:	e59f3034 	ldr	r3, [pc, #52]	; 248 <frame_dummy+0x40>
 210:	e3530000 	cmp	r3, #0
 214:	159f0030 	ldrne	r0, [pc, #48]	; 24c <frame_dummy+0x44>
 218:	159f1030 	ldrne	r1, [pc, #48]	; 250 <frame_dummy+0x48>
 21c:	1320f000 	nopne	{0}
 220:	e59f002c 	ldr	r0, [pc, #44]	; 254 <frame_dummy+0x4c>
 224:	e5903000 	ldr	r3, [r0]
 228:	e3530000 	cmp	r3, #0
 22c:	0a000003 	beq	240 <frame_dummy+0x38>
 230:	e59f3020 	ldr	r3, [pc, #32]	; 258 <frame_dummy+0x50>
 234:	e3530000 	cmp	r3, #0
 238:	11a0e00f 	movne	lr, pc
 23c:	112fff13 	bxne	r3
 240:	e8bd4008 	pop	{r3, lr}
 244:	eaffffcb 	b	178 <register_tm_clones>
 248:	00000000 	.word	0x00000000
 24c:	00000cac 	.word	0x00000cac
 250:	00004fb4 	.word	0x00004fb4
 254:	00004b70 	.word	0x00004b70
 258:	00000000 	.word	0x00000000

0000025c <main>:
/* these globals are written by interrupt service routines; we declare them as
 * volatile to avoid the compiler caching their values, even in registers */
extern volatile int buffer_index; // used for audio
//extern volatile int timeout; // used to synchronize with the timer

int main(void) {
 25c:	e92d4800 	push	{r11, lr}
 260:	e28db004 	add	r11, sp, #4
    buffer_index = 0; // audio playback
 264:	e3043fcc 	movw	r3, #20428	; 0x4fcc
 268:	e3403000 	movt	r3, #0
 26c:	e3a02000 	mov	r2, #0
 270:	e5832000 	str	r2, [r3]
    //timeout      = 0;

    set_A9_IRQ_stack();            // initialize the stack pointer for IRQ mode
 274:	eb00006b 	bl	428 <set_A9_IRQ_stack>
    config_GIC();                  // configure the general interrupt controller
 278:	eb000086 	bl	498 <config_GIC>
    //config_MPcore_private_timer(); // configure ARM A9 private timer
    config_KEYs(); // configure pushbutton KEYs to generate interrupts
 27c:	eb00002c 	bl	334 <config_KEYs>
    config_audio();
 280:	eb00001f 	bl	304 <config_audio>

    enable_A9_interrupts(); // enable interrupts
 284:	eb000079 	bl	470 <enable_A9_interrupts>

    while (1);
 288:	eafffffe 	b	288 <main+0x2c>

0000028c <hw_set_bit>:
//    /* write to control register to start timer, with interrupts */
//    *(MPcore_private_timer_ptr + 2) = 0x7; // int mask = 1, mode = 1, enable = 1
//}

void hw_set_bit(volatile int* ptr, int bit, int value)
{
 28c:	e52db004 	push	{r11}		; (str r11, [sp, #-4]!)
 290:	e28db000 	add	r11, sp, #0
 294:	e24dd014 	sub	sp, sp, #20
 298:	e50b0008 	str	r0, [r11, #-8]
 29c:	e50b100c 	str	r1, [r11, #-12]
 2a0:	e50b2010 	str	r2, [r11, #-16]
    if (value)
 2a4:	e51b3010 	ldr	r3, [r11, #-16]
 2a8:	e3530000 	cmp	r3, #0
 2ac:	0a000008 	beq	2d4 <hw_set_bit+0x48>
        *ptr |= 1 << bit;
 2b0:	e51b3008 	ldr	r3, [r11, #-8]
 2b4:	e5932000 	ldr	r2, [r3]
 2b8:	e3a01001 	mov	r1, #1
 2bc:	e51b300c 	ldr	r3, [r11, #-12]
 2c0:	e1a03311 	lsl	r3, r1, r3
 2c4:	e1822003 	orr	r2, r2, r3
 2c8:	e51b3008 	ldr	r3, [r11, #-8]
 2cc:	e5832000 	str	r2, [r3]
 2d0:	ea000008 	b	2f8 <hw_set_bit+0x6c>
    else
        *ptr &= ~(1 << bit);
 2d4:	e51b3008 	ldr	r3, [r11, #-8]
 2d8:	e5932000 	ldr	r2, [r3]
 2dc:	e3a01001 	mov	r1, #1
 2e0:	e51b300c 	ldr	r3, [r11, #-12]
 2e4:	e1a03311 	lsl	r3, r1, r3
 2e8:	e1e03003 	mvn	r3, r3
 2ec:	e0022003 	and	r2, r2, r3
 2f0:	e51b3008 	ldr	r3, [r11, #-8]
 2f4:	e5832000 	str	r2, [r3]
}
 2f8:	e28bd000 	add	sp, r11, #0
 2fc:	e8bd0800 	ldmfd	sp!, {r11}
 300:	e12fff1e 	bx	lr

00000304 <config_audio>:

void config_audio(void)
{
 304:	e52db004 	push	{r11}		; (str r11, [sp, #-4]!)
 308:	e28db000 	add	r11, sp, #0
 30c:	e24dd00c 	sub	sp, sp, #12
    volatile int* audio_ptr = (int*)AUDIO_BASE;
 310:	e3a03dc1 	mov	r3, #12352	; 0x3040
 314:	e34f3f20 	movt	r3, #65312	; 0xff20
 318:	e50b3008 	str	r3, [r11, #-8]
    *audio_ptr = 0x3; // enable read/write interrupts
 31c:	e51b3008 	ldr	r3, [r11, #-8]
 320:	e3a02003 	mov	r2, #3
 324:	e5832000 	str	r2, [r3]
}
 328:	e28bd000 	add	sp, r11, #0
 32c:	e8bd0800 	ldmfd	sp!, {r11}
 330:	e12fff1e 	bx	lr

00000334 <config_KEYs>:

void config_KEYs(void) 
{
 334:	e52db004 	push	{r11}		; (str r11, [sp, #-4]!)
 338:	e28db000 	add	r11, sp, #0
 33c:	e24dd00c 	sub	sp, sp, #12
    volatile int * KEY_ptr = (int *)KEY_BASE;
 340:	e3a03050 	mov	r3, #80	; 0x50
 344:	e34f3f20 	movt	r3, #65312	; 0xff20
 348:	e50b3008 	str	r3, [r11, #-8]
    *(KEY_ptr + 2) = 0xF; // enable all KEY interrupts
 34c:	e51b3008 	ldr	r3, [r11, #-8]
 350:	e2833008 	add	r3, r3, #8
 354:	e3a0200f 	mov	r2, #15
 358:	e5832000 	str	r2, [r3]
}
 35c:	e28bd000 	add	sp, r11, #0
 360:	e8bd0800 	ldmfd	sp!, {r11}
 364:	e12fff1e 	bx	lr

00000368 <__cs3_reset>:
void audio_ISR (void);
void keys_ISR(void);

// Define the exception handlers here 
void __attribute__ ((interrupt)) __cs3_reset (void)
{
 368:	e52db004 	push	{r11}		; (str r11, [sp, #-4]!)
 36c:	e28db000 	add	r11, sp, #0
    while(1);
 370:	eafffffe 	b	370 <__cs3_reset+0x8>

00000374 <__cs3_isr_undef>:
}

void __attribute__ ((interrupt)) __cs3_isr_undef (void)
{
 374:	e52db004 	push	{r11}		; (str r11, [sp, #-4]!)
 378:	e28db000 	add	r11, sp, #0
    while(1);
 37c:	eafffffe 	b	37c <__cs3_isr_undef+0x8>

00000380 <__cs3_isr_swi>:
}

void __attribute__ ((interrupt)) __cs3_isr_swi (void)
{
 380:	e52db004 	push	{r11}		; (str r11, [sp, #-4]!)
 384:	e28db000 	add	r11, sp, #0
    while(1);
 388:	eafffffe 	b	388 <__cs3_isr_swi+0x8>

0000038c <__cs3_isr_pabort>:
}

void __attribute__ ((interrupt)) __cs3_isr_pabort (void)
{
 38c:	e52db004 	push	{r11}		; (str r11, [sp, #-4]!)
 390:	e28db000 	add	r11, sp, #0
    while(1);
 394:	eafffffe 	b	394 <__cs3_isr_pabort+0x8>

00000398 <__cs3_isr_dabort>:
}

void __attribute__ ((interrupt)) __cs3_isr_dabort (void)
{
 398:	e52db004 	push	{r11}		; (str r11, [sp, #-4]!)
 39c:	e28db000 	add	r11, sp, #0
    while(1);
 3a0:	eafffffe 	b	3a0 <__cs3_isr_dabort+0x8>

000003a4 <__cs3_isr_irq>:
}

void __attribute__ ((interrupt)) __cs3_isr_irq (void)
{
 3a4:	e24ee004 	sub	lr, lr, #4
 3a8:	e92d580f 	push	{r0, r1, r2, r3, r11, r12, lr}
 3ac:	e28db018 	add	r11, sp, #24
 3b0:	e24dd00c 	sub	sp, sp, #12
	// Read the ICCIAR from the processor interface 
	int address = MPCORE_GIC_CPUIF + ICCIAR; 
 3b4:	e30c310c 	movw	r3, #49420	; 0xc10c
 3b8:	e34f3ffe 	movt	r3, #65534	; 0xfffe
 3bc:	e50b3020 	str	r3, [r11, #-32]	; 0xffffffe0
	int int_ID = *((int *) address); 
 3c0:	e51b3020 	ldr	r3, [r11, #-32]	; 0xffffffe0
 3c4:	e5933000 	ldr	r3, [r3]
 3c8:	e50b3024 	str	r3, [r11, #-36]	; 0xffffffdc
   
	//if (int_ID == MPCORE_PRIV_TIMER_IRQ)	// check if interrupt is from the private timer
	//	MPcore_private_timer_ISR();
	//else 
	if (int_ID == AUDIO_IRQ)				// check if interrupt is from the audio
 3cc:	e51b3024 	ldr	r3, [r11, #-36]	; 0xffffffdc
 3d0:	e353004e 	cmp	r3, #78	; 0x4e
 3d4:	1a000001 	bne	3e0 <__cs3_isr_irq+0x3c>
		audio_ISR();
 3d8:	eb0000c4 	bl	6f0 <audio_ISR>
 3dc:	ea000005 	b	3f8 <__cs3_isr_irq+0x54>
	else if (int_ID == KEYS_IRQ)
 3e0:	e51b3024 	ldr	r3, [r11, #-36]	; 0xffffffdc
 3e4:	e3530049 	cmp	r3, #73	; 0x49
 3e8:	1a000001 	bne	3f4 <__cs3_isr_irq+0x50>
		keys_ISR();
 3ec:	eb000090 	bl	634 <keys_ISR>
 3f0:	ea000000 	b	3f8 <__cs3_isr_irq+0x54>
	else
		while (1);									// if unexpected, then halt
 3f4:	eafffffe 	b	3f4 <__cs3_isr_irq+0x50>

	// Write to the End of Interrupt Register (ICCEOIR)
	address = MPCORE_GIC_CPUIF + ICCEOIR;
 3f8:	e30c3110 	movw	r3, #49424	; 0xc110
 3fc:	e34f3ffe 	movt	r3, #65534	; 0xfffe
 400:	e50b3020 	str	r3, [r11, #-32]	; 0xffffffe0
	*((int *) address) = int_ID;
 404:	e51b3020 	ldr	r3, [r11, #-32]	; 0xffffffe0
 408:	e51b2024 	ldr	r2, [r11, #-36]	; 0xffffffdc
 40c:	e5832000 	str	r2, [r3]

	return;
 410:	e1a00000 	nop			; (mov r0, r0)
}
 414:	e24bd018 	sub	sp, r11, #24
 418:	e8fd980f 	ldm	sp!, {r0, r1, r2, r3, r11, r12, pc}^

0000041c <__cs3_isr_fiq>:

void __attribute__ ((interrupt)) __cs3_isr_fiq (void)
{
 41c:	e52db004 	push	{r11}		; (str r11, [sp, #-4]!)
 420:	e28db000 	add	r11, sp, #0
    while(1);
 424:	eafffffe 	b	424 <__cs3_isr_fiq+0x8>

00000428 <set_A9_IRQ_stack>:

/* 
 * Initialize the banked stack pointer register for IRQ mode
*/
void set_A9_IRQ_stack(void)
{
 428:	e52db004 	push	{r11}		; (str r11, [sp, #-4]!)
 42c:	e28db000 	add	r11, sp, #0
 430:	e24dd00c 	sub	sp, sp, #12
	int stack, mode;
	stack = A9_ONCHIP_END - 7;		// top of A9 onchip memory, aligned to 8 bytes
 434:	e3e03007 	mvn	r3, #7
 438:	e50b3008 	str	r3, [r11, #-8]
	/* change processor to IRQ mode with interrupts disabled */
	mode = INT_DISABLE | IRQ_MODE;
 43c:	e3a030d2 	mov	r3, #210	; 0xd2
 440:	e50b300c 	str	r3, [r11, #-12]
	asm("msr cpsr, %[ps]" : : [ps] "r" (mode));
 444:	e51b300c 	ldr	r3, [r11, #-12]
 448:	e129f003 	msr	CPSR_fc, r3
	/* set banked stack pointer */
	asm("mov sp, %[ps]" : : [ps] "r" (stack));
 44c:	e51b3008 	ldr	r3, [r11, #-8]
 450:	e1a0d003 	mov	sp, r3

	/* go back to SVC mode before executing subroutine return! */
	mode = INT_DISABLE | SVC_MODE;
 454:	e3a030d3 	mov	r3, #211	; 0xd3
 458:	e50b300c 	str	r3, [r11, #-12]
	asm("msr cpsr, %[ps]" : : [ps] "r" (mode));
 45c:	e51b300c 	ldr	r3, [r11, #-12]
 460:	e129f003 	msr	CPSR_fc, r3
}
 464:	e28bd000 	add	sp, r11, #0
 468:	e8bd0800 	ldmfd	sp!, {r11}
 46c:	e12fff1e 	bx	lr

00000470 <enable_A9_interrupts>:

/* 
 * Turn on interrupts in the ARM processor
*/
void enable_A9_interrupts(void)
{
 470:	e52db004 	push	{r11}		; (str r11, [sp, #-4]!)
 474:	e28db000 	add	r11, sp, #0
 478:	e24dd00c 	sub	sp, sp, #12
	int status = SVC_MODE | INT_ENABLE;
 47c:	e3a03053 	mov	r3, #83	; 0x53
 480:	e50b3008 	str	r3, [r11, #-8]
	asm("msr cpsr,%[ps]" : : [ps]"r"(status));
 484:	e51b3008 	ldr	r3, [r11, #-8]
 488:	e129f003 	msr	CPSR_fc, r3
}
 48c:	e28bd000 	add	sp, r11, #0
 490:	e8bd0800 	ldmfd	sp!, {r11}
 494:	e12fff1e 	bx	lr

00000498 <config_GIC>:

/* 
 * Configure the Generic Interrupt Controller (GIC)
*/
void config_GIC(void)
{
 498:	e92d4800 	push	{r11, lr}
 49c:	e28db004 	add	r11, sp, #4
 4a0:	e24dd008 	sub	sp, sp, #8
	int address;	// used to calculate register addresses

	/* enable some examples of interrupts */
  	//config_interrupt (MPCORE_PRIV_TIMER_IRQ, CPU0);
  	config_interrupt (KEYS_IRQ, CPU0);
 4a4:	e3a00049 	mov	r0, #73	; 0x49
 4a8:	e3a01001 	mov	r1, #1
 4ac:	eb000016 	bl	50c <config_interrupt>
  	config_interrupt (AUDIO_IRQ, CPU0);
 4b0:	e3a0004e 	mov	r0, #78	; 0x4e
 4b4:	e3a01001 	mov	r1, #1
 4b8:	eb000013 	bl	50c <config_interrupt>
    
  	// Set Interrupt Priority Mask Register (ICCPMR). Enable interrupts for lowest priority 
	address = MPCORE_GIC_CPUIF + ICCPMR;
 4bc:	e30c3104 	movw	r3, #49412	; 0xc104
 4c0:	e34f3ffe 	movt	r3, #65534	; 0xfffe
 4c4:	e50b3008 	str	r3, [r11, #-8]
  	*((int *) address) = 0xFFFF;       
 4c8:	e51b3008 	ldr	r3, [r11, #-8]
 4cc:	e30f2fff 	movw	r2, #65535	; 0xffff
 4d0:	e5832000 	str	r2, [r3]

  	// Set CPU Interface Control Register (ICCICR). Enable signaling of interrupts
	address = MPCORE_GIC_CPUIF + ICCICR;
 4d4:	e3a03cc1 	mov	r3, #49408	; 0xc100
 4d8:	e34f3ffe 	movt	r3, #65534	; 0xfffe
 4dc:	e50b3008 	str	r3, [r11, #-8]
	*((int *) address) = ENABLE;
 4e0:	e51b3008 	ldr	r3, [r11, #-8]
 4e4:	e3a02001 	mov	r2, #1
 4e8:	e5832000 	str	r2, [r3]

	// Configure the Distributor Control Register (ICDDCR) to send pending interrupts to CPUs 
	address = MPCORE_GIC_DIST + ICDDCR;
 4ec:	e3a03a0d 	mov	r3, #53248	; 0xd000
 4f0:	e34f3ffe 	movt	r3, #65534	; 0xfffe
 4f4:	e50b3008 	str	r3, [r11, #-8]
	*((int *) address) = ENABLE;   
 4f8:	e51b3008 	ldr	r3, [r11, #-8]
 4fc:	e3a02001 	mov	r2, #1
 500:	e5832000 	str	r2, [r3]
}
 504:	e24bd004 	sub	sp, r11, #4
 508:	e8bd8800 	pop	{r11, pc}

0000050c <config_interrupt>:

/* 
 * Configure registers in the GIC for individual interrupt IDs.
*/
void config_interrupt (int int_ID, int CPU_target)
{
 50c:	e92d4800 	push	{r11, lr}
 510:	e28db004 	add	r11, sp, #4
 514:	e24dd018 	sub	sp, sp, #24
 518:	e50b0018 	str	r0, [r11, #-24]	; 0xffffffe8
 51c:	e50b101c 	str	r1, [r11, #-28]	; 0xffffffe4
	/* Set Interrupt Processor Targets Register (ICDIPTRn) to cpu0. 
	 * n = integer_div(int_ID / 4) * 4
	 * addr_offet = #ICDIPTR + n
	 * value = CPU_target << ((int_ID & 0x3) * 8)
	 */
	n = (int_ID >> 2) << 2;
 520:	e51b3018 	ldr	r3, [r11, #-24]	; 0xffffffe8
 524:	e3c33003 	bic	r3, r3, #3
 528:	e50b3008 	str	r3, [r11, #-8]
	addr_offset = ICDIPTR + n;
 52c:	e51b3008 	ldr	r3, [r11, #-8]
 530:	e2833b02 	add	r3, r3, #2048	; 0x800
 534:	e50b300c 	str	r3, [r11, #-12]
	value = CPU_target << ((int_ID & 0x3) << 3);
 538:	e51b3018 	ldr	r3, [r11, #-24]	; 0xffffffe8
 53c:	e2033003 	and	r3, r3, #3
 540:	e1a03183 	lsl	r3, r3, #3
 544:	e51b201c 	ldr	r2, [r11, #-28]	; 0xffffffe4
 548:	e1a03312 	lsl	r3, r2, r3
 54c:	e50b3010 	str	r3, [r11, #-16]
	
	/* Now that we know the register address and value, we need to set the correct bits in 
	 * the GIC register, without changing the other bits */
	address = MPCORE_GIC_DIST + addr_offset;
 550:	e51b300c 	ldr	r3, [r11, #-12]
 554:	e2433a13 	sub	r3, r3, #77824	; 0x13000
 558:	e50b3014 	str	r3, [r11, #-20]	; 0xffffffec
	hw_write_bits((int *) address, 0xff << ((int_ID & 0x3) << 3), value);  
 55c:	e51b2014 	ldr	r2, [r11, #-20]	; 0xffffffec
 560:	e51b3018 	ldr	r3, [r11, #-24]	; 0xffffffe8
 564:	e2033003 	and	r3, r3, #3
 568:	e1a03183 	lsl	r3, r3, #3
 56c:	e3a010ff 	mov	r1, #255	; 0xff
 570:	e1a03311 	lsl	r3, r1, r3
 574:	e1a00002 	mov	r0, r2
 578:	e1a01003 	mov	r1, r3
 57c:	e51b2010 	ldr	r2, [r11, #-16]
 580:	eb000019 	bl	5ec <hw_write_bits>
    
	/* Set Interrupt Set-Enable Registers (ICDISERn). 
	 * n = (integer_div(in_ID / 32) * 4
	 * addr_offset = 0x100 + n
	 * value = enable << (int_ID & 0x1F) */
	n = (int_ID >> 5) << 2; 
 584:	e51b3018 	ldr	r3, [r11, #-24]	; 0xffffffe8
 588:	e1a032c3 	asr	r3, r3, #5
 58c:	e1a03103 	lsl	r3, r3, #2
 590:	e50b3008 	str	r3, [r11, #-8]
	addr_offset = ICDISER + n;
 594:	e51b3008 	ldr	r3, [r11, #-8]
 598:	e2833c01 	add	r3, r3, #256	; 0x100
 59c:	e50b300c 	str	r3, [r11, #-12]
	value = 0x1 << (int_ID & 0x1f);
 5a0:	e51b3018 	ldr	r3, [r11, #-24]	; 0xffffffe8
 5a4:	e203301f 	and	r3, r3, #31
 5a8:	e3a02001 	mov	r2, #1
 5ac:	e1a03312 	lsl	r3, r2, r3
 5b0:	e50b3010 	str	r3, [r11, #-16]
	/* Now that we know the register address and value, we need to set the correct bits in 
	 * the GIC register, without changing the other bits */
	address = MPCORE_GIC_DIST + addr_offset;
 5b4:	e51b300c 	ldr	r3, [r11, #-12]
 5b8:	e2433a13 	sub	r3, r3, #77824	; 0x13000
 5bc:	e50b3014 	str	r3, [r11, #-20]	; 0xffffffec
	hw_write_bits((int *) address, 0x1 << (int_ID & 0x1f), value);    
 5c0:	e51b2014 	ldr	r2, [r11, #-20]	; 0xffffffec
 5c4:	e51b3018 	ldr	r3, [r11, #-24]	; 0xffffffe8
 5c8:	e203301f 	and	r3, r3, #31
 5cc:	e3a01001 	mov	r1, #1
 5d0:	e1a03311 	lsl	r3, r1, r3
 5d4:	e1a00002 	mov	r0, r2
 5d8:	e1a01003 	mov	r1, r3
 5dc:	e51b2010 	ldr	r2, [r11, #-16]
 5e0:	eb000001 	bl	5ec <hw_write_bits>
}
 5e4:	e24bd004 	sub	sp, r11, #4
 5e8:	e8bd8800 	pop	{r11, pc}

000005ec <hw_write_bits>:

void hw_write_bits(volatile int * addr, volatile int unmask, volatile int value)
{     
 5ec:	e52db004 	push	{r11}		; (str r11, [sp, #-4]!)
 5f0:	e28db000 	add	r11, sp, #0
 5f4:	e24dd014 	sub	sp, sp, #20
 5f8:	e50b0008 	str	r0, [r11, #-8]
 5fc:	e50b100c 	str	r1, [r11, #-12]
 600:	e50b2010 	str	r2, [r11, #-16]
    *addr = ((~unmask) & *addr) | value;
 604:	e51b300c 	ldr	r3, [r11, #-12]
 608:	e1e02003 	mvn	r2, r3
 60c:	e51b3008 	ldr	r3, [r11, #-8]
 610:	e5933000 	ldr	r3, [r3]
 614:	e0022003 	and	r2, r2, r3
 618:	e51b3010 	ldr	r3, [r11, #-16]
 61c:	e1822003 	orr	r2, r2, r3
 620:	e51b3008 	ldr	r3, [r11, #-8]
 624:	e5832000 	str	r2, [r3]
}
 628:	e28bd000 	add	sp, r11, #0
 62c:	e8bd0800 	ldmfd	sp!, {r11}
 630:	e12fff1e 	bx	lr

00000634 <keys_ISR>:
    0x069DF787, 0xF9DBFF84, 0xF9160731, 0x059DFF4A, 0x0526F82D, 0xF8A9015E, 0xFB5E06E5, 0x070BFCF2, 0x02F0F84B, 0xF7B402DD, 0xFD3505D5, 0x07ABFB79, 0x017FF940, 0xF7610410, 0xFF590550, 0x0835FA0E, 0xFF82FAE1, 0xF74604F7, 0x024302FA
};

// testing
void keys_ISR(void)
{
 634:	e52db004 	push	{r11}		; (str r11, [sp, #-4]!)
 638:	e28db000 	add	r11, sp, #0
 63c:	e24dd014 	sub	sp, sp, #20
    volatile int* key_ptr = (int*)KEY_BASE;
 640:	e3a03050 	mov	r3, #80	; 0x50
 644:	e34f3f20 	movt	r3, #65312	; 0xff20
 648:	e50b3008 	str	r3, [r11, #-8]
    volatile int* red_LED_ptr = (int*)LED_BASE;
 64c:	e3a03000 	mov	r3, #0
 650:	e34f3f20 	movt	r3, #65312	; 0xff20
 654:	e50b300c 	str	r3, [r11, #-12]

    int press = *(key_ptr + 3);
 658:	e51b3008 	ldr	r3, [r11, #-8]
 65c:	e593300c 	ldr	r3, [r3, #12]
 660:	e50b3010 	str	r3, [r11, #-16]
    *(key_ptr + 3) = press;
 664:	e51b3008 	ldr	r3, [r11, #-8]
 668:	e283300c 	add	r3, r3, #12
 66c:	e51b2010 	ldr	r2, [r11, #-16]
 670:	e5832000 	str	r2, [r3]

    if (press & 0x1)
 674:	e51b3010 	ldr	r3, [r11, #-16]
 678:	e2033001 	and	r3, r3, #1
 67c:	e3530000 	cmp	r3, #0
 680:	0a000003 	beq	694 <keys_ISR+0x60>
        *red_LED_ptr = 0x1;
 684:	e51b300c 	ldr	r3, [r11, #-12]
 688:	e3a02001 	mov	r2, #1
 68c:	e5832000 	str	r2, [r3]
    else if (press & 0x4)
        *red_LED_ptr = 0x4;
    else
        *red_LED_ptr = 0x8;

    return;
 690:	ea000012 	b	6e0 <keys_ISR+0xac>
    int press = *(key_ptr + 3);
    *(key_ptr + 3) = press;

    if (press & 0x1)
        *red_LED_ptr = 0x1;
    else if (press & 0x2)
 694:	e51b3010 	ldr	r3, [r11, #-16]
 698:	e2033002 	and	r3, r3, #2
 69c:	e3530000 	cmp	r3, #0
 6a0:	0a000003 	beq	6b4 <keys_ISR+0x80>
        *red_LED_ptr = 0x2;
 6a4:	e51b300c 	ldr	r3, [r11, #-12]
 6a8:	e3a02002 	mov	r2, #2
 6ac:	e5832000 	str	r2, [r3]
    else if (press & 0x4)
        *red_LED_ptr = 0x4;
    else
        *red_LED_ptr = 0x8;

    return;
 6b0:	ea00000a 	b	6e0 <keys_ISR+0xac>

    if (press & 0x1)
        *red_LED_ptr = 0x1;
    else if (press & 0x2)
        *red_LED_ptr = 0x2;
    else if (press & 0x4)
 6b4:	e51b3010 	ldr	r3, [r11, #-16]
 6b8:	e2033004 	and	r3, r3, #4
 6bc:	e3530000 	cmp	r3, #0
 6c0:	0a000003 	beq	6d4 <keys_ISR+0xa0>
        *red_LED_ptr = 0x4;
 6c4:	e51b300c 	ldr	r3, [r11, #-12]
 6c8:	e3a02004 	mov	r2, #4
 6cc:	e5832000 	str	r2, [r3]
    else
        *red_LED_ptr = 0x8;

    return;
 6d0:	ea000002 	b	6e0 <keys_ISR+0xac>
    else if (press & 0x2)
        *red_LED_ptr = 0x2;
    else if (press & 0x4)
        *red_LED_ptr = 0x4;
    else
        *red_LED_ptr = 0x8;
 6d4:	e51b300c 	ldr	r3, [r11, #-12]
 6d8:	e3a02008 	mov	r2, #8
 6dc:	e5832000 	str	r2, [r3]

    return;
 6e0:	e1a00000 	nop			; (mov r0, r0)
}
 6e4:	e28bd000 	add	sp, r11, #0
 6e8:	e8bd0800 	ldmfd	sp!, {r11}
 6ec:	e12fff1e 	bx	lr

000006f0 <audio_ISR>:
volatile int left_buffer[AUDIO_BUF_SIZE];
volatile int right_buffer[AUDIO_BUF_SIZE];


void audio_ISR(void)
{
 6f0:	e52db004 	push	{r11}		; (str r11, [sp, #-4]!)
 6f4:	e28db000 	add	r11, sp, #0
 6f8:	e24dd014 	sub	sp, sp, #20
	volatile int * audio_ptr = (int *) AUDIO_BASE;		// audio port address
 6fc:	e3a03dc1 	mov	r3, #12352	; 0x3040
 700:	e34f3f20 	movt	r3, #65312	; 0xff20
 704:	e50b300c 	str	r3, [r11, #-12]
  	volatile int * red_LED_ptr = (int *) LED_BASE;		// red LED address
 708:	e3a03000 	mov	r3, #0
 70c:	e34f3f20 	movt	r3, #65312	; 0xff20
 710:	e50b3010 	str	r3, [r11, #-16]
    // turn off interrupts
    //hw_set_bit(audio_ptr, 1, 0);
	
	int fifospace;

	if (*(audio_ptr) & 0x100) // check read (RI)
 714:	e51b300c 	ldr	r3, [r11, #-12]
 718:	e5933000 	ldr	r3, [r3]
 71c:	e2033c01 	and	r3, r3, #256	; 0x100
 720:	e3530000 	cmp	r3, #0
 724:	0a000027 	beq	7c8 <audio_ISR+0xd8>
	{  
		fifospace = *(audio_ptr + 1);
 728:	e51b300c 	ldr	r3, [r11, #-12]
 72c:	e5933004 	ldr	r3, [r3, #4]
 730:	e50b3008 	str	r3, [r11, #-8]
		// store data until the the audio-in FIFO is empty or the buffer is full
		while ((fifospace & 0x000000FF) && (buffer_index < AUDIO_BUF_SIZE))
 734:	ea000019 	b	7a0 <audio_ISR+0xb0>
		{
			left_buffer[buffer_index] = *(audio_ptr + 2); 		
 738:	e3043fcc 	movw	r3, #20428	; 0x4fcc
 73c:	e3403000 	movt	r3, #0
 740:	e5932000 	ldr	r2, [r3]
 744:	e51b300c 	ldr	r3, [r11, #-12]
 748:	e5931008 	ldr	r1, [r3, #8]
 74c:	e3043fd0 	movw	r3, #20432	; 0x4fd0
 750:	e3403000 	movt	r3, #0
 754:	e7831102 	str	r1, [r3, r2, lsl #2]
			right_buffer[buffer_index] = *(audio_ptr + 3); 		
 758:	e3043fcc 	movw	r3, #20428	; 0x4fcc
 75c:	e3403000 	movt	r3, #0
 760:	e5932000 	ldr	r2, [r3]
 764:	e51b300c 	ldr	r3, [r11, #-12]
 768:	e593100c 	ldr	r1, [r3, #12]
 76c:	e3063f10 	movw	r3, #28432	; 0x6f10
 770:	e3403000 	movt	r3, #0
 774:	e7831102 	str	r1, [r3, r2, lsl #2]
			++buffer_index;
 778:	e3043fcc 	movw	r3, #20428	; 0x4fcc
 77c:	e3403000 	movt	r3, #0
 780:	e5933000 	ldr	r3, [r3]
 784:	e2832001 	add	r2, r3, #1
 788:	e3043fcc 	movw	r3, #20428	; 0x4fcc
 78c:	e3403000 	movt	r3, #0
 790:	e5832000 	str	r2, [r3]
			//	//record = 0;
			//	//*(red_LED_ptr) = 0x0;
            //    // acknowledge and re-enable interrupts
			//	*(audio_ptr) |= 0x1;
			//}
			fifospace = *(audio_ptr + 1);
 794:	e51b300c 	ldr	r3, [r11, #-12]
 798:	e5933004 	ldr	r3, [r3, #4]
 79c:	e50b3008 	str	r3, [r11, #-8]

	if (*(audio_ptr) & 0x100) // check read (RI)
	{  
		fifospace = *(audio_ptr + 1);
		// store data until the the audio-in FIFO is empty or the buffer is full
		while ((fifospace & 0x000000FF) && (buffer_index < AUDIO_BUF_SIZE))
 7a0:	e51b3008 	ldr	r3, [r11, #-8]
 7a4:	e6ef3073 	uxtb	r3, r3
 7a8:	e3530000 	cmp	r3, #0
 7ac:	0a000005 	beq	7c8 <audio_ISR+0xd8>
 7b0:	e3043fcc 	movw	r3, #20428	; 0x4fcc
 7b4:	e3403000 	movt	r3, #0
 7b8:	e5932000 	ldr	r2, [r3]
 7bc:	e30037cf 	movw	r3, #1999	; 0x7cf
 7c0:	e1520003 	cmp	r2, r3
 7c4:	daffffdb 	ble	738 <audio_ISR+0x48>
			//	*(audio_ptr) |= 0x1;
			//}
			fifospace = *(audio_ptr + 1);
		}
	}
	if (*(audio_ptr) & 0x200) // check write (WI)
 7c8:	e51b300c 	ldr	r3, [r11, #-12]
 7cc:	e5933000 	ldr	r3, [r3]
 7d0:	e2033c02 	and	r3, r3, #512	; 0x200
 7d4:	e3530000 	cmp	r3, #0
 7d8:	0a000028 	beq	880 <audio_ISR+0x190>
	{
		fifospace = *(audio_ptr + 1);
 7dc:	e51b300c 	ldr	r3, [r11, #-12]
 7e0:	e5933004 	ldr	r3, [r3, #4]
 7e4:	e50b3008 	str	r3, [r11, #-8]
		// output data until the buffer is empty or the audio-out FIFO is full
		while ((fifospace & 0x00FF0000) && (buffer_index > 0))
 7e8:	ea00001b 	b	85c <audio_ISR+0x16c>
		{
			*(audio_ptr + 2) = left_buffer[buffer_index];
 7ec:	e51b300c 	ldr	r3, [r11, #-12]
 7f0:	e2832008 	add	r2, r3, #8
 7f4:	e3043fcc 	movw	r3, #20428	; 0x4fcc
 7f8:	e3403000 	movt	r3, #0
 7fc:	e5931000 	ldr	r1, [r3]
 800:	e3043fd0 	movw	r3, #20432	; 0x4fd0
 804:	e3403000 	movt	r3, #0
 808:	e7933101 	ldr	r3, [r3, r1, lsl #2]
 80c:	e5823000 	str	r3, [r2]
			*(audio_ptr + 3) = right_buffer[buffer_index];
 810:	e51b300c 	ldr	r3, [r11, #-12]
 814:	e283200c 	add	r2, r3, #12
 818:	e3043fcc 	movw	r3, #20428	; 0x4fcc
 81c:	e3403000 	movt	r3, #0
 820:	e5931000 	ldr	r1, [r3]
 824:	e3063f10 	movw	r3, #28432	; 0x6f10
 828:	e3403000 	movt	r3, #0
 82c:	e7933101 	ldr	r3, [r3, r1, lsl #2]
 830:	e5823000 	str	r3, [r2]
			--buffer_index;
 834:	e3043fcc 	movw	r3, #20428	; 0x4fcc
 838:	e3403000 	movt	r3, #0
 83c:	e5933000 	ldr	r3, [r3]
 840:	e2432001 	sub	r2, r3, #1
 844:	e3043fcc 	movw	r3, #20428	; 0x4fcc
 848:	e3403000 	movt	r3, #0
 84c:	e5832000 	str	r2, [r3]
            //    //buffer_index = 0;
            //    // acknowledge and re-enable interrupts
			//	*(audio_ptr) |= 0x2;
            //    return;
			//}
			fifospace = *(audio_ptr + 1);
 850:	e51b300c 	ldr	r3, [r11, #-12]
 854:	e5933004 	ldr	r3, [r3, #4]
 858:	e50b3008 	str	r3, [r11, #-8]
	}
	if (*(audio_ptr) & 0x200) // check write (WI)
	{
		fifospace = *(audio_ptr + 1);
		// output data until the buffer is empty or the audio-out FIFO is full
		while ((fifospace & 0x00FF0000) && (buffer_index > 0))
 85c:	e51b3008 	ldr	r3, [r11, #-8]
 860:	e20338ff 	and	r3, r3, #16711680	; 0xff0000
 864:	e3530000 	cmp	r3, #0
 868:	0a000004 	beq	880 <audio_ISR+0x190>
 86c:	e3043fcc 	movw	r3, #20428	; 0x4fcc
 870:	e3403000 	movt	r3, #0
 874:	e5933000 	ldr	r3, [r3]
 878:	e3530000 	cmp	r3, #0
 87c:	caffffda 	bgt	7ec <audio_ISR+0xfc>
		}
	}

    // turn interrupts back on
    //hw_set_bit(audio_ptr, 1, 1);
	return;
 880:	e1a00000 	nop			; (mov r0, r0)
}
 884:	e28bd000 	add	sp, r11, #0
 888:	e8bd0800 	ldmfd	sp!, {r11}
 88c:	e12fff1e 	bx	lr

00000890 <atexit>:
 890:	e1a01000 	mov	r1, r0
 894:	e3a00000 	mov	r0, #0
 898:	e92d4008 	push	{r3, lr}
 89c:	e1a02000 	mov	r2, r0
 8a0:	e1a03000 	mov	r3, r0
 8a4:	eb00000e 	bl	8e4 <__register_exitproc>
 8a8:	e8bd4008 	pop	{r3, lr}
 8ac:	e12fff1e 	bx	lr

000008b0 <exit>:
 8b0:	e92d4008 	push	{r3, lr}
 8b4:	e3a01000 	mov	r1, #0
 8b8:	e1a04000 	mov	r4, r0
 8bc:	eb000045 	bl	9d8 <__call_exitprocs>
 8c0:	e59f3018 	ldr	r3, [pc, #24]	; 8e0 <exit+0x30>
 8c4:	e5930000 	ldr	r0, [r3]
 8c8:	e590303c 	ldr	r3, [r0, #60]	; 0x3c
 8cc:	e3530000 	cmp	r3, #0
 8d0:	11a0e00f 	movne	lr, pc
 8d4:	112fff13 	bxne	r3
 8d8:	e1a00004 	mov	r0, r4
 8dc:	eb0000c9 	bl	c08 <_exit>
 8e0:	00004b18 	.word	0x00004b18

000008e4 <__register_exitproc>:
 8e4:	e59fc0e4 	ldr	r12, [pc, #228]	; 9d0 <__register_exitproc+0xec>
 8e8:	e92d41f0 	push	{r4, r5, r6, r7, r8, lr}
 8ec:	e59c4000 	ldr	r4, [r12]
 8f0:	e594c148 	ldr	r12, [r4, #328]	; 0x148
 8f4:	e35c0000 	cmp	r12, #0
 8f8:	0284cf53 	addeq	r12, r4, #332	; 0x14c
 8fc:	e59c5004 	ldr	r5, [r12, #4]
 900:	0584c148 	streq	r12, [r4, #328]	; 0x148
 904:	e355001f 	cmp	r5, #31
 908:	e24dd010 	sub	sp, sp, #16
 90c:	e1a06000 	mov	r6, r0
 910:	da000015 	ble	96c <__register_exitproc+0x88>
 914:	e59f00b8 	ldr	r0, [pc, #184]	; 9d4 <__register_exitproc+0xf0>
 918:	e3500000 	cmp	r0, #0
 91c:	1a000001 	bne	928 <__register_exitproc+0x44>
 920:	e3e00000 	mvn	r0, #0
 924:	ea000018 	b	98c <__register_exitproc+0xa8>
 928:	e3a00e19 	mov	r0, #400	; 0x190
 92c:	e58d100c 	str	r1, [sp, #12]
 930:	e58d2008 	str	r2, [sp, #8]
 934:	e58d3004 	str	r3, [sp, #4]
 938:	e320f000 	nop	{0}
 93c:	e250c000 	subs	r12, r0, #0
 940:	e59d100c 	ldr	r1, [sp, #12]
 944:	e59d2008 	ldr	r2, [sp, #8]
 948:	e59d3004 	ldr	r3, [sp, #4]
 94c:	0afffff3 	beq	920 <__register_exitproc+0x3c>
 950:	e5945148 	ldr	r5, [r4, #328]	; 0x148
 954:	e3a00000 	mov	r0, #0
 958:	e58c0004 	str	r0, [r12, #4]
 95c:	e58c5000 	str	r5, [r12]
 960:	e584c148 	str	r12, [r4, #328]	; 0x148
 964:	e58c0188 	str	r0, [r12, #392]	; 0x188
 968:	e58c018c 	str	r0, [r12, #396]	; 0x18c
 96c:	e3560000 	cmp	r6, #0
 970:	e59c4004 	ldr	r4, [r12, #4]
 974:	1a000007 	bne	998 <__register_exitproc+0xb4>
 978:	e2843002 	add	r3, r4, #2
 97c:	e2844001 	add	r4, r4, #1
 980:	e78c1103 	str	r1, [r12, r3, lsl #2]
 984:	e58c4004 	str	r4, [r12, #4]
 988:	e3a00000 	mov	r0, #0
 98c:	e28dd010 	add	sp, sp, #16
 990:	e8bd41f0 	pop	{r4, r5, r6, r7, r8, lr}
 994:	e12fff1e 	bx	lr
 998:	e3a00001 	mov	r0, #1
 99c:	e1a00410 	lsl	r0, r0, r4
 9a0:	e08c8104 	add	r8, r12, r4, lsl #2
 9a4:	e3560002 	cmp	r6, #2
 9a8:	e59c7188 	ldr	r7, [r12, #392]	; 0x188
 9ac:	e5883108 	str	r3, [r8, #264]	; 0x108
 9b0:	059c318c 	ldreq	r3, [r12, #396]	; 0x18c
 9b4:	e1877000 	orr	r7, r7, r0
 9b8:	01830000 	orreq	r0, r3, r0
 9bc:	e1a05008 	mov	r5, r8
 9c0:	e5882088 	str	r2, [r8, #136]	; 0x88
 9c4:	e58c7188 	str	r7, [r12, #392]	; 0x188
 9c8:	058c018c 	streq	r0, [r12, #396]	; 0x18c
 9cc:	eaffffe9 	b	978 <__register_exitproc+0x94>
 9d0:	00004b18 	.word	0x00004b18
 9d4:	00000000 	.word	0x00000000

000009d8 <__call_exitprocs>:
 9d8:	e92d4ff0 	push	{r4, r5, r6, r7, r8, r9, r10, r11, lr}
 9dc:	e59f3168 	ldr	r3, [pc, #360]	; b4c <__call_exitprocs+0x174>
 9e0:	e5933000 	ldr	r3, [r3]
 9e4:	e24dd014 	sub	sp, sp, #20
 9e8:	e58d3004 	str	r3, [sp, #4]
 9ec:	e2833f52 	add	r3, r3, #328	; 0x148
 9f0:	e58d0008 	str	r0, [sp, #8]
 9f4:	e58d300c 	str	r3, [sp, #12]
 9f8:	e1a07001 	mov	r7, r1
 9fc:	e3a08001 	mov	r8, #1
 a00:	e59d3004 	ldr	r3, [sp, #4]
 a04:	e5936148 	ldr	r6, [r3, #328]	; 0x148
 a08:	e3560000 	cmp	r6, #0
 a0c:	e59db00c 	ldr	r11, [sp, #12]
 a10:	0a000033 	beq	ae4 <__call_exitprocs+0x10c>
 a14:	e5965004 	ldr	r5, [r6, #4]
 a18:	e2554001 	subs	r4, r5, #1
 a1c:	5286a088 	addpl	r10, r6, #136	; 0x88
 a20:	5285501f 	addpl	r5, r5, #31
 a24:	508a5105 	addpl	r5, r10, r5, lsl #2
 a28:	5a000007 	bpl	a4c <__call_exitprocs+0x74>
 a2c:	ea000029 	b	ad8 <__call_exitprocs+0x100>
 a30:	e5953000 	ldr	r3, [r5]
 a34:	e1530007 	cmp	r3, r7
 a38:	0a000005 	beq	a54 <__call_exitprocs+0x7c>
 a3c:	e2444001 	sub	r4, r4, #1
 a40:	e3740001 	cmn	r4, #1
 a44:	e2455004 	sub	r5, r5, #4
 a48:	0a000022 	beq	ad8 <__call_exitprocs+0x100>
 a4c:	e3570000 	cmp	r7, #0
 a50:	1afffff6 	bne	a30 <__call_exitprocs+0x58>
 a54:	e5963004 	ldr	r3, [r6, #4]
 a58:	e06a2005 	rsb	r2, r10, r5
 a5c:	e2433001 	sub	r3, r3, #1
 a60:	e0862002 	add	r2, r6, r2
 a64:	e1530004 	cmp	r3, r4
 a68:	e5123078 	ldr	r3, [r2, #-120]	; 0xffffff88
 a6c:	13a01000 	movne	r1, #0
 a70:	05864004 	streq	r4, [r6, #4]
 a74:	15021078 	strne	r1, [r2, #-120]	; 0xffffff88
 a78:	e3530000 	cmp	r3, #0
 a7c:	0affffee 	beq	a3c <__call_exitprocs+0x64>
 a80:	e1a02418 	lsl	r2, r8, r4
 a84:	e5961188 	ldr	r1, [r6, #392]	; 0x188
 a88:	e1120001 	tst	r2, r1
 a8c:	e5969004 	ldr	r9, [r6, #4]
 a90:	0a000016 	beq	af0 <__call_exitprocs+0x118>
 a94:	e596118c 	ldr	r1, [r6, #396]	; 0x18c
 a98:	e1120001 	tst	r2, r1
 a9c:	1a000016 	bne	afc <__call_exitprocs+0x124>
 aa0:	e59d0008 	ldr	r0, [sp, #8]
 aa4:	e5151080 	ldr	r1, [r5, #-128]	; 0xffffff80
 aa8:	e1a0e00f 	mov	lr, pc
 aac:	e12fff13 	bx	r3
 ab0:	e5963004 	ldr	r3, [r6, #4]
 ab4:	e1530009 	cmp	r3, r9
 ab8:	1affffd0 	bne	a00 <__call_exitprocs+0x28>
 abc:	e59b3000 	ldr	r3, [r11]
 ac0:	e1530006 	cmp	r3, r6
 ac4:	1affffcd 	bne	a00 <__call_exitprocs+0x28>
 ac8:	e2444001 	sub	r4, r4, #1
 acc:	e3740001 	cmn	r4, #1
 ad0:	e2455004 	sub	r5, r5, #4
 ad4:	1affffdc 	bne	a4c <__call_exitprocs+0x74>
 ad8:	e59f1070 	ldr	r1, [pc, #112]	; b50 <__call_exitprocs+0x178>
 adc:	e3510000 	cmp	r1, #0
 ae0:	1a000009 	bne	b0c <__call_exitprocs+0x134>
 ae4:	e28dd014 	add	sp, sp, #20
 ae8:	e8bd4ff0 	pop	{r4, r5, r6, r7, r8, r9, r10, r11, lr}
 aec:	e12fff1e 	bx	lr
 af0:	e1a0e00f 	mov	lr, pc
 af4:	e12fff13 	bx	r3
 af8:	eaffffec 	b	ab0 <__call_exitprocs+0xd8>
 afc:	e5150080 	ldr	r0, [r5, #-128]	; 0xffffff80
 b00:	e1a0e00f 	mov	lr, pc
 b04:	e12fff13 	bx	r3
 b08:	eaffffe8 	b	ab0 <__call_exitprocs+0xd8>
 b0c:	e5963004 	ldr	r3, [r6, #4]
 b10:	e3530000 	cmp	r3, #0
 b14:	e5963000 	ldr	r3, [r6]
 b18:	1a000008 	bne	b40 <__call_exitprocs+0x168>
 b1c:	e3530000 	cmp	r3, #0
 b20:	0a000006 	beq	b40 <__call_exitprocs+0x168>
 b24:	e1a00006 	mov	r0, r6
 b28:	e58b3000 	str	r3, [r11]
 b2c:	e320f000 	nop	{0}
 b30:	e59b6000 	ldr	r6, [r11]
 b34:	e3560000 	cmp	r6, #0
 b38:	1affffb5 	bne	a14 <__call_exitprocs+0x3c>
 b3c:	eaffffe8 	b	ae4 <__call_exitprocs+0x10c>
 b40:	e1a0b006 	mov	r11, r6
 b44:	e1a06003 	mov	r6, r3
 b48:	eafffff9 	b	b34 <__call_exitprocs+0x15c>
 b4c:	00004b18 	.word	0x00004b18
 b50:	00000000 	.word	0x00000000

00000b54 <register_fini>:
 b54:	e92d4008 	push	{r3, lr}
 b58:	e59f3010 	ldr	r3, [pc, #16]	; b70 <register_fini+0x1c>
 b5c:	e3530000 	cmp	r3, #0
 b60:	159f000c 	ldrne	r0, [pc, #12]	; b74 <register_fini+0x20>
 b64:	1bffff49 	blne	890 <atexit>
 b68:	e8bd4008 	pop	{r3, lr}
 b6c:	e12fff1e 	bx	lr
 b70:	00004b40 	.word	0x00004b40
 b74:	00000b78 	.word	0x00000b78

00000b78 <__libc_fini_array>:
 b78:	e92d4038 	push	{r3, r4, r5, lr}
 b7c:	e59f5030 	ldr	r5, [pc, #48]	; bb4 <__libc_fini_array+0x3c>
 b80:	e59f4030 	ldr	r4, [pc, #48]	; bb8 <__libc_fini_array+0x40>
 b84:	e0654004 	rsb	r4, r5, r4
 b88:	e1b04144 	asrs	r4, r4, #2
 b8c:	10855104 	addne	r5, r5, r4, lsl #2
 b90:	0a000004 	beq	ba8 <__libc_fini_array+0x30>
 b94:	e5353004 	ldr	r3, [r5, #-4]!
 b98:	e1a0e00f 	mov	lr, pc
 b9c:	e12fff13 	bx	r3
 ba0:	e2544001 	subs	r4, r4, #1
 ba4:	1afffffa 	bne	b94 <__libc_fini_array+0x1c>
 ba8:	eb000fe4 	bl	4b40 <__libc_fini>
 bac:	e8bd4038 	pop	{r3, r4, r5, lr}
 bb0:	e12fff1e 	bx	lr
 bb4:	00004b58 	.word	0x00004b58
 bb8:	00004b5c 	.word	0x00004b5c

00000bbc <__cs3_premain>:
 bbc:	e92d4008 	push	{r3, lr}
 bc0:	eb000017 	bl	c24 <__libc_init_array>
 bc4:	e59f3030 	ldr	r3, [pc, #48]	; bfc <__cs3_premain+0x40>
 bc8:	e3530000 	cmp	r3, #0
 bcc:	15930000 	ldrne	r0, [r3]
 bd0:	01a00003 	moveq	r0, r3
 bd4:	e59f3024 	ldr	r3, [pc, #36]	; c00 <__cs3_premain+0x44>
 bd8:	e3530000 	cmp	r3, #0
 bdc:	15931000 	ldrne	r1, [r3]
 be0:	01a01003 	moveq	r1, r3
 be4:	e3a02000 	mov	r2, #0
 be8:	ebfffd9b 	bl	25c <main>
 bec:	e59f3010 	ldr	r3, [pc, #16]	; c04 <__cs3_premain+0x48>
 bf0:	e3530000 	cmp	r3, #0
 bf4:	1bffff2d 	blne	8b0 <exit>
 bf8:	eafffffe 	b	bf8 <__cs3_premain+0x3c>
	...
 c04:	000008b0 	.word	0x000008b0

00000c08 <_exit>:
 c08:	e52de004 	push	{lr}		; (str lr, [sp, #-4]!)
 c0c:	e3a00018 	mov	r0, #24
 c10:	e59f1004 	ldr	r1, [pc, #4]	; c1c <_exit+0x14>
 c14:	ef123456 	svc	0x00123456
 c18:	eafffffe 	b	c18 <_exit+0x10>
 c1c:	00020026 	.word	0x00020026

00000c20 <__cs3_isr_interrupt>:
 c20:	eafffffe 	b	c20 <__cs3_isr_interrupt>

00000c24 <__libc_init_array>:
 c24:	e92d4070 	push	{r4, r5, r6, lr}
 c28:	e59f506c 	ldr	r5, [pc, #108]	; c9c <__libc_init_array+0x78>
 c2c:	e59f606c 	ldr	r6, [pc, #108]	; ca0 <__libc_init_array+0x7c>
 c30:	e0656006 	rsb	r6, r5, r6
 c34:	e1b06146 	asrs	r6, r6, #2
 c38:	12455004 	subne	r5, r5, #4
 c3c:	13a04000 	movne	r4, #0
 c40:	0a000005 	beq	c5c <__libc_init_array+0x38>
 c44:	e5b53004 	ldr	r3, [r5, #4]!
 c48:	e2844001 	add	r4, r4, #1
 c4c:	e1a0e00f 	mov	lr, pc
 c50:	e12fff13 	bx	r3
 c54:	e1560004 	cmp	r6, r4
 c58:	1afffff9 	bne	c44 <__libc_init_array+0x20>
 c5c:	e59f5040 	ldr	r5, [pc, #64]	; ca4 <__libc_init_array+0x80>
 c60:	e59f6040 	ldr	r6, [pc, #64]	; ca8 <__libc_init_array+0x84>
 c64:	e0656006 	rsb	r6, r5, r6
 c68:	eb000fac 	bl	4b20 <_init>
 c6c:	e1b06146 	asrs	r6, r6, #2
 c70:	12455004 	subne	r5, r5, #4
 c74:	13a04000 	movne	r4, #0
 c78:	0a000005 	beq	c94 <__libc_init_array+0x70>
 c7c:	e5b53004 	ldr	r3, [r5, #4]!
 c80:	e2844001 	add	r4, r4, #1
 c84:	e1a0e00f 	mov	lr, pc
 c88:	e12fff13 	bx	r3
 c8c:	e1560004 	cmp	r6, r4
 c90:	1afffff9 	bne	c7c <__libc_init_array+0x58>
 c94:	e8bd4070 	pop	{r4, r5, r6, lr}
 c98:	e12fff1e 	bx	lr
 c9c:	00004b38 	.word	0x00004b38
 ca0:	00004b38 	.word	0x00004b38
 ca4:	00004b38 	.word	0x00004b38
 ca8:	00004b40 	.word	0x00004b40
