
audio_demo.axf:     file format elf32-littlearm


Disassembly of section .vectors:

00000000 <__cs3_interrupt_vector>:
   0:	18 f0 9f e5 18 f0 9f e5 18 f0 9f e5 18 f0 9f e5     ................
  10:	18 f0 9f e5 18 f0 9f e5 18 f0 9f e5 18 f0 9f e5     ................
  20:	34 07 00 00 38 07 00 00 3c 07 00 00 40 07 00 00     4...8...<...@...
  30:	44 07 00 00 e4 64 00 00 48 07 00 00 9c 07 00 00     D....d..H.......

Disassembly of section .text:

00000040 <__cs3_reset_generic>:
      40:	ea000026 	b	e0 <__cs3_start_asm_sim>

00000044 <__cs3_start_c>:
      44:	e59f608c 	ldr	r6, [pc, #140]	; d8 <__cs3_start_c+0x94>
      48:	e3560000 	cmp	r6, #0
      4c:	e92d4080 	push	{r7, lr}
      50:	e2466001 	sub	r6, r6, #1
      54:	0a00001e 	beq	d4 <__cs3_start_c+0x90>
      58:	e59f507c 	ldr	r5, [pc, #124]	; dc <__cs3_start_c+0x98>
      5c:	e3a00000 	mov	r0, #0
      60:	e3a01000 	mov	r1, #0
      64:	e515200c 	ldr	r2, [r5, #-12]
      68:	e515e010 	ldr	lr, [r5, #-16]
      6c:	e5154008 	ldr	r4, [r5, #-8]
      70:	e15e0002 	cmp	lr, r2
      74:	00822004 	addeq	r2, r2, r4
      78:	0a000009 	beq	a4 <__cs3_start_c+0x60>
      7c:	e3540000 	cmp	r4, #0
      80:	0a000007 	beq	a4 <__cs3_start_c+0x60>
      84:	e1a07002 	mov	r7, r2
      88:	e1a0c002 	mov	r12, r2
      8c:	e8be000c 	ldm	lr!, {r2, r3}
      90:	e8ac000c 	stmia	r12!, {r2, r3}
      94:	e067300c 	rsb	r3, r7, r12
      98:	e1540003 	cmp	r4, r3
      9c:	e1a0200c 	mov	r2, r12
      a0:	1afffff9 	bne	8c <__cs3_start_c+0x48>
      a4:	e515e004 	ldr	lr, [r5, #-4]
      a8:	e35e0000 	cmp	lr, #0
      ac:	11a03002 	movne	r3, r2
      b0:	0a000003 	beq	c4 <__cs3_start_c+0x80>
      b4:	e8a30003 	stmia	r3!, {r0, r1}
      b8:	e062c003 	rsb	r12, r2, r3
      bc:	e15e000c 	cmp	lr, r12
      c0:	1afffffb 	bne	b4 <__cs3_start_c+0x70>
      c4:	e2466001 	sub	r6, r6, #1
      c8:	e3760001 	cmn	r6, #1
      cc:	e2855014 	add	r5, r5, #20
      d0:	1affffe3 	bne	64 <__cs3_start_c+0x20>
      d4:	eb001753 	bl	5e28 <__cs3_premain>
      d8:	00000001 	.word	0x00000001
      dc:	0000e3e8 	.word	0x0000e3e8

000000e0 <__cs3_start_asm_sim>:
      e0:	e28f103c 	add	r1, pc, #60	; 0x3c
      e4:	e3a00016 	mov	r0, #22
      e8:	ef123456 	svc	0x00123456
      ec:	e3500000 	cmp	r0, #0
      f0:	ba000008 	blt	118 <__cs3_start_asm_sim+0x38>
      f4:	e59f2028 	ldr	r2, [pc, #40]	; 124 <__cs3_heap_start_ptr>
      f8:	e59fd01c 	ldr	sp, [pc, #28]	; 11c <__cs3_start_asm_sim+0x3c>
      fc:	e5920008 	ldr	r0, [r2, #8]
     100:	e3500000 	cmp	r0, #0
     104:	11a0d000 	movne	sp, r0
     108:	e59f1010 	ldr	r1, [pc, #16]	; 120 <__cs3_start_asm_sim+0x40>
     10c:	e5920004 	ldr	r0, [r2, #4]
     110:	e3500000 	cmp	r0, #0
     114:	15810000 	strne	r0, [r1]
     118:	eaffffc9 	b	44 <__cs3_start_c>
     11c:	3ffffff8 	.word	0x3ffffff8
     120:	0000ecb0 	.word	0x0000ecb0

00000124 <__cs3_heap_start_ptr>:
     124:	00042f30 	.word	0x00042f30

00000128 <_start>:
     128:	e51fd000 	ldr	sp, [pc, #-0]	; 130 <_start+0x8>
     12c:	eaffffc4 	b	44 <__cs3_start_c>
     130:	3ffffff8 	.word	0x3ffffff8

00000134 <deregister_tm_clones>:
     134:	e92d4008 	push	{r3, lr}
     138:	e59f002c 	ldr	r0, [pc, #44]	; 16c <deregister_tm_clones+0x38>
     13c:	e59f302c 	ldr	r3, [pc, #44]	; 170 <deregister_tm_clones+0x3c>
     140:	e0603003 	rsb	r3, r0, r3
     144:	e3530006 	cmp	r3, #6
     148:	8a000001 	bhi	154 <deregister_tm_clones+0x20>
     14c:	e8bd4008 	pop	{r3, lr}
     150:	e12fff1e 	bx	lr
     154:	e59f3018 	ldr	r3, [pc, #24]	; 174 <deregister_tm_clones+0x40>
     158:	e3530000 	cmp	r3, #0
     15c:	0afffffa 	beq	14c <deregister_tm_clones+0x18>
     160:	e1a0e00f 	mov	lr, pc
     164:	e12fff13 	bx	r3
     168:	eafffff7 	b	14c <deregister_tm_clones+0x18>
     16c:	0000ecb8 	.word	0x0000ecb8
     170:	0000ecbb 	.word	0x0000ecbb
     174:	00000000 	.word	0x00000000

00000178 <register_tm_clones>:
     178:	e92d4008 	push	{r3, lr}
     17c:	e59f0034 	ldr	r0, [pc, #52]	; 1b8 <register_tm_clones+0x40>
     180:	e59f3034 	ldr	r3, [pc, #52]	; 1bc <register_tm_clones+0x44>
     184:	e0603003 	rsb	r3, r0, r3
     188:	e1a03143 	asr	r3, r3, #2
     18c:	e0833fa3 	add	r3, r3, r3, lsr #31
     190:	e1b010c3 	asrs	r1, r3, #1
     194:	1a000001 	bne	1a0 <register_tm_clones+0x28>
     198:	e8bd4008 	pop	{r3, lr}
     19c:	e12fff1e 	bx	lr
     1a0:	e59f2018 	ldr	r2, [pc, #24]	; 1c0 <register_tm_clones+0x48>
     1a4:	e3520000 	cmp	r2, #0
     1a8:	0afffffa 	beq	198 <register_tm_clones+0x20>
     1ac:	e1a0e00f 	mov	lr, pc
     1b0:	e12fff12 	bx	r2
     1b4:	eafffff7 	b	198 <register_tm_clones+0x20>
     1b8:	0000ecb8 	.word	0x0000ecb8
     1bc:	0000ecb8 	.word	0x0000ecb8
     1c0:	00000000 	.word	0x00000000

000001c4 <__do_global_dtors_aux>:
     1c4:	e92d4010 	push	{r4, lr}
     1c8:	e59f402c 	ldr	r4, [pc, #44]	; 1fc <__do_global_dtors_aux+0x38>
     1cc:	e5d43000 	ldrb	r3, [r4]
     1d0:	e3530000 	cmp	r3, #0
     1d4:	1a000006 	bne	1f4 <__do_global_dtors_aux+0x30>
     1d8:	ebffffd5 	bl	134 <deregister_tm_clones>
     1dc:	e59f301c 	ldr	r3, [pc, #28]	; 200 <__do_global_dtors_aux+0x3c>
     1e0:	e3530000 	cmp	r3, #0
     1e4:	159f0018 	ldrne	r0, [pc, #24]	; 204 <__do_global_dtors_aux+0x40>
     1e8:	1320f000 	nopne	{0}
     1ec:	e3a03001 	mov	r3, #1
     1f0:	e5c43000 	strb	r3, [r4]
     1f4:	e8bd4010 	pop	{r4, lr}
     1f8:	e12fff1e 	bx	lr
     1fc:	0000ecb8 	.word	0x0000ecb8
     200:	00000000 	.word	0x00000000
     204:	00006580 	.word	0x00006580

00000208 <frame_dummy>:
     208:	e92d4008 	push	{r3, lr}
     20c:	e59f3034 	ldr	r3, [pc, #52]	; 248 <frame_dummy+0x40>
     210:	e3530000 	cmp	r3, #0
     214:	159f0030 	ldrne	r0, [pc, #48]	; 24c <frame_dummy+0x44>
     218:	159f1030 	ldrne	r1, [pc, #48]	; 250 <frame_dummy+0x48>
     21c:	1320f000 	nopne	{0}
     220:	e59f002c 	ldr	r0, [pc, #44]	; 254 <frame_dummy+0x4c>
     224:	e5903000 	ldr	r3, [r0]
     228:	e3530000 	cmp	r3, #0
     22c:	0a000003 	beq	240 <frame_dummy+0x38>
     230:	e59f3020 	ldr	r3, [pc, #32]	; 258 <frame_dummy+0x50>
     234:	e3530000 	cmp	r3, #0
     238:	11a0e00f 	movne	lr, pc
     23c:	112fff13 	bxne	r3
     240:	e8bd4008 	pop	{r3, lr}
     244:	eaffffcb 	b	178 <register_tm_clones>
     248:	00000000 	.word	0x00000000
     24c:	00006580 	.word	0x00006580
     250:	0000ecbc 	.word	0x0000ecbc
     254:	0000e3e8 	.word	0x0000e3e8
     258:	00000000 	.word	0x00000000

0000025c <lowpass>:
#endif

int lowpass(int input)
{
    static int last_sample = 0;
    signed int retvalue = (input + (last_sample * 7)) >> 3;
     25c:	e30e3cd4 	movw	r3, #60628	; 0xecd4
     260:	e3403000 	movt	r3, #0
     264:	e5932000 	ldr	r2, [r3]
     268:	e0622182 	rsb	r2, r2, r2, lsl #3
     26c:	e0820000 	add	r0, r2, r0
     270:	e1a001c0 	asr	r0, r0, #3
    last_sample = retvalue;
     274:	e5830000 	str	r0, [r3]
    return retvalue;
}
     278:	e12fff1e 	bx	lr

0000027c <config_audio_demo>:
static volatile int left_delay_buffer[DELAY_BUF_SIZE] = {0};
static volatile int right_delay_buffer[DELAY_BUF_SIZE] = {0};


void config_audio_demo(void)
{
     27c:	e92d4038 	push	{r3, r4, r5, lr}
    volatile int* KEY_ptr = (int*)KEY_BASE;

    volatile int* hex30_ptr = (int*)HEX3_HEX0_BASE;
    volatile int* hex54_ptr = (int*)HEX5_HEX4_BASE;
    
    config_interrupt(CPU0, KEYS_IRQ, 0);
     280:	e3a00001 	mov	r0, #1
     284:	e3a01049 	mov	r1, #73	; 0x49
     288:	e3a02000 	mov	r2, #0
    config_interrupt(CPU0, AUDIO_IRQ, 0);

    // enable audio interrupts
    *audio_ptr = 0x3;
     28c:	e3034fff 	movw	r4, #16383	; 0x3fff
     290:	e3a05003 	mov	r5, #3
    volatile int* KEY_ptr = (int*)KEY_BASE;

    volatile int* hex30_ptr = (int*)HEX3_HEX0_BASE;
    volatile int* hex54_ptr = (int*)HEX5_HEX4_BASE;
    
    config_interrupt(CPU0, KEYS_IRQ, 0);
     294:	eb000149 	bl	7c0 <config_interrupt>
    config_interrupt(CPU0, AUDIO_IRQ, 0);
     298:	e3a00001 	mov	r0, #1
     29c:	e3a0104e 	mov	r1, #78	; 0x4e
     2a0:	e3a02000 	mov	r2, #0

    // enable audio interrupts
    *audio_ptr = 0x3;
     2a4:	e34f4f20 	movt	r4, #65312	; 0xff20

    volatile int* hex30_ptr = (int*)HEX3_HEX0_BASE;
    volatile int* hex54_ptr = (int*)HEX5_HEX4_BASE;
    
    config_interrupt(CPU0, KEYS_IRQ, 0);
    config_interrupt(CPU0, AUDIO_IRQ, 0);
     2a8:	eb000144 	bl	7c0 <config_interrupt>

    // enable audio interrupts
    *audio_ptr = 0x3;
    // enable all KEY interrupts
    *(KEY_ptr + 2) = 0xF;
     2ac:	e3a02000 	mov	r2, #0

    iaudiobuf = 0;
     2b0:	e30e3cd4 	movw	r3, #60628	; 0xecd4
    
    config_interrupt(CPU0, KEYS_IRQ, 0);
    config_interrupt(CPU0, AUDIO_IRQ, 0);

    // enable audio interrupts
    *audio_ptr = 0x3;
     2b4:	e5045fbf 	str	r5, [r4, #-4031]	; 0xfffff041
    // enable all KEY interrupts
    *(KEY_ptr + 2) = 0xF;

    iaudiobuf = 0;
     2b8:	e3403000 	movt	r3, #0
    config_interrupt(CPU0, AUDIO_IRQ, 0);

    // enable audio interrupts
    *audio_ptr = 0x3;
    // enable all KEY interrupts
    *(KEY_ptr + 2) = 0xF;
     2bc:	e34f2f20 	movt	r2, #65312	; 0xff20

    iaudiobuf = 0;
     2c0:	e3a01000 	mov	r1, #0
    idelaybuf = 0;
    freq_mult = 1;
     2c4:	e3a0c001 	mov	r12, #1
    lut_counter = 0;
    effect = EFF_DEFAULT;

    // default
    *hex54_ptr = ~0x00002106;
     2c8:	e30d0ef9 	movw	r0, #57081	; 0xdef9
    config_interrupt(CPU0, AUDIO_IRQ, 0);

    // enable audio interrupts
    *audio_ptr = 0x3;
    // enable all KEY interrupts
    *(KEY_ptr + 2) = 0xF;
     2cc:	e3a0400f 	mov	r4, #15
    freq_mult = 1;
    lut_counter = 0;
    effect = EFF_DEFAULT;

    // default
    *hex54_ptr = ~0x00002106;
     2d0:	e34f0fff 	movt	r0, #65535	; 0xffff
    config_interrupt(CPU0, AUDIO_IRQ, 0);

    // enable audio interrupts
    *audio_ptr = 0x3;
    // enable all KEY interrupts
    *(KEY_ptr + 2) = 0xF;
     2d4:	e5824058 	str	r4, [r2, #88]	; 0x58

    iaudiobuf = 0;
     2d8:	e5831004 	str	r1, [r3, #4]
    idelaybuf = 0;
     2dc:	e5831008 	str	r1, [r3, #8]
    freq_mult = 1;
     2e0:	e583c00c 	str	r12, [r3, #12]
    lut_counter = 0;
     2e4:	e5831010 	str	r1, [r3, #16]
    effect = EFF_DEFAULT;
     2e8:	e583c014 	str	r12, [r3, #20]

    // default
    *hex54_ptr = ~0x00002106;
    *hex30_ptr = ~0x0EFFFFFF;
     2ec:	e3a034f1 	mov	r3, #-251658240	; 0xf1000000
    freq_mult = 1;
    lut_counter = 0;
    effect = EFF_DEFAULT;

    // default
    *hex54_ptr = ~0x00002106;
     2f0:	e5820030 	str	r0, [r2, #48]	; 0x30
    *hex30_ptr = ~0x0EFFFFFF;
     2f4:	e5823020 	str	r3, [r2, #32]
     2f8:	e8bd8038 	pop	{r3, r4, r5, pc}

000002fc <keys_ISR>:
{
    volatile int* key_ptr = (int*)KEY_BASE;
    volatile int* hex30_ptr = (int*)HEX3_HEX0_BASE;
    volatile int* hex54_ptr = (int*)HEX5_HEX4_BASE;

    int press = *(key_ptr + 3);
     2fc:	e3a02000 	mov	r2, #0
     300:	e34f2f20 	movt	r2, #65312	; 0xff20
     304:	e592305c 	ldr	r3, [r2, #92]	; 0x5c
    *(key_ptr + 3) = press;

    if (press & 0x1)
     308:	e3130001 	tst	r3, #1
    volatile int* key_ptr = (int*)KEY_BASE;
    volatile int* hex30_ptr = (int*)HEX3_HEX0_BASE;
    volatile int* hex54_ptr = (int*)HEX5_HEX4_BASE;

    int press = *(key_ptr + 3);
    *(key_ptr + 3) = press;
     30c:	e582305c 	str	r3, [r2, #92]	; 0x5c

    if (press & 0x1)
     310:	0a000023 	beq	3a4 <keys_ISR+0xa8>
    {
        const int max_freq_mult = effect == EFF_PITCH ?
     314:	e30e3cd4 	movw	r3, #60628	; 0xecd4
     318:	e3403000 	movt	r3, #0
     31c:	e5930014 	ldr	r0, [r3, #20]
            PITCH_MAX_FREQ_MULT : TREMELO_MAX_FREQ_MULT;

        if (freq_mult < max_freq_mult)
     320:	e593100c 	ldr	r1, [r3, #12]
    *(key_ptr + 3) = press;

    if (press & 0x1)
    {
        const int max_freq_mult = effect == EFF_PITCH ?
            PITCH_MAX_FREQ_MULT : TREMELO_MAX_FREQ_MULT;
     324:	e3500002 	cmp	r0, #2
     328:	13a00005 	movne	r0, #5
     32c:	03a00003 	moveq	r0, #3

        if (freq_mult < max_freq_mult)
     330:	e1500001 	cmp	r0, r1
     334:	ca000024 	bgt	3cc <keys_ISR+0xd0>

        freq_mult = 1;
        lut_counter = 0;
    }

    if(effect == EFF_DEFAULT){ //dEF
     338:	e5932014 	ldr	r2, [r3, #20]
     33c:	e30e3cd4 	movw	r3, #60628	; 0xecd4
     340:	e3403000 	movt	r3, #0
     344:	e3520001 	cmp	r2, #1
     348:	0a00003d 	beq	444 <keys_ISR+0x148>
        *hex54_ptr = ~0x00002106;
        *hex30_ptr |= ~0x0EFFFFFF;
    }
    else if(effect == EFF_PITCH){ //Pch
     34c:	e5932014 	ldr	r2, [r3, #20]
     350:	e3520002 	cmp	r2, #2
     354:	0a000043 	beq	468 <keys_ISR+0x16c>
        *hex54_ptr = ~0x00000C27;
        *hex30_ptr |= ~0x0BFFFFFF;
    }
    else if(effect == EFF_TREMELO){ //TRE
     358:	e5932014 	ldr	r2, [r3, #20]
     35c:	e3520004 	cmp	r2, #4
     360:	0a000049 	beq	48c <keys_ISR+0x190>
        *hex54_ptr = ~0x00007808;
        *hex30_ptr |= ~0x06FFFFFF;
    }
    else if(effect == EFF_DELAY){ //dEL
     364:	e5932014 	ldr	r2, [r3, #20]
     368:	e3520008 	cmp	r2, #8
     36c:	0a00002b 	beq	420 <keys_ISR+0x124>
        *hex54_ptr = ~0x00002106;
        *hex30_ptr |= ~0x47FFFFFF;
    }
    else if(effect == EFF_LOOP){ //LOOP
     370:	e5933014 	ldr	r3, [r3, #20]
     374:	e3530010 	cmp	r3, #16
     378:	112fff1e 	bxne	lr
        *hex54_ptr = ~0x00004740;
     37c:	e3a03000 	mov	r3, #0
     380:	e30b28bf 	movw	r2, #47295	; 0xb8bf
     384:	e34f3f20 	movt	r3, #65312	; 0xff20
     388:	e34f2fff 	movt	r2, #65535	; 0xffff
     38c:	e5832030 	str	r2, [r3, #48]	; 0x30
        *hex30_ptr |= ~0x400CFFFF;
     390:	e5932020 	ldr	r2, [r3, #32]
     394:	e38224bf 	orr	r2, r2, #-1090519040	; 0xbf000000
     398:	e38228f3 	orr	r2, r2, #15925248	; 0xf30000
     39c:	e5832020 	str	r2, [r3, #32]
     3a0:	e12fff1e 	bx	lr
        {
            *hex30_ptr = ~0xFFFF0979; //HI
            ++freq_mult;
        }
    }
    else if (press & 0x2){
     3a4:	e3130002 	tst	r3, #2
     3a8:	0a00000d 	beq	3e4 <keys_ISR+0xe8>
        *hex30_ptr = ~0xFFFF4723; //LO
        freq_mult--;
     3ac:	e30e3cd4 	movw	r3, #60628	; 0xecd4
            *hex30_ptr = ~0xFFFF0979; //HI
            ++freq_mult;
        }
    }
    else if (press & 0x2){
        *hex30_ptr = ~0xFFFF4723; //LO
     3b0:	e30b18dc 	movw	r1, #47324	; 0xb8dc
        freq_mult--;
     3b4:	e3403000 	movt	r3, #0
            *hex30_ptr = ~0xFFFF0979; //HI
            ++freq_mult;
        }
    }
    else if (press & 0x2){
        *hex30_ptr = ~0xFFFF4723; //LO
     3b8:	e5821020 	str	r1, [r2, #32]
        freq_mult--;
     3bc:	e593200c 	ldr	r2, [r3, #12]
     3c0:	e2422001 	sub	r2, r2, #1
     3c4:	e583200c 	str	r2, [r3, #12]
     3c8:	eaffffda 	b	338 <keys_ISR+0x3c>
        const int max_freq_mult = effect == EFF_PITCH ?
            PITCH_MAX_FREQ_MULT : TREMELO_MAX_FREQ_MULT;

        if (freq_mult < max_freq_mult)
        {
            *hex30_ptr = ~0xFFFF0979; //HI
     3cc:	e30f1686 	movw	r1, #63110	; 0xf686
     3d0:	e5821020 	str	r1, [r2, #32]
            ++freq_mult;
     3d4:	e593200c 	ldr	r2, [r3, #12]
     3d8:	e2822001 	add	r2, r2, #1
     3dc:	e583200c 	str	r2, [r3, #12]
     3e0:	eaffffd4 	b	338 <keys_ISR+0x3c>
    }
    else if (press & 0x2){
        *hex30_ptr = ~0xFFFF4723; //LO
        freq_mult--;
    }
    else if (press & 0x4){
     3e4:	e3130004 	tst	r3, #4
     3e8:	e30e3cd4 	movw	r3, #60628	; 0xecd4
     3ec:	e3403000 	movt	r3, #0
     3f0:	1affffd0 	bne	338 <keys_ISR+0x3c>
      

    }
    else{
        if (effect == EFF_LOOP)
     3f4:	e5932014 	ldr	r2, [r3, #20]
     3f8:	e3520010 	cmp	r2, #16
            effect = EFF_DEFAULT;
        else effect <<= 1;
     3fc:	15932014 	ldrne	r2, [r3, #20]
      

    }
    else{
        if (effect == EFF_LOOP)
            effect = EFF_DEFAULT;
     400:	03a02001 	moveq	r2, #1
        else effect <<= 1;
     404:	11a02082 	lslne	r2, r2, #1
     408:	e5832014 	str	r2, [r3, #20]

        freq_mult = 1;
     40c:	e3a02001 	mov	r2, #1
     410:	e583200c 	str	r2, [r3, #12]
        lut_counter = 0;
     414:	e3a02000 	mov	r2, #0
     418:	e5832010 	str	r2, [r3, #16]
     41c:	eaffffc5 	b	338 <keys_ISR+0x3c>
    else if(effect == EFF_TREMELO){ //TRE
        *hex54_ptr = ~0x00007808;
        *hex30_ptr |= ~0x06FFFFFF;
    }
    else if(effect == EFF_DELAY){ //dEL
        *hex54_ptr = ~0x00002106;
     420:	e3a03000 	mov	r3, #0
     424:	e30d2ef9 	movw	r2, #57081	; 0xdef9
     428:	e34f3f20 	movt	r3, #65312	; 0xff20
     42c:	e34f2fff 	movt	r2, #65535	; 0xffff
     430:	e5832030 	str	r2, [r3, #48]	; 0x30
        *hex30_ptr |= ~0x47FFFFFF;
     434:	e5932020 	ldr	r2, [r3, #32]
     438:	e382232e 	orr	r2, r2, #-1207959552	; 0xb8000000
     43c:	e5832020 	str	r2, [r3, #32]
     440:	e12fff1e 	bx	lr
        freq_mult = 1;
        lut_counter = 0;
    }

    if(effect == EFF_DEFAULT){ //dEF
        *hex54_ptr = ~0x00002106;
     444:	e3a03000 	mov	r3, #0
     448:	e30d2ef9 	movw	r2, #57081	; 0xdef9
     44c:	e34f3f20 	movt	r3, #65312	; 0xff20
     450:	e34f2fff 	movt	r2, #65535	; 0xffff
     454:	e5832030 	str	r2, [r3, #48]	; 0x30
        *hex30_ptr |= ~0x0EFFFFFF;
     458:	e5932020 	ldr	r2, [r3, #32]
     45c:	e38224f1 	orr	r2, r2, #-251658240	; 0xf1000000
     460:	e5832020 	str	r2, [r3, #32]
     464:	e12fff1e 	bx	lr
    }
    else if(effect == EFF_PITCH){ //Pch
        *hex54_ptr = ~0x00000C27;
     468:	e3a03000 	mov	r3, #0
     46c:	e30f23d8 	movw	r2, #62424	; 0xf3d8
     470:	e34f3f20 	movt	r3, #65312	; 0xff20
     474:	e34f2fff 	movt	r2, #65535	; 0xffff
     478:	e5832030 	str	r2, [r3, #48]	; 0x30
        *hex30_ptr |= ~0x0BFFFFFF;
     47c:	e5932020 	ldr	r2, [r3, #32]
     480:	e382233d 	orr	r2, r2, #-201326592	; 0xf4000000
     484:	e5832020 	str	r2, [r3, #32]
     488:	e12fff1e 	bx	lr
    }
    else if(effect == EFF_TREMELO){ //TRE
        *hex54_ptr = ~0x00007808;
     48c:	e3a03000 	mov	r3, #0
     490:	e30827f7 	movw	r2, #34807	; 0x87f7
     494:	e34f3f20 	movt	r3, #65312	; 0xff20
     498:	e34f2fff 	movt	r2, #65535	; 0xffff
     49c:	e5832030 	str	r2, [r3, #48]	; 0x30
        *hex30_ptr |= ~0x06FFFFFF;
     4a0:	e5932020 	ldr	r2, [r3, #32]
     4a4:	e38224f9 	orr	r2, r2, #-117440512	; 0xf9000000
     4a8:	e5832020 	str	r2, [r3, #32]
     4ac:	e12fff1e 	bx	lr

000004b0 <audio_ISR>:




void audio_ISR(void)
{
     4b0:	e92d0ff0 	push	{r4, r5, r6, r7, r8, r9, r10, r11}
	volatile int* audio_ptr = (int *)AUDIO_BASE;

	int fifospace;

	if (*(audio_ptr) & 0x100) // check read interrupt
     4b4:	e3034fff 	movw	r4, #16383	; 0x3fff
     4b8:	e34f4f20 	movt	r4, #65312	; 0xff20
     4bc:	e5143fbf 	ldr	r3, [r4, #-4031]	; 0xfffff041
     4c0:	e3130c01 	tst	r3, #256	; 0x100
     4c4:	0a000044 	beq	5dc <audio_ISR+0x12c>
	{  
		fifospace = *(audio_ptr + 1);
     4c8:	e5143fbb 	ldr	r3, [r4, #-4027]	; 0xfffff045

		// read until buffer is full or audio-in FIFO is empty
        while ((fifospace & 0x000000FF) && (iaudiobuf < AUDIO_BUF_SIZE))
     4cc:	e31300ff 	tst	r3, #255	; 0xff
     4d0:	0a000041 	beq	5dc <audio_ISR+0x12c>
     4d4:	e30eccd4 	movw	r12, #60628	; 0xecd4
     4d8:	e3055dbf 	movw	r5, #23999	; 0x5dbf
     4dc:	e340c000 	movt	r12, #0
     4e0:	e59c3004 	ldr	r3, [r12, #4]
     4e4:	e1530005 	cmp	r3, r5
     4e8:	ca00003b 	bgt	5dc <audio_ISR+0x12c>
            switch (effect)
            {
            case EFF_DEFAULT:
            case EFF_PITCH:
                left_buffer[iaudiobuf] = left;
                right_buffer[iaudiobuf] = right;
     4ec:	e3066c74 	movw	r6, #27764	; 0x6c74

            case EFF_DELAY:
                if (idelaybuf == DELAY_BUF_SIZE)
                    idelaybuf = 0;

                left_buffer[iaudiobuf] = (left >> 1) + (left_delay_buffer[idelaybuf] >> 1);
     4f0:	e30cac1c 	movw	r10, #52252	; 0xcc1c
                right_buffer[iaudiobuf] = (right >> 1) + (right_delay_buffer[idelaybuf] >> 1);
     4f4:	e3008c0c 	movw	r8, #3084	; 0xc0c
                ++idelaybuf;
                ++iaudiobuf;
                break;

            case EFF_TREMELO:
                left_buffer[iaudiobuf] = mul_int_fixedpt(left, sin_LUT[lut_counter]);
     4f8:	e306758c 	movw	r7, #25996	; 0x658c
            switch (effect)
            {
            case EFF_DEFAULT:
            case EFF_PITCH:
                left_buffer[iaudiobuf] = left;
                right_buffer[iaudiobuf] = right;
     4fc:	e3406002 	movt	r6, #2
                ++iaudiobuf;
                break;

            case EFF_DELAY:
                if (idelaybuf == DELAY_BUF_SIZE)
     500:	e300ba6a 	movw	r11, #2666	; 0xa6a
                    idelaybuf = 0;

                left_buffer[iaudiobuf] = (left >> 1) + (left_delay_buffer[idelaybuf] >> 1);
     504:	e340a003 	movt	r10, #3
                right_buffer[iaudiobuf] = (right >> 1) + (right_delay_buffer[idelaybuf] >> 1);
     508:	e3408004 	movt	r8, #4
                ++idelaybuf;
                ++iaudiobuf;
                break;

            case EFF_TREMELO:
                left_buffer[iaudiobuf] = mul_int_fixedpt(left, sin_LUT[lut_counter]);
     50c:	e3407000 	movt	r7, #0
                right_buffer[iaudiobuf] = mul_int_fixedpt(right, sin_LUT[lut_counter]);

                lut_counter += freq_mult;
                if (lut_counter >= SAMPLE_RATE)
     510:	e3019f3f 	movw	r9, #7999	; 0x1f3f
		fifospace = *(audio_ptr + 1);

		// read until buffer is full or audio-in FIFO is empty
        while ((fifospace & 0x000000FF) && (iaudiobuf < AUDIO_BUF_SIZE))
        {
            int left = *(audio_ptr + 2);
     514:	e5141fb7 	ldr	r1, [r4, #-4023]	; 0xfffff049
            int right = *(audio_ptr + 3);
     518:	e5142fb3 	ldr	r2, [r4, #-4019]	; 0xfffff04d

            switch (effect)
     51c:	e59c3014 	ldr	r3, [r12, #20]
     520:	e2433001 	sub	r3, r3, #1
     524:	e3530007 	cmp	r3, #7
     528:	979ff103 	ldrls	pc, [pc, r3, lsl #2]
     52c:	ea000024 	b	5c4 <audio_ISR+0x114>
     530:	0000070c 	.word	0x0000070c
     534:	0000070c 	.word	0x0000070c
     538:	000005c4 	.word	0x000005c4
     53c:	00000550 	.word	0x00000550
     540:	000005c4 	.word	0x000005c4
     544:	000005c4 	.word	0x000005c4
     548:	000005c4 	.word	0x000005c4
     54c:	00000680 	.word	0x00000680
                ++idelaybuf;
                ++iaudiobuf;
                break;

            case EFF_TREMELO:
                left_buffer[iaudiobuf] = mul_int_fixedpt(left, sin_LUT[lut_counter]);
     550:	e59c3004 	ldr	r3, [r12, #4]
     554:	e59c0010 	ldr	r0, [r12, #16]
     558:	e7970100 	ldr	r0, [r7, r0, lsl #2]
     55c:	e08c3103 	add	r3, r12, r3, lsl #2
    return retvalue;
}

static inline int32_t mul_int_fixedpt(int32_t intv, int32_t fixedv)
{
    return (int32_t)((intv * (int64_t)fixedv) >> FIXEDPT_FRAC_BITS);
     560:	e0c10091 	smull	r0, r1, r1, r0
     564:	e1a00f20 	lsr	r0, r0, #30
     568:	e1800101 	orr	r0, r0, r1, lsl #2
                ++idelaybuf;
                ++iaudiobuf;
                break;

            case EFF_TREMELO:
                left_buffer[iaudiobuf] = mul_int_fixedpt(left, sin_LUT[lut_counter]);
     56c:	e5830018 	str	r0, [r3, #24]
                right_buffer[iaudiobuf] = mul_int_fixedpt(right, sin_LUT[lut_counter]);
     570:	e59c1004 	ldr	r1, [r12, #4]
     574:	e59c3010 	ldr	r3, [r12, #16]
     578:	e7973103 	ldr	r3, [r7, r3, lsl #2]
     57c:	e0861101 	add	r1, r6, r1, lsl #2
    return retvalue;
}

static inline int32_t mul_int_fixedpt(int32_t intv, int32_t fixedv)
{
    return (int32_t)((intv * (int64_t)fixedv) >> FIXEDPT_FRAC_BITS);
     580:	e0c32392 	smull	r2, r3, r2, r3
     584:	e1a02f22 	lsr	r2, r2, #30
     588:	e1822103 	orr	r2, r2, r3, lsl #2
                ++iaudiobuf;
                break;

            case EFF_TREMELO:
                left_buffer[iaudiobuf] = mul_int_fixedpt(left, sin_LUT[lut_counter]);
                right_buffer[iaudiobuf] = mul_int_fixedpt(right, sin_LUT[lut_counter]);
     58c:	e5012888 	str	r2, [r1, #-2184]	; 0xfffff778

                lut_counter += freq_mult;
     590:	e59c2010 	ldr	r2, [r12, #16]
     594:	e59c300c 	ldr	r3, [r12, #12]
     598:	e0823003 	add	r3, r2, r3
     59c:	e58c3010 	str	r3, [r12, #16]
                if (lut_counter >= SAMPLE_RATE)
     5a0:	e59c3010 	ldr	r3, [r12, #16]
     5a4:	e1530009 	cmp	r3, r9
                    lut_counter = 0;
     5a8:	c30e0cd4 	movwgt	r0, #60628	; 0xecd4
     5ac:	c3a02000 	movgt	r2, #0
     5b0:	c3400000 	movtgt	r0, #0
     5b4:	c5802010 	strgt	r2, [r0, #16]

                ++iaudiobuf;
     5b8:	e59c3004 	ldr	r3, [r12, #4]
     5bc:	e2833001 	add	r3, r3, #1
     5c0:	e58c3004 	str	r3, [r12, #4]
                break;
            }

            fifospace = *(audio_ptr + 1);
     5c4:	e5143fbb 	ldr	r3, [r4, #-4027]	; 0xfffff045
	if (*(audio_ptr) & 0x100) // check read interrupt
	{  
		fifospace = *(audio_ptr + 1);

		// read until buffer is full or audio-in FIFO is empty
        while ((fifospace & 0x000000FF) && (iaudiobuf < AUDIO_BUF_SIZE))
     5c8:	e31300ff 	tst	r3, #255	; 0xff
     5cc:	0a000002 	beq	5dc <audio_ISR+0x12c>
     5d0:	e59c3004 	ldr	r3, [r12, #4]
     5d4:	e1530005 	cmp	r3, r5
     5d8:	daffffcd 	ble	514 <audio_ISR+0x64>
            }

            fifospace = *(audio_ptr + 1);
        }
    }
	if (*(audio_ptr) & 0x200) // check write interrupt
     5dc:	e3033fff 	movw	r3, #16383	; 0x3fff
     5e0:	e34f3f20 	movt	r3, #65312	; 0xff20
     5e4:	e5132fbf 	ldr	r2, [r3, #-4031]	; 0xfffff041
     5e8:	e3120c02 	tst	r2, #512	; 0x200
     5ec:	0a000021 	beq	678 <audio_ISR+0x1c8>
	{
		fifospace = *(audio_ptr + 1);
     5f0:	e5132fbb 	ldr	r2, [r3, #-4027]	; 0xfffff045
		// write until buffer is empty or audio-out FIFO is full
		while ((fifospace & 0x00FF0000) && (iaudiobuf > 0))
     5f4:	e31208ff 	tst	r2, #16711680	; 0xff0000
     5f8:	0a00001e 	beq	678 <audio_ISR+0x1c8>
     5fc:	e30eccd4 	movw	r12, #60628	; 0xecd4
     600:	e340c000 	movt	r12, #0
     604:	e59c2004 	ldr	r2, [r12, #4]
     608:	e3520000 	cmp	r2, #0
     60c:	da000019 	ble	678 <audio_ISR+0x1c8>
     610:	e3060c74 	movw	r0, #27764	; 0x6c74
		{
            *(audio_ptr + 2) = left_buffer[iaudiobuf];
     614:	e1a0200c 	mov	r2, r12
     618:	e3400002 	movt	r0, #2
     61c:	ea000002 	b	62c <audio_ISR+0x17c>
    }
	if (*(audio_ptr) & 0x200) // check write interrupt
	{
		fifospace = *(audio_ptr + 1);
		// write until buffer is empty or audio-out FIFO is full
		while ((fifospace & 0x00FF0000) && (iaudiobuf > 0))
     620:	e59c1004 	ldr	r1, [r12, #4]
     624:	e3510000 	cmp	r1, #0
     628:	da000012 	ble	678 <audio_ISR+0x1c8>
		{
            *(audio_ptr + 2) = left_buffer[iaudiobuf];
     62c:	e59c1004 	ldr	r1, [r12, #4]
     630:	e08c1101 	add	r1, r12, r1, lsl #2
     634:	e5911018 	ldr	r1, [r1, #24]
     638:	e5031fb7 	str	r1, [r3, #-4023]	; 0xfffff049
            *(audio_ptr + 3) = right_buffer[iaudiobuf];
     63c:	e59c1004 	ldr	r1, [r12, #4]
     640:	e0801101 	add	r1, r0, r1, lsl #2
     644:	e5111888 	ldr	r1, [r1, #-2184]	; 0xfffff778
     648:	e5031fb3 	str	r1, [r3, #-4019]	; 0xfffff04d

            if (effect == EFF_PITCH)
     64c:	e59c1014 	ldr	r1, [r12, #20]
     650:	e3510002 	cmp	r1, #2
                iaudiobuf -= freq_mult;
     654:	05924004 	ldreq	r4, [r2, #4]
            else --iaudiobuf;
     658:	15921004 	ldrne	r1, [r2, #4]
		{
            *(audio_ptr + 2) = left_buffer[iaudiobuf];
            *(audio_ptr + 3) = right_buffer[iaudiobuf];

            if (effect == EFF_PITCH)
                iaudiobuf -= freq_mult;
     65c:	0592100c 	ldreq	r1, [r2, #12]
            else --iaudiobuf;
     660:	12411001 	subne	r1, r1, #1
		{
            *(audio_ptr + 2) = left_buffer[iaudiobuf];
            *(audio_ptr + 3) = right_buffer[iaudiobuf];

            if (effect == EFF_PITCH)
                iaudiobuf -= freq_mult;
     664:	00611004 	rsbeq	r1, r1, r4
            else --iaudiobuf;
     668:	e5821004 	str	r1, [r2, #4]

			fifospace = *(audio_ptr + 1);
     66c:	e5131fbb 	ldr	r1, [r3, #-4027]	; 0xfffff045
    }
	if (*(audio_ptr) & 0x200) // check write interrupt
	{
		fifospace = *(audio_ptr + 1);
		// write until buffer is empty or audio-out FIFO is full
		while ((fifospace & 0x00FF0000) && (iaudiobuf > 0))
     670:	e31108ff 	tst	r1, #16711680	; 0xff0000
     674:	1affffe9 	bne	620 <audio_ISR+0x170>
			fifospace = *(audio_ptr + 1);
		}
	}

	return;
}
     678:	e8bd0ff0 	pop	{r4, r5, r6, r7, r8, r9, r10, r11}
     67c:	e12fff1e 	bx	lr
                right_buffer[iaudiobuf] = right;
                ++iaudiobuf;
                break;

            case EFF_DELAY:
                if (idelaybuf == DELAY_BUF_SIZE)
     680:	e59c3008 	ldr	r3, [r12, #8]
     684:	e153000b 	cmp	r3, r11
                    idelaybuf = 0;
     688:	030e0cd4 	movweq	r0, #60628	; 0xecd4
     68c:	03a03000 	moveq	r3, #0
     690:	03400000 	movteq	r0, #0
     694:	05803008 	streq	r3, [r0, #8]

                left_buffer[iaudiobuf] = (left >> 1) + (left_delay_buffer[idelaybuf] >> 1);
     698:	e59c3004 	ldr	r3, [r12, #4]
     69c:	e59c0008 	ldr	r0, [r12, #8]
     6a0:	e08c3103 	add	r3, r12, r3, lsl #2
     6a4:	e08a0100 	add	r0, r10, r0, lsl #2
     6a8:	e5900ed0 	ldr	r0, [r0, #3792]	; 0xed0
     6ac:	e1a000c0 	asr	r0, r0, #1
     6b0:	e08000c1 	add	r0, r0, r1, asr #1
     6b4:	e5830018 	str	r0, [r3, #24]
                right_buffer[iaudiobuf] = (right >> 1) + (right_delay_buffer[idelaybuf] >> 1);
     6b8:	e59c3004 	ldr	r3, [r12, #4]
     6bc:	e59c0008 	ldr	r0, [r12, #8]
     6c0:	e0863103 	add	r3, r6, r3, lsl #2
     6c4:	e0880100 	add	r0, r8, r0, lsl #2
     6c8:	e5100778 	ldr	r0, [r0, #-1912]	; 0xfffff888
     6cc:	e1a000c0 	asr	r0, r0, #1
     6d0:	e08000c2 	add	r0, r0, r2, asr #1
     6d4:	e5030888 	str	r0, [r3, #-2184]	; 0xfffff778

                // buffer some samples for next cycle
                left_delay_buffer[idelaybuf] = left;
     6d8:	e59c3008 	ldr	r3, [r12, #8]
     6dc:	e08a3103 	add	r3, r10, r3, lsl #2
     6e0:	e5831ed0 	str	r1, [r3, #3792]	; 0xed0
                right_delay_buffer[idelaybuf] = right;
     6e4:	e59c3008 	ldr	r3, [r12, #8]
     6e8:	e0883103 	add	r3, r8, r3, lsl #2
     6ec:	e5032778 	str	r2, [r3, #-1912]	; 0xfffff888

                ++idelaybuf;
     6f0:	e59c3008 	ldr	r3, [r12, #8]
     6f4:	e2833001 	add	r3, r3, #1
     6f8:	e58c3008 	str	r3, [r12, #8]
                ++iaudiobuf;
     6fc:	e59c3004 	ldr	r3, [r12, #4]
     700:	e2833001 	add	r3, r3, #1
     704:	e58c3004 	str	r3, [r12, #4]
                break;
     708:	eaffffad 	b	5c4 <audio_ISR+0x114>

            switch (effect)
            {
            case EFF_DEFAULT:
            case EFF_PITCH:
                left_buffer[iaudiobuf] = left;
     70c:	e59c3004 	ldr	r3, [r12, #4]
     710:	e08c3103 	add	r3, r12, r3, lsl #2
     714:	e5831018 	str	r1, [r3, #24]
                right_buffer[iaudiobuf] = right;
     718:	e59c3004 	ldr	r3, [r12, #4]
     71c:	e0863103 	add	r3, r6, r3, lsl #2
     720:	e5032888 	str	r2, [r3, #-2184]	; 0xfffff778
                ++iaudiobuf;
     724:	e59c3004 	ldr	r3, [r12, #4]
     728:	e2833001 	add	r3, r3, #1
     72c:	e58c3004 	str	r3, [r12, #4]
                break;
     730:	eaffffa3 	b	5c4 <audio_ISR+0x114>

00000734 <__cs3_reset>:
#include "defines.h"
#include "address_map_arm.h"


void __attribute__((interrupt)) __cs3_reset(void)
{
     734:	eafffffe 	b	734 <__cs3_reset>

00000738 <__cs3_isr_undef>:
    while (1);
}

void __attribute__((interrupt)) __cs3_isr_undef(void)
{
     738:	eafffffe 	b	738 <__cs3_isr_undef>

0000073c <__cs3_isr_swi>:
    while (1);
}

void __attribute__((interrupt)) __cs3_isr_swi(void)
{
     73c:	eafffffe 	b	73c <__cs3_isr_swi>

00000740 <__cs3_isr_pabort>:
    while (1);
}

void __attribute__((interrupt)) __cs3_isr_pabort(void)
{
     740:	eafffffe 	b	740 <__cs3_isr_pabort>

00000744 <__cs3_isr_dabort>:
    while (1);
}

void __attribute__((interrupt)) __cs3_isr_dabort(void)
{
     744:	eafffffe 	b	744 <__cs3_isr_dabort>

00000748 <__cs3_isr_irq>:
    while (1);
}

// using_gic.pdf
void __attribute__((interrupt)) __cs3_isr_irq(void)
{
     748:	e24ee004 	sub	lr, lr, #4
     74c:	e92d503f 	push	{r0, r1, r2, r3, r4, r5, r12, lr}
}

void disable_irq(void)
{
    int status;
    asm("mrs %[ps], cpsr" : [ps] "=r"(status) :);
     750:	e10f3000 	mrs	r3, CPSR
    write_bits(&status, ~CPSR_IRQ_MASK, CPSR_IRQ_MASK);
     754:	e3833080 	orr	r3, r3, #128	; 0x80
    asm("msr cpsr, %[ps]" : : [ps] "r"(status));
     758:	e129f003 	msr	CPSR_fc, r3
{
    disable_irq();

    // acknowledge interrupt
    int address = MPCORE_GIC_CPUIF + ICCIAR;
    int int_ID = *((int*)address);
     75c:	e3e03a13 	mvn	r3, #77824	; 0x13000
     760:	e5134ef3 	ldr	r4, [r3, #-3827]	; 0xfffff10d

    if (int_ID == AUDIO_IRQ)
     764:	e354004e 	cmp	r4, #78	; 0x4e
     768:	0a000009 	beq	794 <__cs3_isr_irq+0x4c>
        audio_ISR();
    else if (int_ID == KEYS_IRQ)
     76c:	e3540049 	cmp	r4, #73	; 0x49
     770:	0a000000 	beq	778 <__cs3_isr_irq+0x30>
     774:	eafffffe 	b	774 <__cs3_isr_irq+0x2c>
        keys_ISR();
     778:	ebfffedf 	bl	2fc <keys_ISR>
    else
        while (1);

    // clear interrupt
    address = MPCORE_GIC_CPUIF + ICCEOIR;
    *((int*)address) = int_ID;
     77c:	e3e02a13 	mvn	r2, #77824	; 0x13000


void enable_irq(void)
{
    int status;
    asm("mrs %[ps], cpsr" : [ps] "=r"(status) :);
     780:	e10f3000 	mrs	r3, CPSR
    else
        while (1);

    // clear interrupt
    address = MPCORE_GIC_CPUIF + ICCEOIR;
    *((int*)address) = int_ID;
     784:	e5024eef 	str	r4, [r2, #-3823]	; 0xfffff111

void enable_irq(void)
{
    int status;
    asm("mrs %[ps], cpsr" : [ps] "=r"(status) :);
    write_bits(&status, ~CPSR_IRQ_MASK, 0);
     788:	e3c33080 	bic	r3, r3, #128	; 0x80
    asm("msr cpsr, %[ps]" : : [ps] "r"(status));
     78c:	e129f003 	msr	CPSR_fc, r3
     790:	e8fd903f 	ldm	sp!, {r0, r1, r2, r3, r4, r5, r12, pc}^
    // acknowledge interrupt
    int address = MPCORE_GIC_CPUIF + ICCIAR;
    int int_ID = *((int*)address);

    if (int_ID == AUDIO_IRQ)
        audio_ISR();
     794:	ebffff45 	bl	4b0 <audio_ISR>
     798:	eafffff7 	b	77c <__cs3_isr_irq+0x34>

0000079c <__cs3_isr_fiq>:
    enable_irq();
    return;
}

void __attribute__((interrupt)) __cs3_isr_fiq(void)
{
     79c:	eafffffe 	b	79c <__cs3_isr_fiq>

000007a0 <enable_irq>:


void enable_irq(void)
{
    int status;
    asm("mrs %[ps], cpsr" : [ps] "=r"(status) :);
     7a0:	e10f3000 	mrs	r3, CPSR
    write_bits(&status, ~CPSR_IRQ_MASK, 0);
     7a4:	e3c33080 	bic	r3, r3, #128	; 0x80
    asm("msr cpsr, %[ps]" : : [ps] "r"(status));
     7a8:	e129f003 	msr	CPSR_fc, r3
     7ac:	e12fff1e 	bx	lr

000007b0 <disable_irq>:
}

void disable_irq(void)
{
    int status;
    asm("mrs %[ps], cpsr" : [ps] "=r"(status) :);
     7b0:	e10f3000 	mrs	r3, CPSR
    write_bits(&status, ~CPSR_IRQ_MASK, CPSR_IRQ_MASK);
     7b4:	e3833080 	orr	r3, r3, #128	; 0x80
    asm("msr cpsr, %[ps]" : : [ps] "r"(status));
     7b8:	e129f003 	msr	CPSR_fc, r3
     7bc:	e12fff1e 	bx	lr

000007c0 <config_interrupt>:
// using_gic.pdf
void config_interrupt(int CPU_targets, int int_ID, int int_priority)
{
    int intr_bit, reg_offset, addr;

    assert(int_ID < 1024 && CPU_targets < 256 && int_priority < 256);
     7c0:	e35000ff 	cmp	r0, #255	; 0xff
     7c4:	d3510b01 	cmple	r1, #1024	; 0x400
}


// using_gic.pdf
void config_interrupt(int CPU_targets, int int_ID, int int_priority)
{
     7c8:	e92d40f8 	push	{r3, r4, r5, r6, r7, lr}
    int intr_bit, reg_offset, addr;

    assert(int_ID < 1024 && CPU_targets < 256 && int_priority < 256);
     7cc:	aa00001b 	bge	840 <config_interrupt+0x80>
     7d0:	e35200ff 	cmp	r2, #255	; 0xff
     7d4:	ca000019 	bgt	840 <config_interrupt+0x80>

    // Set interrupt CPU targets (ICDIPTRn).
    // reg offset = ICPIPTR + integer_div(N, 4) * 4
    // interrupt bit = (N mod 4) * 8
    intr_bit = (int_ID & 0x3) << 3;
    reg_offset = ((int_ID >> 2) << 2);
     7d8:	e3c1c003 	bic	r12, r1, #3
    assert(int_ID < 1024 && CPU_targets < 256 && int_priority < 256);

    // Set interrupt CPU targets (ICDIPTRn).
    // reg offset = ICPIPTR + integer_div(N, 4) * 4
    // interrupt bit = (N mod 4) * 8
    intr_bit = (int_ID & 0x3) << 3;
     7dc:	e2013003 	and	r3, r1, #3
    reg_offset = ((int_ID >> 2) << 2);
    addr = MPCORE_GIC_DIST + ICDIPTR + reg_offset;
     7e0:	e24c5b4a 	sub	r5, r12, #75776	; 0x12800
    assert(int_ID < 1024 && CPU_targets < 256 && int_priority < 256);

    // Set interrupt CPU targets (ICDIPTRn).
    // reg offset = ICPIPTR + integer_div(N, 4) * 4
    // interrupt bit = (N mod 4) * 8
    intr_bit = (int_ID & 0x3) << 3;
     7e4:	e1a03183 	lsl	r3, r3, #3
    reg_offset = ((int_ID >> 2) << 2);
    addr = MPCORE_GIC_DIST + ICDIPTR + reg_offset;
    write_bits((volatile int*)addr, ~(0xff << intr_bit), CPU_targets << intr_bit);
     7e8:	e5957000 	ldr	r7, [r5]
     7ec:	e3a040ff 	mov	r4, #255	; 0xff
     7f0:	e1e04314 	mvn	r4, r4, lsl r3

    // Set interrupt priority (ICDIPRn).
    // reg offset, interrupt bit same as ICDIPTRn
    addr = MPCORE_GIC_DIST + ICDIPR + reg_offset;
     7f4:	e24ccb4b 	sub	r12, r12, #76800	; 0x12c00

    // Set interrupt enable (ICDISERn).
    // reg offset = ICDISER + integer_div(N, 32) * 4
    // interrupt bit = N mod 32
    intr_bit = int_ID & 0x1f;
    addr = MPCORE_GIC_DIST + ICDISER + ((int_ID >> 5) << 2);
     7f8:	e1a062c1 	asr	r6, r1, #5
    write_bits((volatile int*)addr, ~(0xff << intr_bit), int_priority << intr_bit);

    // Set interrupt enable (ICDISERn).
    // reg offset = ICDISER + integer_div(N, 32) * 4
    // interrupt bit = N mod 32
    intr_bit = int_ID & 0x1f;
     7fc:	e201101f 	and	r1, r1, #31
    // reg offset = ICPIPTR + integer_div(N, 4) * 4
    // interrupt bit = (N mod 4) * 8
    intr_bit = (int_ID & 0x3) << 3;
    reg_offset = ((int_ID >> 2) << 2);
    addr = MPCORE_GIC_DIST + ICDIPTR + reg_offset;
    write_bits((volatile int*)addr, ~(0xff << intr_bit), CPU_targets << intr_bit);
     800:	e0077004 	and	r7, r7, r4
     804:	e1870310 	orr	r0, r7, r0, lsl r3

    // Set interrupt enable (ICDISERn).
    // reg offset = ICDISER + integer_div(N, 32) * 4
    // interrupt bit = N mod 32
    intr_bit = int_ID & 0x1f;
    addr = MPCORE_GIC_DIST + ICDISER + ((int_ID >> 5) << 2);
     808:	e1a06106 	lsl	r6, r6, #2
    // reg offset = ICPIPTR + integer_div(N, 4) * 4
    // interrupt bit = (N mod 4) * 8
    intr_bit = (int_ID & 0x3) << 3;
    reg_offset = ((int_ID >> 2) << 2);
    addr = MPCORE_GIC_DIST + ICDIPTR + reg_offset;
    write_bits((volatile int*)addr, ~(0xff << intr_bit), CPU_targets << intr_bit);
     80c:	e5850000 	str	r0, [r5]

    // Set interrupt enable (ICDISERn).
    // reg offset = ICDISER + integer_div(N, 32) * 4
    // interrupt bit = N mod 32
    intr_bit = int_ID & 0x1f;
    addr = MPCORE_GIC_DIST + ICDISER + ((int_ID >> 5) << 2);
     810:	e2460b4b 	sub	r0, r6, #76800	; 0x12c00
    write_bits((volatile int*)addr, ~(0xff << intr_bit), CPU_targets << intr_bit);

    // Set interrupt priority (ICDIPRn).
    // reg offset, interrupt bit same as ICDIPTRn
    addr = MPCORE_GIC_DIST + ICDIPR + reg_offset;
    write_bits((volatile int*)addr, ~(0xff << intr_bit), int_priority << intr_bit);
     814:	e59c5000 	ldr	r5, [r12]
    // Set interrupt enable (ICDISERn).
    // reg offset = ICDISER + integer_div(N, 32) * 4
    // interrupt bit = N mod 32
    intr_bit = int_ID & 0x1f;
    addr = MPCORE_GIC_DIST + ICDISER + ((int_ID >> 5) << 2);
    write_bits((volatile int*)addr, ~(0x1 << intr_bit), 0x1 << intr_bit);
     818:	e3a06001 	mov	r6, #1
     81c:	e1a01116 	lsl	r1, r6, r1
    write_bits((volatile int*)addr, ~(0xff << intr_bit), CPU_targets << intr_bit);

    // Set interrupt priority (ICDIPRn).
    // reg offset, interrupt bit same as ICDIPTRn
    addr = MPCORE_GIC_DIST + ICDIPR + reg_offset;
    write_bits((volatile int*)addr, ~(0xff << intr_bit), int_priority << intr_bit);
     820:	e0054004 	and	r4, r5, r4
     824:	e1843312 	orr	r3, r4, r2, lsl r3
     828:	e58c3000 	str	r3, [r12]
    // Set interrupt enable (ICDISERn).
    // reg offset = ICDISER + integer_div(N, 32) * 4
    // interrupt bit = N mod 32
    intr_bit = int_ID & 0x1f;
    addr = MPCORE_GIC_DIST + ICDISER + ((int_ID >> 5) << 2);
    write_bits((volatile int*)addr, ~(0x1 << intr_bit), 0x1 << intr_bit);
     82c:	e5103300 	ldr	r3, [r0, #-768]	; 0xfffffd00
     830:	e1c33001 	bic	r3, r3, r1
     834:	e1831001 	orr	r1, r3, r1
     838:	e5001300 	str	r1, [r0, #-768]	; 0xfffffd00
     83c:	e8bd80f8 	pop	{r3, r4, r5, r6, r7, pc}
// using_gic.pdf
void config_interrupt(int CPU_targets, int int_ID, int int_priority)
{
    int intr_bit, reg_offset, addr;

    assert(int_ID < 1024 && CPU_targets < 256 && int_priority < 256);
     840:	e30e02a0 	movw	r0, #58016	; 0xe2a0
     844:	e30e228c 	movw	r2, #57996	; 0xe28c
     848:	e30e32b0 	movw	r3, #58032	; 0xe2b0
     84c:	e3400000 	movt	r0, #0
     850:	e3a0105a 	mov	r1, #90	; 0x5a
     854:	e3402000 	movt	r2, #0
     858:	e3403000 	movt	r3, #0
     85c:	eb000012 	bl	8ac <__assert_func>

00000860 <init_interrupts>:
    int stack, mode, addr;

    // Initialize banked stack pointer for IRQ mode
    stack = A9_ONCHIP_END - 7;
    mode = CPSR_IRQ_DISABLE | IRQ_MODE;
    asm("msr cpsr, %[ps]" : : [ps] "r" (mode));
     860:	e3a030d2 	mov	r3, #210	; 0xd2
     864:	e129f003 	msr	CPSR_fc, r3
    asm("mov sp, %[ps]" : : [ps] "r" (stack));
     868:	e3e03007 	mvn	r3, #7
     86c:	e1a0d003 	mov	sp, r3
    mode = CPSR_IRQ_DISABLE | SVC_MODE;
    asm("msr cpsr, %[ps]" : : [ps] "r" (mode));
     870:	e3a030d3 	mov	r3, #211	; 0xd3
     874:	e129f003 	msr	CPSR_fc, r3

    // enable interrupts for all priorities
    addr = MPCORE_GIC_CPUIF + ICCPMR;
    *((int*)addr) = 0xFFFF;
     878:	e3e02a13 	mvn	r2, #77824	; 0x13000

    // enable interrupt signalling from CPU interface
    addr = MPCORE_GIC_CPUIF + ICCICR;
    *((int*)addr) = ENABLE;
     87c:	e3a03001 	mov	r3, #1
    mode = CPSR_IRQ_DISABLE | SVC_MODE;
    asm("msr cpsr, %[ps]" : : [ps] "r" (mode));

    // enable interrupts for all priorities
    addr = MPCORE_GIC_CPUIF + ICCPMR;
    *((int*)addr) = 0xFFFF;
     880:	e30f1fff 	movw	r1, #65535	; 0xffff

    // enable interrupt signalling from CPU interface
    addr = MPCORE_GIC_CPUIF + ICCICR;
    *((int*)addr) = ENABLE;
     884:	e5023eff 	str	r3, [r2, #-3839]	; 0xfffff101
    mode = CPSR_IRQ_DISABLE | SVC_MODE;
    asm("msr cpsr, %[ps]" : : [ps] "r" (mode));

    // enable interrupts for all priorities
    addr = MPCORE_GIC_CPUIF + ICCPMR;
    *((int*)addr) = 0xFFFF;
     888:	e5021efb 	str	r1, [r2, #-3835]	; 0xfffff105
    addr = MPCORE_GIC_CPUIF + ICCICR;
    *((int*)addr) = ENABLE;

    // enable interrupt distributor
    addr = MPCORE_GIC_DIST + ICDDCR;
    *((int*)addr) = ENABLE;
     88c:	e3e02a12 	mvn	r2, #73728	; 0x12000
     890:	e5023fff 	str	r3, [r2, #-4095]	; 0xfffff001
     894:	e12fff1e 	bx	lr

00000898 <main>:
#include "defines.h"

int main(void) 
{
     898:	e92d4008 	push	{r3, lr}
    init_interrupts();
     89c:	ebffffef 	bl	860 <init_interrupts>
    config_audio_demo();
     8a0:	ebfffe75 	bl	27c <config_audio_demo>
    enable_irq();
     8a4:	ebffffbd 	bl	7a0 <enable_irq>
     8a8:	eafffffe 	b	8a8 <main+0x10>

000008ac <__assert_func>:
     8ac:	e59fc040 	ldr	r12, [pc, #64]	; 8f4 <__assert_func+0x48>
     8b0:	e52de004 	push	{lr}		; (str lr, [sp, #-4]!)
     8b4:	e59ce000 	ldr	lr, [r12]
     8b8:	e252c000 	subs	r12, r2, #0
     8bc:	e1a05000 	mov	r5, r0
     8c0:	e59e000c 	ldr	r0, [lr, #12]
     8c4:	059fe02c 	ldreq	lr, [pc, #44]	; 8f8 <__assert_func+0x4c>
     8c8:	159fe02c 	ldrne	lr, [pc, #44]	; 8fc <__assert_func+0x50>
     8cc:	e24dd014 	sub	sp, sp, #20
     8d0:	e1a04001 	mov	r4, r1
     8d4:	01a0c00e 	moveq	r12, lr
     8d8:	e1a02003 	mov	r2, r3
     8dc:	e59f101c 	ldr	r1, [pc, #28]	; 900 <__assert_func+0x54>
     8e0:	e1a03005 	mov	r3, r5
     8e4:	e88d4010 	stm	sp, {r4, lr}
     8e8:	e58dc008 	str	r12, [sp, #8]
     8ec:	eb000029 	bl	998 <fiprintf>
     8f0:	eb0005dc 	bl	2068 <abort>
     8f4:	0000e3f0 	.word	0x0000e3f0
     8f8:	0000e2f8 	.word	0x0000e2f8
     8fc:	0000e2ec 	.word	0x0000e2ec
     900:	0000e2fc 	.word	0x0000e2fc

00000904 <__assert>:
     904:	e92d4008 	push	{r3, lr}
     908:	e1a03002 	mov	r3, r2
     90c:	e3a02000 	mov	r2, #0
     910:	ebffffe5 	bl	8ac <__assert_func>

00000914 <atexit>:
     914:	e1a01000 	mov	r1, r0
     918:	e3a00000 	mov	r0, #0
     91c:	e92d4008 	push	{r3, lr}
     920:	e1a02000 	mov	r2, r0
     924:	e1a03000 	mov	r3, r0
     928:	eb000529 	bl	1dd4 <__register_exitproc>
     92c:	e8bd4008 	pop	{r3, lr}
     930:	e12fff1e 	bx	lr

00000934 <exit>:
     934:	e92d4008 	push	{r3, lr}
     938:	e3a01000 	mov	r1, #0
     93c:	e1a04000 	mov	r4, r0
     940:	eb000560 	bl	1ec8 <__call_exitprocs>
     944:	e59f3018 	ldr	r3, [pc, #24]	; 964 <exit+0x30>
     948:	e5930000 	ldr	r0, [r3]
     94c:	e590303c 	ldr	r3, [r0, #60]	; 0x3c
     950:	e3530000 	cmp	r3, #0
     954:	11a0e00f 	movne	lr, pc
     958:	112fff13 	bxne	r3
     95c:	e1a00004 	mov	r0, r4
     960:	eb001561 	bl	5eec <_exit>
     964:	0000e32c 	.word	0x0000e32c

00000968 <_fiprintf_r>:
     968:	e92d000c 	push	{r2, r3}
     96c:	e52de004 	push	{lr}		; (str lr, [sp, #-4]!)
     970:	e24dd00c 	sub	sp, sp, #12
     974:	e28dc014 	add	r12, sp, #20
     978:	e59d2010 	ldr	r2, [sp, #16]
     97c:	e1a0300c 	mov	r3, r12
     980:	e58dc004 	str	r12, [sp, #4]
     984:	eb000042 	bl	a94 <_vfiprintf_r>
     988:	e28dd00c 	add	sp, sp, #12
     98c:	e49de004 	pop	{lr}		; (ldr lr, [sp], #4)
     990:	e28dd008 	add	sp, sp, #8
     994:	e12fff1e 	bx	lr

00000998 <fiprintf>:
     998:	e92d000e 	push	{r1, r2, r3}
     99c:	e52de004 	push	{lr}		; (str lr, [sp, #-4]!)
     9a0:	e59f302c 	ldr	r3, [pc, #44]	; 9d4 <fiprintf+0x3c>
     9a4:	e24dd008 	sub	sp, sp, #8
     9a8:	e28dc010 	add	r12, sp, #16
     9ac:	e1a01000 	mov	r1, r0
     9b0:	e59d200c 	ldr	r2, [sp, #12]
     9b4:	e5930000 	ldr	r0, [r3]
     9b8:	e1a0300c 	mov	r3, r12
     9bc:	e58dc004 	str	r12, [sp, #4]
     9c0:	eb000033 	bl	a94 <_vfiprintf_r>
     9c4:	e28dd008 	add	sp, sp, #8
     9c8:	e49de004 	pop	{lr}		; (ldr lr, [sp], #4)
     9cc:	e28dd00c 	add	sp, sp, #12
     9d0:	e12fff1e 	bx	lr
     9d4:	0000e3f0 	.word	0x0000e3f0

000009d8 <__sprint_r>:
     9d8:	e5923008 	ldr	r3, [r2, #8]
     9dc:	e3530000 	cmp	r3, #0
     9e0:	e92d47f0 	push	{r4, r5, r6, r7, r8, r9, r10, lr}
     9e4:	e1a07000 	mov	r7, r0
     9e8:	e1a0a002 	mov	r10, r2
     9ec:	e1a06001 	mov	r6, r1
     9f0:	05823004 	streq	r3, [r2, #4]
     9f4:	01a00003 	moveq	r0, r3
     9f8:	0a000016 	beq	a58 <__sprint_r+0x80>
     9fc:	e591c064 	ldr	r12, [r1, #100]	; 0x64
     a00:	e31c0a02 	tst	r12, #8192	; 0x2000
     a04:	0a00001d 	beq	a80 <__sprint_r+0xa8>
     a08:	e5929000 	ldr	r9, [r2]
     a0c:	e2899008 	add	r9, r9, #8
     a10:	e9190120 	ldmdb	r9, {r5, r8}
     a14:	e1b08128 	lsrs	r8, r8, #2
     a18:	12455004 	subne	r5, r5, #4
     a1c:	13a04000 	movne	r4, #0
     a20:	1a000002 	bne	a30 <__sprint_r+0x58>
     a24:	ea00000e 	b	a64 <__sprint_r+0x8c>
     a28:	e1580004 	cmp	r8, r4
     a2c:	0a00000b 	beq	a60 <__sprint_r+0x88>
     a30:	e1a00007 	mov	r0, r7
     a34:	e5b51004 	ldr	r1, [r5, #4]!
     a38:	e1a02006 	mov	r2, r6
     a3c:	eb0006eb 	bl	25f0 <_fputwc_r>
     a40:	e3700001 	cmn	r0, #1
     a44:	e2844001 	add	r4, r4, #1
     a48:	1afffff6 	bne	a28 <__sprint_r+0x50>
     a4c:	e3a03000 	mov	r3, #0
     a50:	e58a3008 	str	r3, [r10, #8]
     a54:	e58a3004 	str	r3, [r10, #4]
     a58:	e8bd47f0 	pop	{r4, r5, r6, r7, r8, r9, r10, lr}
     a5c:	e12fff1e 	bx	lr
     a60:	e59a3008 	ldr	r3, [r10, #8]
     a64:	e0433108 	sub	r3, r3, r8, lsl #2
     a68:	e3530000 	cmp	r3, #0
     a6c:	e58a3008 	str	r3, [r10, #8]
     a70:	e2899008 	add	r9, r9, #8
     a74:	1affffe5 	bne	a10 <__sprint_r+0x38>
     a78:	e1a00003 	mov	r0, r3
     a7c:	eafffff2 	b	a4c <__sprint_r+0x74>
     a80:	eb00081b 	bl	2af4 <__sfvwrite_r>
     a84:	e3a03000 	mov	r3, #0
     a88:	e58a3008 	str	r3, [r10, #8]
     a8c:	e58a3004 	str	r3, [r10, #4]
     a90:	eafffff0 	b	a58 <__sprint_r+0x80>

00000a94 <_vfiprintf_r>:
     a94:	e92d4ff0 	push	{r4, r5, r6, r7, r8, r9, r10, r11, lr}
     a98:	e24dde4e 	sub	sp, sp, #1248	; 0x4e0
     a9c:	e24dd00c 	sub	sp, sp, #12
     aa0:	e2504000 	subs	r4, r0, #0
     aa4:	e58d4014 	str	r4, [sp, #20]
     aa8:	e1a0a001 	mov	r10, r1
     aac:	e1a04002 	mov	r4, r2
     ab0:	e58d301c 	str	r3, [sp, #28]
     ab4:	0a000003 	beq	ac8 <_vfiprintf_r+0x34>
     ab8:	e5903038 	ldr	r3, [r0, #56]	; 0x38
     abc:	e3530000 	cmp	r3, #0
     ac0:	e1a05000 	mov	r5, r0
     ac4:	0a000393 	beq	1918 <_vfiprintf_r+0xe84>
     ac8:	e1da80bc 	ldrh	r8, [r10, #12]
     acc:	e3180a02 	tst	r8, #8192	; 0x2000
     ad0:	059a3064 	ldreq	r3, [r10, #100]	; 0x64
     ad4:	03888a02 	orreq	r8, r8, #8192	; 0x2000
     ad8:	03c33a02 	biceq	r3, r3, #8192	; 0x2000
     adc:	01ca80bc 	strheq	r8, [r10, #12]
     ae0:	058a3064 	streq	r3, [r10, #100]	; 0x64
     ae4:	e3180008 	tst	r8, #8
     ae8:	0a000332 	beq	17b8 <_vfiprintf_r+0xd24>
     aec:	e59a3010 	ldr	r3, [r10, #16]
     af0:	e3530000 	cmp	r3, #0
     af4:	0a00032f 	beq	17b8 <_vfiprintf_r+0xd24>
     af8:	e208301a 	and	r3, r8, #26
     afc:	e353000a 	cmp	r3, #10
     b00:	0a000335 	beq	17dc <_vfiprintf_r+0xd48>
     b04:	e3a03000 	mov	r3, #0
     b08:	e28d5080 	add	r5, sp, #128	; 0x80
     b0c:	e28d607f 	add	r6, sp, #127	; 0x7f
     b10:	e28d70e8 	add	r7, sp, #232	; 0xe8
     b14:	e1a0b004 	mov	r11, r4
     b18:	e58d3034 	str	r3, [sp, #52]	; 0x34
     b1c:	e0664005 	rsb	r4, r6, r5
     b20:	e58d502c 	str	r5, [sp, #44]	; 0x2c
     b24:	e58d6030 	str	r6, [sp, #48]	; 0x30
     b28:	e58d704c 	str	r7, [sp, #76]	; 0x4c
     b2c:	e58d3054 	str	r3, [sp, #84]	; 0x54
     b30:	e58d3050 	str	r3, [sp, #80]	; 0x50
     b34:	e58d300c 	str	r3, [sp, #12]
     b38:	e58d403c 	str	r4, [sp, #60]	; 0x3c
     b3c:	e1a04007 	mov	r4, r7
     b40:	e5db3000 	ldrb	r3, [r11]
     b44:	e3530025 	cmp	r3, #37	; 0x25
     b48:	13530000 	cmpne	r3, #0
     b4c:	0a0002a0 	beq	15d4 <_vfiprintf_r+0xb40>
     b50:	e28b3001 	add	r3, r11, #1
     b54:	e1a05003 	mov	r5, r3
     b58:	e5d33000 	ldrb	r3, [r3]
     b5c:	e3530025 	cmp	r3, #37	; 0x25
     b60:	13530000 	cmpne	r3, #0
     b64:	e2853001 	add	r3, r5, #1
     b68:	1afffff9 	bne	b54 <_vfiprintf_r+0xc0>
     b6c:	e055600b 	subs	r6, r5, r11
     b70:	0a00000d 	beq	bac <_vfiprintf_r+0x118>
     b74:	e59d2050 	ldr	r2, [sp, #80]	; 0x50
     b78:	e59d1054 	ldr	r1, [sp, #84]	; 0x54
     b7c:	e2822001 	add	r2, r2, #1
     b80:	e0811006 	add	r1, r1, r6
     b84:	e3520007 	cmp	r2, #7
     b88:	e584b000 	str	r11, [r4]
     b8c:	e5846004 	str	r6, [r4, #4]
     b90:	e58d1054 	str	r1, [sp, #84]	; 0x54
     b94:	e58d2050 	str	r2, [sp, #80]	; 0x50
     b98:	d2844008 	addle	r4, r4, #8
     b9c:	ca00033e 	bgt	189c <_vfiprintf_r+0xe08>
     ba0:	e59db00c 	ldr	r11, [sp, #12]
     ba4:	e08bb006 	add	r11, r11, r6
     ba8:	e58db00c 	str	r11, [sp, #12]
     bac:	e5d53000 	ldrb	r3, [r5]
     bb0:	e3530000 	cmp	r3, #0
     bb4:	0a00029c 	beq	162c <_vfiprintf_r+0xb98>
     bb8:	e3a03000 	mov	r3, #0
     bbc:	e1a01003 	mov	r1, r3
     bc0:	e5cd3047 	strb	r3, [sp, #71]	; 0x47
     bc4:	e58d1018 	str	r1, [sp, #24]
     bc8:	e5d53001 	ldrb	r3, [r5, #1]
     bcc:	e285b001 	add	r11, r5, #1
     bd0:	e3e0c000 	mvn	r12, #0
     bd4:	e1a06001 	mov	r6, r1
     bd8:	e28bb001 	add	r11, r11, #1
     bdc:	e2432020 	sub	r2, r3, #32
     be0:	e3520058 	cmp	r2, #88	; 0x58
     be4:	979ff102 	ldrls	pc, [pc, r2, lsl #2]
     be8:	ea000187 	b	120c <_vfiprintf_r+0x778>
     bec:	00001294 	.word	0x00001294
     bf0:	0000120c 	.word	0x0000120c
     bf4:	0000120c 	.word	0x0000120c
     bf8:	00001288 	.word	0x00001288
     bfc:	0000120c 	.word	0x0000120c
     c00:	0000120c 	.word	0x0000120c
     c04:	0000120c 	.word	0x0000120c
     c08:	0000120c 	.word	0x0000120c
     c0c:	0000120c 	.word	0x0000120c
     c10:	0000120c 	.word	0x0000120c
     c14:	00000e68 	.word	0x00000e68
     c18:	0000127c 	.word	0x0000127c
     c1c:	0000120c 	.word	0x0000120c
     c20:	00000e94 	.word	0x00000e94
     c24:	000012e0 	.word	0x000012e0
     c28:	0000120c 	.word	0x0000120c
     c2c:	000012d4 	.word	0x000012d4
     c30:	000012a4 	.word	0x000012a4
     c34:	000012a4 	.word	0x000012a4
     c38:	000012a4 	.word	0x000012a4
     c3c:	000012a4 	.word	0x000012a4
     c40:	000012a4 	.word	0x000012a4
     c44:	000012a4 	.word	0x000012a4
     c48:	000012a4 	.word	0x000012a4
     c4c:	000012a4 	.word	0x000012a4
     c50:	000012a4 	.word	0x000012a4
     c54:	0000120c 	.word	0x0000120c
     c58:	0000120c 	.word	0x0000120c
     c5c:	0000120c 	.word	0x0000120c
     c60:	0000120c 	.word	0x0000120c
     c64:	0000120c 	.word	0x0000120c
     c68:	0000120c 	.word	0x0000120c
     c6c:	0000120c 	.word	0x0000120c
     c70:	0000120c 	.word	0x0000120c
     c74:	0000120c 	.word	0x0000120c
     c78:	0000120c 	.word	0x0000120c
     c7c:	000011c8 	.word	0x000011c8
     c80:	0000120c 	.word	0x0000120c
     c84:	0000120c 	.word	0x0000120c
     c88:	0000120c 	.word	0x0000120c
     c8c:	0000120c 	.word	0x0000120c
     c90:	0000120c 	.word	0x0000120c
     c94:	0000120c 	.word	0x0000120c
     c98:	0000120c 	.word	0x0000120c
     c9c:	0000120c 	.word	0x0000120c
     ca0:	0000120c 	.word	0x0000120c
     ca4:	0000120c 	.word	0x0000120c
     ca8:	00000e30 	.word	0x00000e30
     cac:	0000120c 	.word	0x0000120c
     cb0:	0000120c 	.word	0x0000120c
     cb4:	0000120c 	.word	0x0000120c
     cb8:	0000120c 	.word	0x0000120c
     cbc:	0000120c 	.word	0x0000120c
     cc0:	00000d50 	.word	0x00000d50
     cc4:	0000120c 	.word	0x0000120c
     cc8:	0000120c 	.word	0x0000120c
     ccc:	00001180 	.word	0x00001180
     cd0:	0000120c 	.word	0x0000120c
     cd4:	0000120c 	.word	0x0000120c
     cd8:	0000120c 	.word	0x0000120c
     cdc:	0000120c 	.word	0x0000120c
     ce0:	0000120c 	.word	0x0000120c
     ce4:	0000120c 	.word	0x0000120c
     ce8:	0000120c 	.word	0x0000120c
     cec:	0000120c 	.word	0x0000120c
     cf0:	0000120c 	.word	0x0000120c
     cf4:	0000120c 	.word	0x0000120c
     cf8:	00001020 	.word	0x00001020
     cfc:	00000fd0 	.word	0x00000fd0
     d00:	0000120c 	.word	0x0000120c
     d04:	0000120c 	.word	0x0000120c
     d08:	0000120c 	.word	0x0000120c
     d0c:	00000fc4 	.word	0x00000fc4
     d10:	00000fd0 	.word	0x00000fd0
     d14:	0000120c 	.word	0x0000120c
     d18:	0000120c 	.word	0x0000120c
     d1c:	00000fa4 	.word	0x00000fa4
     d20:	0000120c 	.word	0x0000120c
     d24:	00000ea0 	.word	0x00000ea0
     d28:	00000e34 	.word	0x00000e34
     d2c:	00000ee4 	.word	0x00000ee4
     d30:	00000ed8 	.word	0x00000ed8
     d34:	0000120c 	.word	0x0000120c
     d38:	00000f28 	.word	0x00000f28
     d3c:	0000120c 	.word	0x0000120c
     d40:	00000d54 	.word	0x00000d54
     d44:	0000120c 	.word	0x0000120c
     d48:	0000120c 	.word	0x0000120c
     d4c:	0000123c 	.word	0x0000123c
     d50:	e3866010 	orr	r6, r6, #16
     d54:	e3160020 	tst	r6, #32
     d58:	0a000329 	beq	1a04 <_vfiprintf_r+0xf70>
     d5c:	e59d501c 	ldr	r5, [sp, #28]
     d60:	e2853007 	add	r3, r5, #7
     d64:	e3c33007 	bic	r3, r3, #7
     d68:	e8930300 	ldm	r3, {r8, r9}
     d6c:	e2833008 	add	r3, r3, #8
     d70:	e1987009 	orrs	r7, r8, r9
     d74:	e58d301c 	str	r3, [sp, #28]
     d78:	03a02000 	moveq	r2, #0
     d7c:	13a02001 	movne	r2, #1
     d80:	e3a03001 	mov	r3, #1
     d84:	e3a05000 	mov	r5, #0
     d88:	e5cd5047 	strb	r5, [sp, #71]	; 0x47
     d8c:	e35c0000 	cmp	r12, #0
     d90:	a3c66080 	bicge	r6, r6, #128	; 0x80
     d94:	e35c0000 	cmp	r12, #0
     d98:	13822001 	orrne	r2, r2, #1
     d9c:	e3520000 	cmp	r2, #0
     da0:	0a00020d 	beq	15dc <_vfiprintf_r+0xb48>
     da4:	e3530001 	cmp	r3, #1
     da8:	0a0002f7 	beq	198c <_vfiprintf_r+0xef8>
     dac:	e3530002 	cmp	r3, #2
     db0:	e59d0030 	ldr	r0, [sp, #48]	; 0x30
     db4:	0a0002dd 	beq	1930 <_vfiprintf_r+0xe9c>
     db8:	e58d6004 	str	r6, [sp, #4]
     dbc:	e1a011a8 	lsr	r1, r8, #3
     dc0:	e3a06007 	mov	r6, #7
     dc4:	e1811e89 	orr	r1, r1, r9, lsl #29
     dc8:	e0082006 	and	r2, r8, r6
     dcc:	e1a031a9 	lsr	r3, r9, #3
     dd0:	e1a09003 	mov	r9, r3
     dd4:	e1a08001 	mov	r8, r1
     dd8:	e2822030 	add	r2, r2, #48	; 0x30
     ddc:	e20220ff 	and	r2, r2, #255	; 0xff
     de0:	e1987009 	orrs	r7, r8, r9
     de4:	e1a03000 	mov	r3, r0
     de8:	e5c02000 	strb	r2, [r0]
     dec:	e2400001 	sub	r0, r0, #1
     df0:	1afffff1 	bne	dbc <_vfiprintf_r+0x328>
     df4:	e59d6004 	ldr	r6, [sp, #4]
     df8:	e3160001 	tst	r6, #1
     dfc:	e58d3024 	str	r3, [sp, #36]	; 0x24
     e00:	0a000336 	beq	1ae0 <_vfiprintf_r+0x104c>
     e04:	e3520030 	cmp	r2, #48	; 0x30
     e08:	13a02030 	movne	r2, #48	; 0x30
     e0c:	059d302c 	ldreq	r3, [sp, #44]	; 0x2c
     e10:	15432001 	strbne	r2, [r3, #-1]
     e14:	059d7024 	ldreq	r7, [sp, #36]	; 0x24
     e18:	159d302c 	ldrne	r3, [sp, #44]	; 0x2c
     e1c:	00673003 	rsbeq	r3, r7, r3
     e20:	10603003 	rsbne	r3, r0, r3
     e24:	158d0024 	strne	r0, [sp, #36]	; 0x24
     e28:	e58d3008 	str	r3, [sp, #8]
     e2c:	ea0001f4 	b	1604 <_vfiprintf_r+0xb70>
     e30:	e3866010 	orr	r6, r6, #16
     e34:	e2163020 	ands	r3, r6, #32
     e38:	0a0002ff 	beq	1a3c <_vfiprintf_r+0xfa8>
     e3c:	e59d501c 	ldr	r5, [sp, #28]
     e40:	e2853007 	add	r3, r5, #7
     e44:	e3c33007 	bic	r3, r3, #7
     e48:	e8930300 	ldm	r3, {r8, r9}
     e4c:	e2833008 	add	r3, r3, #8
     e50:	e1987009 	orrs	r7, r8, r9
     e54:	e58d301c 	str	r3, [sp, #28]
     e58:	03a02000 	moveq	r2, #0
     e5c:	13a02001 	movne	r2, #1
     e60:	e3a03000 	mov	r3, #0
     e64:	eaffffc6 	b	d84 <_vfiprintf_r+0x2f0>
     e68:	e59d701c 	ldr	r7, [sp, #28]
     e6c:	e5977000 	ldr	r7, [r7]
     e70:	e59d501c 	ldr	r5, [sp, #28]
     e74:	e3570000 	cmp	r7, #0
     e78:	e58d7018 	str	r7, [sp, #24]
     e7c:	e2852004 	add	r2, r5, #4
     e80:	aa000304 	bge	1a98 <_vfiprintf_r+0x1004>
     e84:	e59d7018 	ldr	r7, [sp, #24]
     e88:	e2677000 	rsb	r7, r7, #0
     e8c:	e58d7018 	str	r7, [sp, #24]
     e90:	e58d201c 	str	r2, [sp, #28]
     e94:	e3866004 	orr	r6, r6, #4
     e98:	e5db3000 	ldrb	r3, [r11]
     e9c:	eaffff4d 	b	bd8 <_vfiprintf_r+0x144>
     ea0:	e3160020 	tst	r6, #32
     ea4:	e5cd1047 	strb	r1, [sp, #71]	; 0x47
     ea8:	1a00033e 	bne	1ba8 <_vfiprintf_r+0x1114>
     eac:	e3160010 	tst	r6, #16
     eb0:	1a000345 	bne	1bcc <_vfiprintf_r+0x1138>
     eb4:	e3160040 	tst	r6, #64	; 0x40
     eb8:	0a000343 	beq	1bcc <_vfiprintf_r+0x1138>
     ebc:	e59dc01c 	ldr	r12, [sp, #28]
     ec0:	e59d500c 	ldr	r5, [sp, #12]
     ec4:	e59c3000 	ldr	r3, [r12]
     ec8:	e28cc004 	add	r12, r12, #4
     ecc:	e58dc01c 	str	r12, [sp, #28]
     ed0:	e1c350b0 	strh	r5, [r3]
     ed4:	eaffff19 	b	b40 <_vfiprintf_r+0xac>
     ed8:	e3866020 	orr	r6, r6, #32
     edc:	e5db3000 	ldrb	r3, [r11]
     ee0:	eaffff3c 	b	bd8 <_vfiprintf_r+0x144>
     ee4:	e59d301c 	ldr	r3, [sp, #28]
     ee8:	e5932000 	ldr	r2, [r3]
     eec:	e2837004 	add	r7, r3, #4
     ef0:	e3a09000 	mov	r9, #0
     ef4:	e3a03030 	mov	r3, #48	; 0x30
     ef8:	e59f5d58 	ldr	r5, [pc, #3416]	; 1c58 <_vfiprintf_r+0x11c4>
     efc:	e1a08002 	mov	r8, r2
     f00:	e5cd3048 	strb	r3, [sp, #72]	; 0x48
     f04:	e0522009 	subs	r2, r2, r9
     f08:	e3a03078 	mov	r3, #120	; 0x78
     f0c:	e5cd3049 	strb	r3, [sp, #73]	; 0x49
     f10:	e58d701c 	str	r7, [sp, #28]
     f14:	e3866002 	orr	r6, r6, #2
     f18:	13a02001 	movne	r2, #1
     f1c:	e58d5034 	str	r5, [sp, #52]	; 0x34
     f20:	e3a03002 	mov	r3, #2
     f24:	eaffff96 	b	d84 <_vfiprintf_r+0x2f0>
     f28:	e59d701c 	ldr	r7, [sp, #28]
     f2c:	e5977000 	ldr	r7, [r7]
     f30:	e58d7024 	str	r7, [sp, #36]	; 0x24
     f34:	e59d3024 	ldr	r3, [sp, #36]	; 0x24
     f38:	e3a07000 	mov	r7, #0
     f3c:	e59d501c 	ldr	r5, [sp, #28]
     f40:	e1530007 	cmp	r3, r7
     f44:	e5cd7047 	strb	r7, [sp, #71]	; 0x47
     f48:	e2858004 	add	r8, r5, #4
     f4c:	0a00032a 	beq	1bfc <_vfiprintf_r+0x1168>
     f50:	e35c0000 	cmp	r12, #0
     f54:	e59d0024 	ldr	r0, [sp, #36]	; 0x24
     f58:	ba000322 	blt	1be8 <_vfiprintf_r+0x1154>
     f5c:	e1a0200c 	mov	r2, r12
     f60:	e1a01007 	mov	r1, r7
     f64:	e58dc000 	str	r12, [sp]
     f68:	eb000aa9 	bl	3a14 <memchr>
     f6c:	e3500000 	cmp	r0, #0
     f70:	e59dc000 	ldr	r12, [sp]
     f74:	0a000329 	beq	1c20 <_vfiprintf_r+0x118c>
     f78:	e59d3024 	ldr	r3, [sp, #36]	; 0x24
     f7c:	e0630000 	rsb	r0, r3, r0
     f80:	e150000c 	cmp	r0, r12
     f84:	e58d0008 	str	r0, [sp, #8]
     f88:	e5dd5047 	ldrb	r5, [sp, #71]	; 0x47
     f8c:	e58d801c 	str	r8, [sp, #28]
     f90:	c58dc008 	strgt	r12, [sp, #8]
     f94:	c58d7010 	strgt	r7, [sp, #16]
     f98:	ca00019a 	bgt	1608 <_vfiprintf_r+0xb74>
     f9c:	e58d7010 	str	r7, [sp, #16]
     fa0:	ea000198 	b	1608 <_vfiprintf_r+0xb74>
     fa4:	e5db3000 	ldrb	r3, [r11]
     fa8:	e1a0200b 	mov	r2, r11
     fac:	e353006c 	cmp	r3, #108	; 0x6c
     fb0:	028bb001 	addeq	r11, r11, #1
     fb4:	03866020 	orreq	r6, r6, #32
     fb8:	05d23001 	ldrbeq	r3, [r2, #1]
     fbc:	13866010 	orrne	r6, r6, #16
     fc0:	eaffff04 	b	bd8 <_vfiprintf_r+0x144>
     fc4:	e3866040 	orr	r6, r6, #64	; 0x40
     fc8:	e5db3000 	ldrb	r3, [r11]
     fcc:	eaffff01 	b	bd8 <_vfiprintf_r+0x144>
     fd0:	e3160020 	tst	r6, #32
     fd4:	e5cd1047 	strb	r1, [sp, #71]	; 0x47
     fd8:	0a00007e 	beq	11d8 <_vfiprintf_r+0x744>
     fdc:	e59d501c 	ldr	r5, [sp, #28]
     fe0:	e2851007 	add	r1, r5, #7
     fe4:	e3c11007 	bic	r1, r1, #7
     fe8:	e891000c 	ldm	r1, {r2, r3}
     fec:	e2811008 	add	r1, r1, #8
     ff0:	e58d101c 	str	r1, [sp, #28]
     ff4:	e1a08002 	mov	r8, r2
     ff8:	e1a09003 	mov	r9, r3
     ffc:	e3520000 	cmp	r2, #0
    1000:	e2d30000 	sbcs	r0, r3, #0
    1004:	ba0002de 	blt	1b84 <_vfiprintf_r+0x10f0>
    1008:	e1981009 	orrs	r1, r8, r9
    100c:	e5dd5047 	ldrb	r5, [sp, #71]	; 0x47
    1010:	03a02000 	moveq	r2, #0
    1014:	13a02001 	movne	r2, #1
    1018:	e3a03001 	mov	r3, #1
    101c:	eaffff5a 	b	d8c <_vfiprintf_r+0x2f8>
    1020:	e59d301c 	ldr	r3, [sp, #28]
    1024:	e5933000 	ldr	r3, [r3]
    1028:	e59dc01c 	ldr	r12, [sp, #28]
    102c:	e5cd3058 	strb	r3, [sp, #88]	; 0x58
    1030:	e3a03000 	mov	r3, #0
    1034:	e3a07001 	mov	r7, #1
    1038:	e28cc004 	add	r12, r12, #4
    103c:	e5cd3047 	strb	r3, [sp, #71]	; 0x47
    1040:	e28d3058 	add	r3, sp, #88	; 0x58
    1044:	e58d7004 	str	r7, [sp, #4]
    1048:	e58dc01c 	str	r12, [sp, #28]
    104c:	e58d7008 	str	r7, [sp, #8]
    1050:	e58d3024 	str	r3, [sp, #36]	; 0x24
    1054:	e3a0c000 	mov	r12, #0
    1058:	e58dc010 	str	r12, [sp, #16]
    105c:	e2163002 	ands	r3, r6, #2
    1060:	159d5004 	ldrne	r5, [sp, #4]
    1064:	12855002 	addne	r5, r5, #2
    1068:	158d5004 	strne	r5, [sp, #4]
    106c:	e2167084 	ands	r7, r6, #132	; 0x84
    1070:	e58d3020 	str	r3, [sp, #32]
    1074:	e58d7028 	str	r7, [sp, #40]	; 0x28
    1078:	1a0000ab 	bne	132c <_vfiprintf_r+0x898>
    107c:	e59dc018 	ldr	r12, [sp, #24]
    1080:	e59d3004 	ldr	r3, [sp, #4]
    1084:	e063500c 	rsb	r5, r3, r12
    1088:	e3550000 	cmp	r5, #0
    108c:	da0000a6 	ble	132c <_vfiprintf_r+0x898>
    1090:	e3550010 	cmp	r5, #16
    1094:	e59d1054 	ldr	r1, [sp, #84]	; 0x54
    1098:	e59d2050 	ldr	r2, [sp, #80]	; 0x50
    109c:	e59f8bb8 	ldr	r8, [pc, #3000]	; 1c5c <_vfiprintf_r+0x11c8>
    10a0:	da000023 	ble	1134 <_vfiprintf_r+0x6a0>
    10a4:	e28d704c 	add	r7, sp, #76	; 0x4c
    10a8:	e58d6038 	str	r6, [sp, #56]	; 0x38
    10ac:	e3a09010 	mov	r9, #16
    10b0:	e1a06008 	mov	r6, r8
    10b4:	e1a03002 	mov	r3, r2
    10b8:	e1a08005 	mov	r8, r5
    10bc:	e1a05007 	mov	r5, r7
    10c0:	e59d7014 	ldr	r7, [sp, #20]
    10c4:	ea000002 	b	10d4 <_vfiprintf_r+0x640>
    10c8:	e2488010 	sub	r8, r8, #16
    10cc:	e3580010 	cmp	r8, #16
    10d0:	da000013 	ble	1124 <_vfiprintf_r+0x690>
    10d4:	e2833001 	add	r3, r3, #1
    10d8:	e2811010 	add	r1, r1, #16
    10dc:	e3530007 	cmp	r3, #7
    10e0:	e8840240 	stm	r4, {r6, r9}
    10e4:	e58d1054 	str	r1, [sp, #84]	; 0x54
    10e8:	e58d3050 	str	r3, [sp, #80]	; 0x50
    10ec:	d2844008 	addle	r4, r4, #8
    10f0:	dafffff4 	ble	10c8 <_vfiprintf_r+0x634>
    10f4:	e1a00007 	mov	r0, r7
    10f8:	e1a0100a 	mov	r1, r10
    10fc:	e1a02005 	mov	r2, r5
    1100:	ebfffe34 	bl	9d8 <__sprint_r>
    1104:	e3500000 	cmp	r0, #0
    1108:	1a00014f 	bne	164c <_vfiprintf_r+0xbb8>
    110c:	e2488010 	sub	r8, r8, #16
    1110:	e3580010 	cmp	r8, #16
    1114:	e59d1054 	ldr	r1, [sp, #84]	; 0x54
    1118:	e59d3050 	ldr	r3, [sp, #80]	; 0x50
    111c:	e28d40e8 	add	r4, sp, #232	; 0xe8
    1120:	caffffeb 	bgt	10d4 <_vfiprintf_r+0x640>
    1124:	e1a05008 	mov	r5, r8
    1128:	e1a08006 	mov	r8, r6
    112c:	e59d6038 	ldr	r6, [sp, #56]	; 0x38
    1130:	e1a02003 	mov	r2, r3
    1134:	e2822001 	add	r2, r2, #1
    1138:	e0811005 	add	r1, r1, r5
    113c:	e3520007 	cmp	r2, #7
    1140:	e5848000 	str	r8, [r4]
    1144:	e5845004 	str	r5, [r4, #4]
    1148:	e58d1054 	str	r1, [sp, #84]	; 0x54
    114c:	e58d2050 	str	r2, [sp, #80]	; 0x50
    1150:	d2844008 	addle	r4, r4, #8
    1154:	da000076 	ble	1334 <_vfiprintf_r+0x8a0>
    1158:	e59d0014 	ldr	r0, [sp, #20]
    115c:	e1a0100a 	mov	r1, r10
    1160:	e28d204c 	add	r2, sp, #76	; 0x4c
    1164:	ebfffe1b 	bl	9d8 <__sprint_r>
    1168:	e3500000 	cmp	r0, #0
    116c:	1a000136 	bne	164c <_vfiprintf_r+0xbb8>
    1170:	e59d1054 	ldr	r1, [sp, #84]	; 0x54
    1174:	e59d2050 	ldr	r2, [sp, #80]	; 0x50
    1178:	e28d40e8 	add	r4, sp, #232	; 0xe8
    117c:	ea00006c 	b	1334 <_vfiprintf_r+0x8a0>
    1180:	e59f5ad8 	ldr	r5, [pc, #2776]	; 1c60 <_vfiprintf_r+0x11cc>
    1184:	e3160020 	tst	r6, #32
    1188:	e5cd1047 	strb	r1, [sp, #71]	; 0x47
    118c:	e58d5034 	str	r5, [sp, #52]	; 0x34
    1190:	0a00002e 	beq	1250 <_vfiprintf_r+0x7bc>
    1194:	e59d501c 	ldr	r5, [sp, #28]
    1198:	e2852007 	add	r2, r5, #7
    119c:	e3c22007 	bic	r2, r2, #7
    11a0:	e2827008 	add	r7, r2, #8
    11a4:	e58d701c 	str	r7, [sp, #28]
    11a8:	e8920300 	ldm	r2, {r8, r9}
    11ac:	e3160001 	tst	r6, #1
    11b0:	1a00022f 	bne	1a74 <_vfiprintf_r+0xfe0>
    11b4:	e1987009 	orrs	r7, r8, r9
    11b8:	03a02000 	moveq	r2, #0
    11bc:	13a02001 	movne	r2, #1
    11c0:	e3a03002 	mov	r3, #2
    11c4:	eafffeee 	b	d84 <_vfiprintf_r+0x2f0>
    11c8:	e3866010 	orr	r6, r6, #16
    11cc:	e3160020 	tst	r6, #32
    11d0:	e5cd1047 	strb	r1, [sp, #71]	; 0x47
    11d4:	1affff80 	bne	fdc <_vfiprintf_r+0x548>
    11d8:	e3160010 	tst	r6, #16
    11dc:	1a00025d 	bne	1b58 <_vfiprintf_r+0x10c4>
    11e0:	e3160040 	tst	r6, #64	; 0x40
    11e4:	0a00025b 	beq	1b58 <_vfiprintf_r+0x10c4>
    11e8:	e59d501c 	ldr	r5, [sp, #28]
    11ec:	e1d530f0 	ldrsh	r3, [r5]
    11f0:	e2855004 	add	r5, r5, #4
    11f4:	e1a09fc3 	asr	r9, r3, #31
    11f8:	e1a08003 	mov	r8, r3
    11fc:	e1a02003 	mov	r2, r3
    1200:	e58d501c 	str	r5, [sp, #28]
    1204:	e1a03009 	mov	r3, r9
    1208:	eaffff7b 	b	ffc <_vfiprintf_r+0x568>
    120c:	e3530000 	cmp	r3, #0
    1210:	e5cd1047 	strb	r1, [sp, #71]	; 0x47
    1214:	0a000104 	beq	162c <_vfiprintf_r+0xb98>
    1218:	e5cd3058 	strb	r3, [sp, #88]	; 0x58
    121c:	e3a03000 	mov	r3, #0
    1220:	e3a0c001 	mov	r12, #1
    1224:	e5cd3047 	strb	r3, [sp, #71]	; 0x47
    1228:	e28d3058 	add	r3, sp, #88	; 0x58
    122c:	e58dc004 	str	r12, [sp, #4]
    1230:	e58dc008 	str	r12, [sp, #8]
    1234:	e58d3024 	str	r3, [sp, #36]	; 0x24
    1238:	eaffff85 	b	1054 <_vfiprintf_r+0x5c0>
    123c:	e59f7a14 	ldr	r7, [pc, #2580]	; 1c58 <_vfiprintf_r+0x11c4>
    1240:	e3160020 	tst	r6, #32
    1244:	e5cd1047 	strb	r1, [sp, #71]	; 0x47
    1248:	e58d7034 	str	r7, [sp, #52]	; 0x34
    124c:	1affffd0 	bne	1194 <_vfiprintf_r+0x700>
    1250:	e3160010 	tst	r6, #16
    1254:	1a000238 	bne	1b3c <_vfiprintf_r+0x10a8>
    1258:	e3160040 	tst	r6, #64	; 0x40
    125c:	0a000236 	beq	1b3c <_vfiprintf_r+0x10a8>
    1260:	e59d701c 	ldr	r7, [sp, #28]
    1264:	e1d720b0 	ldrh	r2, [r7]
    1268:	e2877004 	add	r7, r7, #4
    126c:	e1a08002 	mov	r8, r2
    1270:	e3a09000 	mov	r9, #0
    1274:	e58d701c 	str	r7, [sp, #28]
    1278:	eaffffcb 	b	11ac <_vfiprintf_r+0x718>
    127c:	e5db3000 	ldrb	r3, [r11]
    1280:	e3a0102b 	mov	r1, #43	; 0x2b
    1284:	eafffe53 	b	bd8 <_vfiprintf_r+0x144>
    1288:	e3866001 	orr	r6, r6, #1
    128c:	e5db3000 	ldrb	r3, [r11]
    1290:	eafffe50 	b	bd8 <_vfiprintf_r+0x144>
    1294:	e3510000 	cmp	r1, #0
    1298:	e5db3000 	ldrb	r3, [r11]
    129c:	03a01020 	moveq	r1, #32
    12a0:	eafffe4c 	b	bd8 <_vfiprintf_r+0x144>
    12a4:	e1a0000b 	mov	r0, r11
    12a8:	e3a02000 	mov	r2, #0
    12ac:	e2435030 	sub	r5, r3, #48	; 0x30
    12b0:	e4d03001 	ldrb	r3, [r0], #1
    12b4:	e2437030 	sub	r7, r3, #48	; 0x30
    12b8:	e0822102 	add	r2, r2, r2, lsl #2
    12bc:	e3570009 	cmp	r7, #9
    12c0:	e0852082 	add	r2, r5, r2, lsl #1
    12c4:	e1a0b000 	mov	r11, r0
    12c8:	9afffff7 	bls	12ac <_vfiprintf_r+0x818>
    12cc:	e58d2018 	str	r2, [sp, #24]
    12d0:	eafffe41 	b	bdc <_vfiprintf_r+0x148>
    12d4:	e3866080 	orr	r6, r6, #128	; 0x80
    12d8:	e5db3000 	ldrb	r3, [r11]
    12dc:	eafffe3d 	b	bd8 <_vfiprintf_r+0x144>
    12e0:	e1a0000b 	mov	r0, r11
    12e4:	e4d03001 	ldrb	r3, [r0], #1
    12e8:	e353002a 	cmp	r3, #42	; 0x2a
    12ec:	0a000250 	beq	1c34 <_vfiprintf_r+0x11a0>
    12f0:	e2432030 	sub	r2, r3, #48	; 0x30
    12f4:	e3520009 	cmp	r2, #9
    12f8:	81a0b000 	movhi	r11, r0
    12fc:	83a0c000 	movhi	r12, #0
    1300:	8afffe35 	bhi	bdc <_vfiprintf_r+0x148>
    1304:	e3a0c000 	mov	r12, #0
    1308:	e4d03001 	ldrb	r3, [r0], #1
    130c:	e08cc10c 	add	r12, r12, r12, lsl #2
    1310:	e082c08c 	add	r12, r2, r12, lsl #1
    1314:	e2432030 	sub	r2, r3, #48	; 0x30
    1318:	e3520009 	cmp	r2, #9
    131c:	e1a0b000 	mov	r11, r0
    1320:	9afffff8 	bls	1308 <_vfiprintf_r+0x874>
    1324:	e18ccfcc 	orr	r12, r12, r12, asr #31
    1328:	eafffe2b 	b	bdc <_vfiprintf_r+0x148>
    132c:	e59d1054 	ldr	r1, [sp, #84]	; 0x54
    1330:	e59d2050 	ldr	r2, [sp, #80]	; 0x50
    1334:	e5dd3047 	ldrb	r3, [sp, #71]	; 0x47
    1338:	e3530000 	cmp	r3, #0
    133c:	0a00000a 	beq	136c <_vfiprintf_r+0x8d8>
    1340:	e2822001 	add	r2, r2, #1
    1344:	e28d3047 	add	r3, sp, #71	; 0x47
    1348:	e5843000 	str	r3, [r4]
    134c:	e2811001 	add	r1, r1, #1
    1350:	e3520007 	cmp	r2, #7
    1354:	e3a03001 	mov	r3, #1
    1358:	e5843004 	str	r3, [r4, #4]
    135c:	e58d1054 	str	r1, [sp, #84]	; 0x54
    1360:	e58d2050 	str	r2, [sp, #80]	; 0x50
    1364:	d2844008 	addle	r4, r4, #8
    1368:	ca00015f 	bgt	18ec <_vfiprintf_r+0xe58>
    136c:	e59d5020 	ldr	r5, [sp, #32]
    1370:	e3550000 	cmp	r5, #0
    1374:	0a00000a 	beq	13a4 <_vfiprintf_r+0x910>
    1378:	e2822001 	add	r2, r2, #1
    137c:	e28d3048 	add	r3, sp, #72	; 0x48
    1380:	e5843000 	str	r3, [r4]
    1384:	e2811002 	add	r1, r1, #2
    1388:	e3520007 	cmp	r2, #7
    138c:	e3a03002 	mov	r3, #2
    1390:	e5843004 	str	r3, [r4, #4]
    1394:	e58d1054 	str	r1, [sp, #84]	; 0x54
    1398:	e58d2050 	str	r2, [sp, #80]	; 0x50
    139c:	d2844008 	addle	r4, r4, #8
    13a0:	ca000146 	bgt	18c0 <_vfiprintf_r+0xe2c>
    13a4:	e59dc028 	ldr	r12, [sp, #40]	; 0x28
    13a8:	e35c0080 	cmp	r12, #128	; 0x80
    13ac:	0a0000b0 	beq	1674 <_vfiprintf_r+0xbe0>
    13b0:	e59d5010 	ldr	r5, [sp, #16]
    13b4:	e59d7008 	ldr	r7, [sp, #8]
    13b8:	e0678005 	rsb	r8, r7, r5
    13bc:	e3580000 	cmp	r8, #0
    13c0:	da000035 	ble	149c <_vfiprintf_r+0xa08>
    13c4:	e3580010 	cmp	r8, #16
    13c8:	e59f5894 	ldr	r5, [pc, #2196]	; 1c64 <_vfiprintf_r+0x11d0>
    13cc:	da000021 	ble	1458 <_vfiprintf_r+0x9c4>
    13d0:	e28d704c 	add	r7, sp, #76	; 0x4c
    13d4:	e58d6010 	str	r6, [sp, #16]
    13d8:	e3a09010 	mov	r9, #16
    13dc:	e1a06005 	mov	r6, r5
    13e0:	e1a03002 	mov	r3, r2
    13e4:	e1a05007 	mov	r5, r7
    13e8:	e59d7014 	ldr	r7, [sp, #20]
    13ec:	ea000002 	b	13fc <_vfiprintf_r+0x968>
    13f0:	e2488010 	sub	r8, r8, #16
    13f4:	e3580010 	cmp	r8, #16
    13f8:	da000013 	ble	144c <_vfiprintf_r+0x9b8>
    13fc:	e2833001 	add	r3, r3, #1
    1400:	e2811010 	add	r1, r1, #16
    1404:	e3530007 	cmp	r3, #7
    1408:	e8840240 	stm	r4, {r6, r9}
    140c:	e58d1054 	str	r1, [sp, #84]	; 0x54
    1410:	e58d3050 	str	r3, [sp, #80]	; 0x50
    1414:	d2844008 	addle	r4, r4, #8
    1418:	dafffff4 	ble	13f0 <_vfiprintf_r+0x95c>
    141c:	e1a00007 	mov	r0, r7
    1420:	e1a0100a 	mov	r1, r10
    1424:	e1a02005 	mov	r2, r5
    1428:	ebfffd6a 	bl	9d8 <__sprint_r>
    142c:	e3500000 	cmp	r0, #0
    1430:	1a000085 	bne	164c <_vfiprintf_r+0xbb8>
    1434:	e2488010 	sub	r8, r8, #16
    1438:	e3580010 	cmp	r8, #16
    143c:	e59d1054 	ldr	r1, [sp, #84]	; 0x54
    1440:	e59d3050 	ldr	r3, [sp, #80]	; 0x50
    1444:	e28d40e8 	add	r4, sp, #232	; 0xe8
    1448:	caffffeb 	bgt	13fc <_vfiprintf_r+0x968>
    144c:	e1a05006 	mov	r5, r6
    1450:	e59d6010 	ldr	r6, [sp, #16]
    1454:	e1a02003 	mov	r2, r3
    1458:	e2822001 	add	r2, r2, #1
    145c:	e0811008 	add	r1, r1, r8
    1460:	e3520007 	cmp	r2, #7
    1464:	e8840120 	stm	r4, {r5, r8}
    1468:	e58d1054 	str	r1, [sp, #84]	; 0x54
    146c:	e58d2050 	str	r2, [sp, #80]	; 0x50
    1470:	d2844008 	addle	r4, r4, #8
    1474:	da000008 	ble	149c <_vfiprintf_r+0xa08>
    1478:	e59d0014 	ldr	r0, [sp, #20]
    147c:	e1a0100a 	mov	r1, r10
    1480:	e28d204c 	add	r2, sp, #76	; 0x4c
    1484:	ebfffd53 	bl	9d8 <__sprint_r>
    1488:	e3500000 	cmp	r0, #0
    148c:	1a00006e 	bne	164c <_vfiprintf_r+0xbb8>
    1490:	e59d1054 	ldr	r1, [sp, #84]	; 0x54
    1494:	e59d2050 	ldr	r2, [sp, #80]	; 0x50
    1498:	e28d40e8 	add	r4, sp, #232	; 0xe8
    149c:	e59d5008 	ldr	r5, [sp, #8]
    14a0:	e2822001 	add	r2, r2, #1
    14a4:	e59d7024 	ldr	r7, [sp, #36]	; 0x24
    14a8:	e0811005 	add	r1, r1, r5
    14ac:	e3520007 	cmp	r2, #7
    14b0:	e5847000 	str	r7, [r4]
    14b4:	e5845004 	str	r5, [r4, #4]
    14b8:	e58d1054 	str	r1, [sp, #84]	; 0x54
    14bc:	e58d2050 	str	r2, [sp, #80]	; 0x50
    14c0:	d2844008 	addle	r4, r4, #8
    14c4:	ca0000a6 	bgt	1764 <_vfiprintf_r+0xcd0>
    14c8:	e3160004 	tst	r6, #4
    14cc:	0a000030 	beq	1594 <_vfiprintf_r+0xb00>
    14d0:	e59d5018 	ldr	r5, [sp, #24]
    14d4:	e59d7004 	ldr	r7, [sp, #4]
    14d8:	e0676005 	rsb	r6, r7, r5
    14dc:	e3560000 	cmp	r6, #0
    14e0:	da00002b 	ble	1594 <_vfiprintf_r+0xb00>
    14e4:	e3560010 	cmp	r6, #16
    14e8:	e59d2050 	ldr	r2, [sp, #80]	; 0x50
    14ec:	e59f8768 	ldr	r8, [pc, #1896]	; 1c5c <_vfiprintf_r+0x11c8>
    14f0:	da00001f 	ble	1574 <_vfiprintf_r+0xae0>
    14f4:	e3a07010 	mov	r7, #16
    14f8:	e28d504c 	add	r5, sp, #76	; 0x4c
    14fc:	e59d9014 	ldr	r9, [sp, #20]
    1500:	e1a03002 	mov	r3, r2
    1504:	e1a0c001 	mov	r12, r1
    1508:	ea000002 	b	1518 <_vfiprintf_r+0xa84>
    150c:	e2466010 	sub	r6, r6, #16
    1510:	e3560010 	cmp	r6, #16
    1514:	da000014 	ble	156c <_vfiprintf_r+0xad8>
    1518:	e2833001 	add	r3, r3, #1
    151c:	e28cc010 	add	r12, r12, #16
    1520:	e3530007 	cmp	r3, #7
    1524:	e5848000 	str	r8, [r4]
    1528:	e5847004 	str	r7, [r4, #4]
    152c:	e58dc054 	str	r12, [sp, #84]	; 0x54
    1530:	e58d3050 	str	r3, [sp, #80]	; 0x50
    1534:	d2844008 	addle	r4, r4, #8
    1538:	dafffff3 	ble	150c <_vfiprintf_r+0xa78>
    153c:	e1a00009 	mov	r0, r9
    1540:	e1a0100a 	mov	r1, r10
    1544:	e1a02005 	mov	r2, r5
    1548:	ebfffd22 	bl	9d8 <__sprint_r>
    154c:	e3500000 	cmp	r0, #0
    1550:	1a00003d 	bne	164c <_vfiprintf_r+0xbb8>
    1554:	e2466010 	sub	r6, r6, #16
    1558:	e28d3050 	add	r3, sp, #80	; 0x50
    155c:	e3560010 	cmp	r6, #16
    1560:	e8931008 	ldm	r3, {r3, r12}
    1564:	e28d40e8 	add	r4, sp, #232	; 0xe8
    1568:	caffffea 	bgt	1518 <_vfiprintf_r+0xa84>
    156c:	e1a02003 	mov	r2, r3
    1570:	e1a0100c 	mov	r1, r12
    1574:	e2822001 	add	r2, r2, #1
    1578:	e0861001 	add	r1, r6, r1
    157c:	e3520007 	cmp	r2, #7
    1580:	e5848000 	str	r8, [r4]
    1584:	e5846004 	str	r6, [r4, #4]
    1588:	e58d1054 	str	r1, [sp, #84]	; 0x54
    158c:	e58d2050 	str	r2, [sp, #80]	; 0x50
    1590:	ca000143 	bgt	1aa4 <_vfiprintf_r+0x1010>
    1594:	e59d400c 	ldr	r4, [sp, #12]
    1598:	e59d5004 	ldr	r5, [sp, #4]
    159c:	e59d6018 	ldr	r6, [sp, #24]
    15a0:	e1550006 	cmp	r5, r6
    15a4:	a0844005 	addge	r4, r4, r5
    15a8:	b0844006 	addlt	r4, r4, r6
    15ac:	e3510000 	cmp	r1, #0
    15b0:	e58d400c 	str	r4, [sp, #12]
    15b4:	1a000073 	bne	1788 <_vfiprintf_r+0xcf4>
    15b8:	e3a03000 	mov	r3, #0
    15bc:	e58d3050 	str	r3, [sp, #80]	; 0x50
    15c0:	e5db3000 	ldrb	r3, [r11]
    15c4:	e3530025 	cmp	r3, #37	; 0x25
    15c8:	13530000 	cmpne	r3, #0
    15cc:	e28d40e8 	add	r4, sp, #232	; 0xe8
    15d0:	1afffd5e 	bne	b50 <_vfiprintf_r+0xbc>
    15d4:	e1a0500b 	mov	r5, r11
    15d8:	eafffd73 	b	bac <_vfiprintf_r+0x118>
    15dc:	e3530000 	cmp	r3, #0
    15e0:	1a000070 	bne	17a8 <_vfiprintf_r+0xd14>
    15e4:	e3160001 	tst	r6, #1
    15e8:	0a0000cc 	beq	1920 <_vfiprintf_r+0xe8c>
    15ec:	e59d703c 	ldr	r7, [sp, #60]	; 0x3c
    15f0:	e58d7008 	str	r7, [sp, #8]
    15f4:	e59d7030 	ldr	r7, [sp, #48]	; 0x30
    15f8:	e3a03030 	mov	r3, #48	; 0x30
    15fc:	e5cd307f 	strb	r3, [sp, #127]	; 0x7f
    1600:	e58d7024 	str	r7, [sp, #36]	; 0x24
    1604:	e58dc010 	str	r12, [sp, #16]
    1608:	e59d7008 	ldr	r7, [sp, #8]
    160c:	e59dc010 	ldr	r12, [sp, #16]
    1610:	e157000c 	cmp	r7, r12
    1614:	b1a0700c 	movlt	r7, r12
    1618:	e3550000 	cmp	r5, #0
    161c:	e58d7004 	str	r7, [sp, #4]
    1620:	12877001 	addne	r7, r7, #1
    1624:	158d7004 	strne	r7, [sp, #4]
    1628:	eafffe8b 	b	105c <_vfiprintf_r+0x5c8>
    162c:	e59d3054 	ldr	r3, [sp, #84]	; 0x54
    1630:	e3530000 	cmp	r3, #0
    1634:	0a000004 	beq	164c <_vfiprintf_r+0xbb8>
    1638:	e59d0014 	ldr	r0, [sp, #20]
    163c:	e1a0100a 	mov	r1, r10
    1640:	e28d204c 	add	r2, sp, #76	; 0x4c
    1644:	e28db058 	add	r11, sp, #88	; 0x58
    1648:	ebfffce2 	bl	9d8 <__sprint_r>
    164c:	e1da30bc 	ldrh	r3, [r10, #12]
    1650:	e3130040 	tst	r3, #64	; 0x40
    1654:	0a000001 	beq	1660 <_vfiprintf_r+0xbcc>
    1658:	e3e06000 	mvn	r6, #0
    165c:	e58d600c 	str	r6, [sp, #12]
    1660:	e59d000c 	ldr	r0, [sp, #12]
    1664:	e28dd0ec 	add	sp, sp, #236	; 0xec
    1668:	e28ddb01 	add	sp, sp, #1024	; 0x400
    166c:	e8bd4ff0 	pop	{r4, r5, r6, r7, r8, r9, r10, r11, lr}
    1670:	e12fff1e 	bx	lr
    1674:	e59d5018 	ldr	r5, [sp, #24]
    1678:	e59d7004 	ldr	r7, [sp, #4]
    167c:	e0678005 	rsb	r8, r7, r5
    1680:	e3580000 	cmp	r8, #0
    1684:	daffff49 	ble	13b0 <_vfiprintf_r+0x91c>
    1688:	e3580010 	cmp	r8, #16
    168c:	e59f55d0 	ldr	r5, [pc, #1488]	; 1c64 <_vfiprintf_r+0x11d0>
    1690:	da000021 	ble	171c <_vfiprintf_r+0xc88>
    1694:	e28d704c 	add	r7, sp, #76	; 0x4c
    1698:	e58d6020 	str	r6, [sp, #32]
    169c:	e3a09010 	mov	r9, #16
    16a0:	e1a06005 	mov	r6, r5
    16a4:	e1a03002 	mov	r3, r2
    16a8:	e1a05007 	mov	r5, r7
    16ac:	e59d7014 	ldr	r7, [sp, #20]
    16b0:	ea000002 	b	16c0 <_vfiprintf_r+0xc2c>
    16b4:	e2488010 	sub	r8, r8, #16
    16b8:	e3580010 	cmp	r8, #16
    16bc:	da000013 	ble	1710 <_vfiprintf_r+0xc7c>
    16c0:	e2833001 	add	r3, r3, #1
    16c4:	e2811010 	add	r1, r1, #16
    16c8:	e3530007 	cmp	r3, #7
    16cc:	e8840240 	stm	r4, {r6, r9}
    16d0:	e58d1054 	str	r1, [sp, #84]	; 0x54
    16d4:	e58d3050 	str	r3, [sp, #80]	; 0x50
    16d8:	d2844008 	addle	r4, r4, #8
    16dc:	dafffff4 	ble	16b4 <_vfiprintf_r+0xc20>
    16e0:	e1a00007 	mov	r0, r7
    16e4:	e1a0100a 	mov	r1, r10
    16e8:	e1a02005 	mov	r2, r5
    16ec:	ebfffcb9 	bl	9d8 <__sprint_r>
    16f0:	e3500000 	cmp	r0, #0
    16f4:	1affffd4 	bne	164c <_vfiprintf_r+0xbb8>
    16f8:	e2488010 	sub	r8, r8, #16
    16fc:	e3580010 	cmp	r8, #16
    1700:	e59d1054 	ldr	r1, [sp, #84]	; 0x54
    1704:	e59d3050 	ldr	r3, [sp, #80]	; 0x50
    1708:	e28d40e8 	add	r4, sp, #232	; 0xe8
    170c:	caffffeb 	bgt	16c0 <_vfiprintf_r+0xc2c>
    1710:	e1a05006 	mov	r5, r6
    1714:	e59d6020 	ldr	r6, [sp, #32]
    1718:	e1a02003 	mov	r2, r3
    171c:	e2822001 	add	r2, r2, #1
    1720:	e0811008 	add	r1, r1, r8
    1724:	e3520007 	cmp	r2, #7
    1728:	e8840120 	stm	r4, {r5, r8}
    172c:	e58d1054 	str	r1, [sp, #84]	; 0x54
    1730:	e58d2050 	str	r2, [sp, #80]	; 0x50
    1734:	d2844008 	addle	r4, r4, #8
    1738:	daffff1c 	ble	13b0 <_vfiprintf_r+0x91c>
    173c:	e59d0014 	ldr	r0, [sp, #20]
    1740:	e1a0100a 	mov	r1, r10
    1744:	e28d204c 	add	r2, sp, #76	; 0x4c
    1748:	ebfffca2 	bl	9d8 <__sprint_r>
    174c:	e3500000 	cmp	r0, #0
    1750:	1affffbd 	bne	164c <_vfiprintf_r+0xbb8>
    1754:	e59d1054 	ldr	r1, [sp, #84]	; 0x54
    1758:	e59d2050 	ldr	r2, [sp, #80]	; 0x50
    175c:	e28d40e8 	add	r4, sp, #232	; 0xe8
    1760:	eaffff12 	b	13b0 <_vfiprintf_r+0x91c>
    1764:	e59d0014 	ldr	r0, [sp, #20]
    1768:	e1a0100a 	mov	r1, r10
    176c:	e28d204c 	add	r2, sp, #76	; 0x4c
    1770:	ebfffc98 	bl	9d8 <__sprint_r>
    1774:	e3500000 	cmp	r0, #0
    1778:	1affffb3 	bne	164c <_vfiprintf_r+0xbb8>
    177c:	e59d1054 	ldr	r1, [sp, #84]	; 0x54
    1780:	e28d40e8 	add	r4, sp, #232	; 0xe8
    1784:	eaffff4f 	b	14c8 <_vfiprintf_r+0xa34>
    1788:	e59d0014 	ldr	r0, [sp, #20]
    178c:	e1a0100a 	mov	r1, r10
    1790:	e28d204c 	add	r2, sp, #76	; 0x4c
    1794:	ebfffc8f 	bl	9d8 <__sprint_r>
    1798:	e3500000 	cmp	r0, #0
    179c:	e28d7058 	add	r7, sp, #88	; 0x58
    17a0:	0affff84 	beq	15b8 <_vfiprintf_r+0xb24>
    17a4:	eaffffa8 	b	164c <_vfiprintf_r+0xbb8>
    17a8:	e59d702c 	ldr	r7, [sp, #44]	; 0x2c
    17ac:	e58d2008 	str	r2, [sp, #8]
    17b0:	e58d7024 	str	r7, [sp, #36]	; 0x24
    17b4:	eaffff92 	b	1604 <_vfiprintf_r+0xb70>
    17b8:	e59d0014 	ldr	r0, [sp, #20]
    17bc:	e1a0100a 	mov	r1, r10
    17c0:	eb000135 	bl	1c9c <__swsetup_r>
    17c4:	e3500000 	cmp	r0, #0
    17c8:	01da80bc 	ldrheq	r8, [r10, #12]
    17cc:	1affffa1 	bne	1658 <_vfiprintf_r+0xbc4>
    17d0:	e208301a 	and	r3, r8, #26
    17d4:	e353000a 	cmp	r3, #10
    17d8:	1afffcc9 	bne	b04 <_vfiprintf_r+0x70>
    17dc:	e1dac0be 	ldrh	r12, [r10, #14]
    17e0:	e31c0902 	tst	r12, #32768	; 0x8000
    17e4:	1afffcc6 	bne	b04 <_vfiprintf_r+0x70>
    17e8:	e1a02004 	mov	r2, r4
    17ec:	e28dbe4e 	add	r11, sp, #1248	; 0x4e0
    17f0:	e59f4470 	ldr	r4, [pc, #1136]	; 1c68 <_vfiprintf_r+0x11d4>
    17f4:	e28bb008 	add	r11, r11, #8
    17f8:	e3c88002 	bic	r8, r8, #2
    17fc:	e18b80b4 	strh	r8, [r11, r4]
    1800:	e59a7064 	ldr	r7, [r10, #100]	; 0x64
    1804:	e59a601c 	ldr	r6, [r10, #28]
    1808:	e59a9024 	ldr	r9, [r10, #36]	; 0x24
    180c:	e2844002 	add	r4, r4, #2
    1810:	e3a0eb01 	mov	lr, #1024	; 0x400
    1814:	e28d50e8 	add	r5, sp, #232	; 0xe8
    1818:	e18bc0b4 	strh	r12, [r11, r4]
    181c:	e59d0014 	ldr	r0, [sp, #20]
    1820:	e3a0c000 	mov	r12, #0
    1824:	e28d1080 	add	r1, sp, #128	; 0x80
    1828:	e59d301c 	ldr	r3, [sp, #28]
    182c:	e58d70e4 	str	r7, [sp, #228]	; 0xe4
    1830:	e58d609c 	str	r6, [sp, #156]	; 0x9c
    1834:	e58d90a4 	str	r9, [sp, #164]	; 0xa4
    1838:	e58d5080 	str	r5, [sp, #128]	; 0x80
    183c:	e58d5090 	str	r5, [sp, #144]	; 0x90
    1840:	e58de088 	str	lr, [sp, #136]	; 0x88
    1844:	e58de094 	str	lr, [sp, #148]	; 0x94
    1848:	e58dc098 	str	r12, [sp, #152]	; 0x98
    184c:	ebfffc90 	bl	a94 <_vfiprintf_r>
    1850:	e3500000 	cmp	r0, #0
    1854:	e58d000c 	str	r0, [sp, #12]
    1858:	ba000006 	blt	1878 <_vfiprintf_r+0xde4>
    185c:	e59d0014 	ldr	r0, [sp, #20]
    1860:	e28d1080 	add	r1, sp, #128	; 0x80
    1864:	eb000204 	bl	207c <_fflush_r>
    1868:	e59dc00c 	ldr	r12, [sp, #12]
    186c:	e3500000 	cmp	r0, #0
    1870:	13e0c000 	mvnne	r12, #0
    1874:	e58dc00c 	str	r12, [sp, #12]
    1878:	e59f33e8 	ldr	r3, [pc, #1000]	; 1c68 <_vfiprintf_r+0x11d4>
    187c:	e28d0e4e 	add	r0, sp, #1248	; 0x4e0
    1880:	e2800008 	add	r0, r0, #8
    1884:	e19030b3 	ldrh	r3, [r0, r3]
    1888:	e3130040 	tst	r3, #64	; 0x40
    188c:	11da30bc 	ldrhne	r3, [r10, #12]
    1890:	13833040 	orrne	r3, r3, #64	; 0x40
    1894:	11ca30bc 	strhne	r3, [r10, #12]
    1898:	eaffff70 	b	1660 <_vfiprintf_r+0xbcc>
    189c:	e59d0014 	ldr	r0, [sp, #20]
    18a0:	e1a0100a 	mov	r1, r10
    18a4:	e28d204c 	add	r2, sp, #76	; 0x4c
    18a8:	ebfffc4a 	bl	9d8 <__sprint_r>
    18ac:	e3500000 	cmp	r0, #0
    18b0:	e28d7058 	add	r7, sp, #88	; 0x58
    18b4:	1affff64 	bne	164c <_vfiprintf_r+0xbb8>
    18b8:	e28d40e8 	add	r4, sp, #232	; 0xe8
    18bc:	eafffcb7 	b	ba0 <_vfiprintf_r+0x10c>
    18c0:	e59d0014 	ldr	r0, [sp, #20]
    18c4:	e1a0100a 	mov	r1, r10
    18c8:	e28d204c 	add	r2, sp, #76	; 0x4c
    18cc:	ebfffc41 	bl	9d8 <__sprint_r>
    18d0:	e3500000 	cmp	r0, #0
    18d4:	e28d7058 	add	r7, sp, #88	; 0x58
    18d8:	1affff5b 	bne	164c <_vfiprintf_r+0xbb8>
    18dc:	e59d1054 	ldr	r1, [sp, #84]	; 0x54
    18e0:	e59d2050 	ldr	r2, [sp, #80]	; 0x50
    18e4:	e28d40e8 	add	r4, sp, #232	; 0xe8
    18e8:	eafffead 	b	13a4 <_vfiprintf_r+0x910>
    18ec:	e59d0014 	ldr	r0, [sp, #20]
    18f0:	e1a0100a 	mov	r1, r10
    18f4:	e28d204c 	add	r2, sp, #76	; 0x4c
    18f8:	ebfffc36 	bl	9d8 <__sprint_r>
    18fc:	e3500000 	cmp	r0, #0
    1900:	e28d4058 	add	r4, sp, #88	; 0x58
    1904:	1affff50 	bne	164c <_vfiprintf_r+0xbb8>
    1908:	e59d1054 	ldr	r1, [sp, #84]	; 0x54
    190c:	e59d2050 	ldr	r2, [sp, #80]	; 0x50
    1910:	e28d40e8 	add	r4, sp, #232	; 0xe8
    1914:	eafffe94 	b	136c <_vfiprintf_r+0x8d8>
    1918:	eb0002b1 	bl	23e4 <__sinit>
    191c:	eafffc69 	b	ac8 <_vfiprintf_r+0x34>
    1920:	e59d702c 	ldr	r7, [sp, #44]	; 0x2c
    1924:	e58d3008 	str	r3, [sp, #8]
    1928:	e58d7024 	str	r7, [sp, #36]	; 0x24
    192c:	eaffff34 	b	1604 <_vfiprintf_r+0xb70>
    1930:	e58d4004 	str	r4, [sp, #4]
    1934:	e59d7034 	ldr	r7, [sp, #52]	; 0x34
    1938:	e58d5008 	str	r5, [sp, #8]
    193c:	e3a0400f 	mov	r4, #15
    1940:	e1a01228 	lsr	r1, r8, #4
    1944:	e0082004 	and	r2, r8, r4
    1948:	e1811e09 	orr	r1, r1, r9, lsl #28
    194c:	e1a03229 	lsr	r3, r9, #4
    1950:	e0872002 	add	r2, r7, r2
    1954:	e1a09003 	mov	r9, r3
    1958:	e1a08001 	mov	r8, r1
    195c:	e5d22000 	ldrb	r2, [r2]
    1960:	e1985009 	orrs	r5, r8, r9
    1964:	e1a03000 	mov	r3, r0
    1968:	e5c02000 	strb	r2, [r0]
    196c:	e2400001 	sub	r0, r0, #1
    1970:	1afffff1 	bne	193c <_vfiprintf_r+0xea8>
    1974:	e59d702c 	ldr	r7, [sp, #44]	; 0x2c
    1978:	e0637007 	rsb	r7, r3, r7
    197c:	e99d0030 	ldmib	sp, {r4, r5}
    1980:	e58d3024 	str	r3, [sp, #36]	; 0x24
    1984:	e58d7008 	str	r7, [sp, #8]
    1988:	eaffff1d 	b	1604 <_vfiprintf_r+0xb70>
    198c:	e3590000 	cmp	r9, #0
    1990:	03580009 	cmpeq	r8, #9
    1994:	9a00004a 	bls	1ac4 <_vfiprintf_r+0x1030>
    1998:	e59d7030 	ldr	r7, [sp, #48]	; 0x30
    199c:	e98d1010 	stmib	sp, {r4, r12}
    19a0:	e1a04007 	mov	r4, r7
    19a4:	e1a00008 	mov	r0, r8
    19a8:	e1a01009 	mov	r1, r9
    19ac:	e3a0200a 	mov	r2, #10
    19b0:	e3a03000 	mov	r3, #0
    19b4:	eb000e35 	bl	5290 <__aeabi_uldivmod>
    19b8:	e2822030 	add	r2, r2, #48	; 0x30
    19bc:	e5c42000 	strb	r2, [r4]
    19c0:	e1a00008 	mov	r0, r8
    19c4:	e1a01009 	mov	r1, r9
    19c8:	e3a0200a 	mov	r2, #10
    19cc:	e3a03000 	mov	r3, #0
    19d0:	eb000e2e 	bl	5290 <__aeabi_uldivmod>
    19d4:	e1a08000 	mov	r8, r0
    19d8:	e1a09001 	mov	r9, r1
    19dc:	e198c009 	orrs	r12, r8, r9
    19e0:	e1a07004 	mov	r7, r4
    19e4:	e2444001 	sub	r4, r4, #1
    19e8:	1affffed 	bne	19a4 <_vfiprintf_r+0xf10>
    19ec:	e59d302c 	ldr	r3, [sp, #44]	; 0x2c
    19f0:	e0673003 	rsb	r3, r7, r3
    19f4:	e99d1010 	ldmib	sp, {r4, r12}
    19f8:	e58d7024 	str	r7, [sp, #36]	; 0x24
    19fc:	e58d3008 	str	r3, [sp, #8]
    1a00:	eafffeff 	b	1604 <_vfiprintf_r+0xb70>
    1a04:	e3160010 	tst	r6, #16
    1a08:	1a000038 	bne	1af0 <_vfiprintf_r+0x105c>
    1a0c:	e3160040 	tst	r6, #64	; 0x40
    1a10:	0a000036 	beq	1af0 <_vfiprintf_r+0x105c>
    1a14:	e59d701c 	ldr	r7, [sp, #28]
    1a18:	e1d720b0 	ldrh	r2, [r7]
    1a1c:	e3a09000 	mov	r9, #0
    1a20:	e1a08002 	mov	r8, r2
    1a24:	e2877004 	add	r7, r7, #4
    1a28:	e0522009 	subs	r2, r2, r9
    1a2c:	13a02001 	movne	r2, #1
    1a30:	e58d701c 	str	r7, [sp, #28]
    1a34:	e3a03001 	mov	r3, #1
    1a38:	eafffcd1 	b	d84 <_vfiprintf_r+0x2f0>
    1a3c:	e2161010 	ands	r1, r6, #16
    1a40:	1a000034 	bne	1b18 <_vfiprintf_r+0x1084>
    1a44:	e2163040 	ands	r3, r6, #64	; 0x40
    1a48:	0a000032 	beq	1b18 <_vfiprintf_r+0x1084>
    1a4c:	e59d701c 	ldr	r7, [sp, #28]
    1a50:	e1d720b0 	ldrh	r2, [r7]
    1a54:	e3a09000 	mov	r9, #0
    1a58:	e1a08002 	mov	r8, r2
    1a5c:	e2877004 	add	r7, r7, #4
    1a60:	e0522009 	subs	r2, r2, r9
    1a64:	13a02001 	movne	r2, #1
    1a68:	e58d701c 	str	r7, [sp, #28]
    1a6c:	e1a03001 	mov	r3, r1
    1a70:	eafffcc3 	b	d84 <_vfiprintf_r+0x2f0>
    1a74:	e1980009 	orrs	r0, r8, r9
    1a78:	13a02030 	movne	r2, #48	; 0x30
    1a7c:	15cd2048 	strbne	r2, [sp, #72]	; 0x48
    1a80:	15cd3049 	strbne	r3, [sp, #73]	; 0x49
    1a84:	13866002 	orrne	r6, r6, #2
    1a88:	13a02001 	movne	r2, #1
    1a8c:	03a02000 	moveq	r2, #0
    1a90:	e3a03002 	mov	r3, #2
    1a94:	eafffcba 	b	d84 <_vfiprintf_r+0x2f0>
    1a98:	e5db3000 	ldrb	r3, [r11]
    1a9c:	e58d201c 	str	r2, [sp, #28]
    1aa0:	eafffc4c 	b	bd8 <_vfiprintf_r+0x144>
    1aa4:	e59d0014 	ldr	r0, [sp, #20]
    1aa8:	e1a0100a 	mov	r1, r10
    1aac:	e28d204c 	add	r2, sp, #76	; 0x4c
    1ab0:	ebfffbc8 	bl	9d8 <__sprint_r>
    1ab4:	e3500000 	cmp	r0, #0
    1ab8:	1afffee3 	bne	164c <_vfiprintf_r+0xbb8>
    1abc:	e59d1054 	ldr	r1, [sp, #84]	; 0x54
    1ac0:	eafffeb3 	b	1594 <_vfiprintf_r+0xb00>
    1ac4:	e59d703c 	ldr	r7, [sp, #60]	; 0x3c
    1ac8:	e58d7008 	str	r7, [sp, #8]
    1acc:	e59d7030 	ldr	r7, [sp, #48]	; 0x30
    1ad0:	e2888030 	add	r8, r8, #48	; 0x30
    1ad4:	e5cd807f 	strb	r8, [sp, #127]	; 0x7f
    1ad8:	e58d7024 	str	r7, [sp, #36]	; 0x24
    1adc:	eafffec8 	b	1604 <_vfiprintf_r+0xb70>
    1ae0:	e59d702c 	ldr	r7, [sp, #44]	; 0x2c
    1ae4:	e0633007 	rsb	r3, r3, r7
    1ae8:	e58d3008 	str	r3, [sp, #8]
    1aec:	eafffec4 	b	1604 <_vfiprintf_r+0xb70>
    1af0:	e59d501c 	ldr	r5, [sp, #28]
    1af4:	e5952000 	ldr	r2, [r5]
    1af8:	e3a09000 	mov	r9, #0
    1afc:	e1a08002 	mov	r8, r2
    1b00:	e2855004 	add	r5, r5, #4
    1b04:	e0522009 	subs	r2, r2, r9
    1b08:	13a02001 	movne	r2, #1
    1b0c:	e58d501c 	str	r5, [sp, #28]
    1b10:	e3a03001 	mov	r3, #1
    1b14:	eafffc9a 	b	d84 <_vfiprintf_r+0x2f0>
    1b18:	e59d501c 	ldr	r5, [sp, #28]
    1b1c:	e5952000 	ldr	r2, [r5]
    1b20:	e3a09000 	mov	r9, #0
    1b24:	e1a08002 	mov	r8, r2
    1b28:	e2855004 	add	r5, r5, #4
    1b2c:	e0522009 	subs	r2, r2, r9
    1b30:	13a02001 	movne	r2, #1
    1b34:	e58d501c 	str	r5, [sp, #28]
    1b38:	eafffc91 	b	d84 <_vfiprintf_r+0x2f0>
    1b3c:	e59d501c 	ldr	r5, [sp, #28]
    1b40:	e5952000 	ldr	r2, [r5]
    1b44:	e2855004 	add	r5, r5, #4
    1b48:	e1a08002 	mov	r8, r2
    1b4c:	e3a09000 	mov	r9, #0
    1b50:	e58d501c 	str	r5, [sp, #28]
    1b54:	eafffd94 	b	11ac <_vfiprintf_r+0x718>
    1b58:	e59d701c 	ldr	r7, [sp, #28]
    1b5c:	e5973000 	ldr	r3, [r7]
    1b60:	e1a09fc3 	asr	r9, r3, #31
    1b64:	e1a02003 	mov	r2, r3
    1b68:	e1a08003 	mov	r8, r3
    1b6c:	e1a03009 	mov	r3, r9
    1b70:	e2877004 	add	r7, r7, #4
    1b74:	e3520000 	cmp	r2, #0
    1b78:	e2d30000 	sbcs	r0, r3, #0
    1b7c:	e58d701c 	str	r7, [sp, #28]
    1b80:	aafffd20 	bge	1008 <_vfiprintf_r+0x574>
    1b84:	e2788000 	rsbs	r8, r8, #0
    1b88:	e2e99000 	rsc	r9, r9, #0
    1b8c:	e3a0502d 	mov	r5, #45	; 0x2d
    1b90:	e1982009 	orrs	r2, r8, r9
    1b94:	e5cd5047 	strb	r5, [sp, #71]	; 0x47
    1b98:	03a02000 	moveq	r2, #0
    1b9c:	13a02001 	movne	r2, #1
    1ba0:	e3a03001 	mov	r3, #1
    1ba4:	eafffc78 	b	d8c <_vfiprintf_r+0x2f8>
    1ba8:	e59d501c 	ldr	r5, [sp, #28]
    1bac:	e59d200c 	ldr	r2, [sp, #12]
    1bb0:	e5953000 	ldr	r3, [r5]
    1bb4:	e1a01fc2 	asr	r1, r2, #31
    1bb8:	e2855004 	add	r5, r5, #4
    1bbc:	e5832000 	str	r2, [r3]
    1bc0:	e5831004 	str	r1, [r3, #4]
    1bc4:	e58d501c 	str	r5, [sp, #28]
    1bc8:	eafffbdc 	b	b40 <_vfiprintf_r+0xac>
    1bcc:	e59d601c 	ldr	r6, [sp, #28]
    1bd0:	e59d700c 	ldr	r7, [sp, #12]
    1bd4:	e5963000 	ldr	r3, [r6]
    1bd8:	e2866004 	add	r6, r6, #4
    1bdc:	e58d601c 	str	r6, [sp, #28]
    1be0:	e5837000 	str	r7, [r3]
    1be4:	eafffbd5 	b	b40 <_vfiprintf_r+0xac>
    1be8:	eb000bc6 	bl	4b08 <strlen>
    1bec:	e5dd5047 	ldrb	r5, [sp, #71]	; 0x47
    1bf0:	e58d0008 	str	r0, [sp, #8]
    1bf4:	e58d801c 	str	r8, [sp, #28]
    1bf8:	eafffce7 	b	f9c <_vfiprintf_r+0x508>
    1bfc:	e35c0006 	cmp	r12, #6
    1c00:	23a0c006 	movcs	r12, #6
    1c04:	e1cc7fcc 	bic	r7, r12, r12, asr #31
    1c08:	e58dc008 	str	r12, [sp, #8]
    1c0c:	e59fc058 	ldr	r12, [pc, #88]	; 1c6c <_vfiprintf_r+0x11d8>
    1c10:	e58d7004 	str	r7, [sp, #4]
    1c14:	e58d801c 	str	r8, [sp, #28]
    1c18:	e58dc024 	str	r12, [sp, #36]	; 0x24
    1c1c:	eafffd0c 	b	1054 <_vfiprintf_r+0x5c0>
    1c20:	e5dd5047 	ldrb	r5, [sp, #71]	; 0x47
    1c24:	e58d801c 	str	r8, [sp, #28]
    1c28:	e58dc008 	str	r12, [sp, #8]
    1c2c:	e58d0010 	str	r0, [sp, #16]
    1c30:	eafffe74 	b	1608 <_vfiprintf_r+0xb74>
    1c34:	e59d501c 	ldr	r5, [sp, #28]
    1c38:	e595c000 	ldr	r12, [r5]
    1c3c:	e2852004 	add	r2, r5, #4
    1c40:	e35c0000 	cmp	r12, #0
    1c44:	e5db3001 	ldrb	r3, [r11, #1]
    1c48:	e58d201c 	str	r2, [sp, #28]
    1c4c:	e1a0b000 	mov	r11, r0
    1c50:	b3e0c000 	mvnlt	r12, #0
    1c54:	eafffbdf 	b	bd8 <_vfiprintf_r+0x144>
    1c58:	0000e368 	.word	0x0000e368
    1c5c:	0000e334 	.word	0x0000e334
    1c60:	0000e354 	.word	0x0000e354
    1c64:	0000e344 	.word	0x0000e344
    1c68:	fffffba4 	.word	0xfffffba4
    1c6c:	0000e37c 	.word	0x0000e37c

00001c70 <vfiprintf>:
    1c70:	e52d4004 	push	{r4}		; (str r4, [sp, #-4]!)
    1c74:	e1a03002 	mov	r3, r2
    1c78:	e59f2018 	ldr	r2, [pc, #24]	; 1c98 <vfiprintf+0x28>
    1c7c:	e1a04000 	mov	r4, r0
    1c80:	e1a0c001 	mov	r12, r1
    1c84:	e5920000 	ldr	r0, [r2]
    1c88:	e1a01004 	mov	r1, r4
    1c8c:	e1a0200c 	mov	r2, r12
    1c90:	e8bd0010 	ldmfd	sp!, {r4}
    1c94:	eafffb7e 	b	a94 <_vfiprintf_r>
    1c98:	0000e3f0 	.word	0x0000e3f0

00001c9c <__swsetup_r>:
    1c9c:	e92d4038 	push	{r3, r4, r5, lr}
    1ca0:	e59f3128 	ldr	r3, [pc, #296]	; 1dd0 <__swsetup_r+0x134>
    1ca4:	e5933000 	ldr	r3, [r3]
    1ca8:	e3530000 	cmp	r3, #0
    1cac:	e1a05000 	mov	r5, r0
    1cb0:	e1a04001 	mov	r4, r1
    1cb4:	0a000002 	beq	1cc4 <__swsetup_r+0x28>
    1cb8:	e5932038 	ldr	r2, [r3, #56]	; 0x38
    1cbc:	e3520000 	cmp	r2, #0
    1cc0:	0a00002e 	beq	1d80 <__swsetup_r+0xe4>
    1cc4:	e1d430bc 	ldrh	r3, [r4, #12]
    1cc8:	e3130008 	tst	r3, #8
    1ccc:	e1a02003 	mov	r2, r3
    1cd0:	0a00000c 	beq	1d08 <__swsetup_r+0x6c>
    1cd4:	e5942010 	ldr	r2, [r4, #16]
    1cd8:	e3520000 	cmp	r2, #0
    1cdc:	0a000012 	beq	1d2c <__swsetup_r+0x90>
    1ce0:	e2131001 	ands	r1, r3, #1
    1ce4:	1a000019 	bne	1d50 <__swsetup_r+0xb4>
    1ce8:	e3130002 	tst	r3, #2
    1cec:	05941014 	ldreq	r1, [r4, #20]
    1cf0:	e3520000 	cmp	r2, #0
    1cf4:	e5841008 	str	r1, [r4, #8]
    1cf8:	0a00001b 	beq	1d6c <__swsetup_r+0xd0>
    1cfc:	e3a00000 	mov	r0, #0
    1d00:	e8bd4038 	pop	{r3, r4, r5, lr}
    1d04:	e12fff1e 	bx	lr
    1d08:	e3130010 	tst	r3, #16
    1d0c:	0a000019 	beq	1d78 <__swsetup_r+0xdc>
    1d10:	e3120004 	tst	r2, #4
    1d14:	1a00001c 	bne	1d8c <__swsetup_r+0xf0>
    1d18:	e5942010 	ldr	r2, [r4, #16]
    1d1c:	e3833008 	orr	r3, r3, #8
    1d20:	e3520000 	cmp	r2, #0
    1d24:	e1c430bc 	strh	r3, [r4, #12]
    1d28:	1affffec 	bne	1ce0 <__swsetup_r+0x44>
    1d2c:	e2031d0a 	and	r1, r3, #640	; 0x280
    1d30:	e3510c02 	cmp	r1, #512	; 0x200
    1d34:	0affffe9 	beq	1ce0 <__swsetup_r+0x44>
    1d38:	e1a00005 	mov	r0, r5
    1d3c:	e1a01004 	mov	r1, r4
    1d40:	eb000515 	bl	319c <__smakebuf_r>
    1d44:	e1d430bc 	ldrh	r3, [r4, #12]
    1d48:	e5942010 	ldr	r2, [r4, #16]
    1d4c:	eaffffe3 	b	1ce0 <__swsetup_r+0x44>
    1d50:	e5943014 	ldr	r3, [r4, #20]
    1d54:	e3a01000 	mov	r1, #0
    1d58:	e2633000 	rsb	r3, r3, #0
    1d5c:	e3520000 	cmp	r2, #0
    1d60:	e5841008 	str	r1, [r4, #8]
    1d64:	e5843018 	str	r3, [r4, #24]
    1d68:	1affffe3 	bne	1cfc <__swsetup_r+0x60>
    1d6c:	e1d430bc 	ldrh	r3, [r4, #12]
    1d70:	e3130080 	tst	r3, #128	; 0x80
    1d74:	0affffe0 	beq	1cfc <__swsetup_r+0x60>
    1d78:	e3e00000 	mvn	r0, #0
    1d7c:	eaffffdf 	b	1d00 <__swsetup_r+0x64>
    1d80:	e1a00003 	mov	r0, r3
    1d84:	eb000196 	bl	23e4 <__sinit>
    1d88:	eaffffcd 	b	1cc4 <__swsetup_r+0x28>
    1d8c:	e5941030 	ldr	r1, [r4, #48]	; 0x30
    1d90:	e3510000 	cmp	r1, #0
    1d94:	0a000007 	beq	1db8 <__swsetup_r+0x11c>
    1d98:	e2842040 	add	r2, r4, #64	; 0x40
    1d9c:	e1510002 	cmp	r1, r2
    1da0:	0a000002 	beq	1db0 <__swsetup_r+0x114>
    1da4:	e1a00005 	mov	r0, r5
    1da8:	eb0002b6 	bl	2888 <_free_r>
    1dac:	e1d430bc 	ldrh	r3, [r4, #12]
    1db0:	e3a02000 	mov	r2, #0
    1db4:	e5842030 	str	r2, [r4, #48]	; 0x30
    1db8:	e5942010 	ldr	r2, [r4, #16]
    1dbc:	e3a01000 	mov	r1, #0
    1dc0:	e3c33024 	bic	r3, r3, #36	; 0x24
    1dc4:	e5841004 	str	r1, [r4, #4]
    1dc8:	e5842000 	str	r2, [r4]
    1dcc:	eaffffd2 	b	1d1c <__swsetup_r+0x80>
    1dd0:	0000e3f0 	.word	0x0000e3f0

00001dd4 <__register_exitproc>:
    1dd4:	e59fc0e4 	ldr	r12, [pc, #228]	; 1ec0 <__register_exitproc+0xec>
    1dd8:	e92d41f0 	push	{r4, r5, r6, r7, r8, lr}
    1ddc:	e59c4000 	ldr	r4, [r12]
    1de0:	e594c148 	ldr	r12, [r4, #328]	; 0x148
    1de4:	e35c0000 	cmp	r12, #0
    1de8:	0284cf53 	addeq	r12, r4, #332	; 0x14c
    1dec:	e59c5004 	ldr	r5, [r12, #4]
    1df0:	0584c148 	streq	r12, [r4, #328]	; 0x148
    1df4:	e355001f 	cmp	r5, #31
    1df8:	e24dd010 	sub	sp, sp, #16
    1dfc:	e1a06000 	mov	r6, r0
    1e00:	da000015 	ble	1e5c <__register_exitproc+0x88>
    1e04:	e59f00b8 	ldr	r0, [pc, #184]	; 1ec4 <__register_exitproc+0xf0>
    1e08:	e3500000 	cmp	r0, #0
    1e0c:	1a000001 	bne	1e18 <__register_exitproc+0x44>
    1e10:	e3e00000 	mvn	r0, #0
    1e14:	ea000018 	b	1e7c <__register_exitproc+0xa8>
    1e18:	e3a00e19 	mov	r0, #400	; 0x190
    1e1c:	e58d100c 	str	r1, [sp, #12]
    1e20:	e58d2008 	str	r2, [sp, #8]
    1e24:	e58d3004 	str	r3, [sp, #4]
    1e28:	e320f000 	nop	{0}
    1e2c:	e250c000 	subs	r12, r0, #0
    1e30:	e59d100c 	ldr	r1, [sp, #12]
    1e34:	e59d2008 	ldr	r2, [sp, #8]
    1e38:	e59d3004 	ldr	r3, [sp, #4]
    1e3c:	0afffff3 	beq	1e10 <__register_exitproc+0x3c>
    1e40:	e5945148 	ldr	r5, [r4, #328]	; 0x148
    1e44:	e3a00000 	mov	r0, #0
    1e48:	e58c0004 	str	r0, [r12, #4]
    1e4c:	e58c5000 	str	r5, [r12]
    1e50:	e584c148 	str	r12, [r4, #328]	; 0x148
    1e54:	e58c0188 	str	r0, [r12, #392]	; 0x188
    1e58:	e58c018c 	str	r0, [r12, #396]	; 0x18c
    1e5c:	e3560000 	cmp	r6, #0
    1e60:	e59c4004 	ldr	r4, [r12, #4]
    1e64:	1a000007 	bne	1e88 <__register_exitproc+0xb4>
    1e68:	e2843002 	add	r3, r4, #2
    1e6c:	e2844001 	add	r4, r4, #1
    1e70:	e78c1103 	str	r1, [r12, r3, lsl #2]
    1e74:	e58c4004 	str	r4, [r12, #4]
    1e78:	e3a00000 	mov	r0, #0
    1e7c:	e28dd010 	add	sp, sp, #16
    1e80:	e8bd41f0 	pop	{r4, r5, r6, r7, r8, lr}
    1e84:	e12fff1e 	bx	lr
    1e88:	e3a00001 	mov	r0, #1
    1e8c:	e1a00410 	lsl	r0, r0, r4
    1e90:	e08c8104 	add	r8, r12, r4, lsl #2
    1e94:	e3560002 	cmp	r6, #2
    1e98:	e59c7188 	ldr	r7, [r12, #392]	; 0x188
    1e9c:	e5883108 	str	r3, [r8, #264]	; 0x108
    1ea0:	059c318c 	ldreq	r3, [r12, #396]	; 0x18c
    1ea4:	e1877000 	orr	r7, r7, r0
    1ea8:	01830000 	orreq	r0, r3, r0
    1eac:	e1a05008 	mov	r5, r8
    1eb0:	e5882088 	str	r2, [r8, #136]	; 0x88
    1eb4:	e58c7188 	str	r7, [r12, #392]	; 0x188
    1eb8:	058c018c 	streq	r0, [r12, #396]	; 0x18c
    1ebc:	eaffffe9 	b	1e68 <__register_exitproc+0x94>
    1ec0:	0000e32c 	.word	0x0000e32c
    1ec4:	00000000 	.word	0x00000000

00001ec8 <__call_exitprocs>:
    1ec8:	e92d4ff0 	push	{r4, r5, r6, r7, r8, r9, r10, r11, lr}
    1ecc:	e59f3168 	ldr	r3, [pc, #360]	; 203c <__call_exitprocs+0x174>
    1ed0:	e5933000 	ldr	r3, [r3]
    1ed4:	e24dd014 	sub	sp, sp, #20
    1ed8:	e58d3004 	str	r3, [sp, #4]
    1edc:	e2833f52 	add	r3, r3, #328	; 0x148
    1ee0:	e58d0008 	str	r0, [sp, #8]
    1ee4:	e58d300c 	str	r3, [sp, #12]
    1ee8:	e1a07001 	mov	r7, r1
    1eec:	e3a08001 	mov	r8, #1
    1ef0:	e59d3004 	ldr	r3, [sp, #4]
    1ef4:	e5936148 	ldr	r6, [r3, #328]	; 0x148
    1ef8:	e3560000 	cmp	r6, #0
    1efc:	e59db00c 	ldr	r11, [sp, #12]
    1f00:	0a000033 	beq	1fd4 <__call_exitprocs+0x10c>
    1f04:	e5965004 	ldr	r5, [r6, #4]
    1f08:	e2554001 	subs	r4, r5, #1
    1f0c:	5286a088 	addpl	r10, r6, #136	; 0x88
    1f10:	5285501f 	addpl	r5, r5, #31
    1f14:	508a5105 	addpl	r5, r10, r5, lsl #2
    1f18:	5a000007 	bpl	1f3c <__call_exitprocs+0x74>
    1f1c:	ea000029 	b	1fc8 <__call_exitprocs+0x100>
    1f20:	e5953000 	ldr	r3, [r5]
    1f24:	e1530007 	cmp	r3, r7
    1f28:	0a000005 	beq	1f44 <__call_exitprocs+0x7c>
    1f2c:	e2444001 	sub	r4, r4, #1
    1f30:	e3740001 	cmn	r4, #1
    1f34:	e2455004 	sub	r5, r5, #4
    1f38:	0a000022 	beq	1fc8 <__call_exitprocs+0x100>
    1f3c:	e3570000 	cmp	r7, #0
    1f40:	1afffff6 	bne	1f20 <__call_exitprocs+0x58>
    1f44:	e5963004 	ldr	r3, [r6, #4]
    1f48:	e06a2005 	rsb	r2, r10, r5
    1f4c:	e2433001 	sub	r3, r3, #1
    1f50:	e0862002 	add	r2, r6, r2
    1f54:	e1530004 	cmp	r3, r4
    1f58:	e5123078 	ldr	r3, [r2, #-120]	; 0xffffff88
    1f5c:	13a01000 	movne	r1, #0
    1f60:	05864004 	streq	r4, [r6, #4]
    1f64:	15021078 	strne	r1, [r2, #-120]	; 0xffffff88
    1f68:	e3530000 	cmp	r3, #0
    1f6c:	0affffee 	beq	1f2c <__call_exitprocs+0x64>
    1f70:	e1a02418 	lsl	r2, r8, r4
    1f74:	e5961188 	ldr	r1, [r6, #392]	; 0x188
    1f78:	e1120001 	tst	r2, r1
    1f7c:	e5969004 	ldr	r9, [r6, #4]
    1f80:	0a000016 	beq	1fe0 <__call_exitprocs+0x118>
    1f84:	e596118c 	ldr	r1, [r6, #396]	; 0x18c
    1f88:	e1120001 	tst	r2, r1
    1f8c:	1a000016 	bne	1fec <__call_exitprocs+0x124>
    1f90:	e59d0008 	ldr	r0, [sp, #8]
    1f94:	e5151080 	ldr	r1, [r5, #-128]	; 0xffffff80
    1f98:	e1a0e00f 	mov	lr, pc
    1f9c:	e12fff13 	bx	r3
    1fa0:	e5963004 	ldr	r3, [r6, #4]
    1fa4:	e1530009 	cmp	r3, r9
    1fa8:	1affffd0 	bne	1ef0 <__call_exitprocs+0x28>
    1fac:	e59b3000 	ldr	r3, [r11]
    1fb0:	e1530006 	cmp	r3, r6
    1fb4:	1affffcd 	bne	1ef0 <__call_exitprocs+0x28>
    1fb8:	e2444001 	sub	r4, r4, #1
    1fbc:	e3740001 	cmn	r4, #1
    1fc0:	e2455004 	sub	r5, r5, #4
    1fc4:	1affffdc 	bne	1f3c <__call_exitprocs+0x74>
    1fc8:	e59f1070 	ldr	r1, [pc, #112]	; 2040 <__call_exitprocs+0x178>
    1fcc:	e3510000 	cmp	r1, #0
    1fd0:	1a000009 	bne	1ffc <__call_exitprocs+0x134>
    1fd4:	e28dd014 	add	sp, sp, #20
    1fd8:	e8bd4ff0 	pop	{r4, r5, r6, r7, r8, r9, r10, r11, lr}
    1fdc:	e12fff1e 	bx	lr
    1fe0:	e1a0e00f 	mov	lr, pc
    1fe4:	e12fff13 	bx	r3
    1fe8:	eaffffec 	b	1fa0 <__call_exitprocs+0xd8>
    1fec:	e5150080 	ldr	r0, [r5, #-128]	; 0xffffff80
    1ff0:	e1a0e00f 	mov	lr, pc
    1ff4:	e12fff13 	bx	r3
    1ff8:	eaffffe8 	b	1fa0 <__call_exitprocs+0xd8>
    1ffc:	e5963004 	ldr	r3, [r6, #4]
    2000:	e3530000 	cmp	r3, #0
    2004:	e5963000 	ldr	r3, [r6]
    2008:	1a000008 	bne	2030 <__call_exitprocs+0x168>
    200c:	e3530000 	cmp	r3, #0
    2010:	0a000006 	beq	2030 <__call_exitprocs+0x168>
    2014:	e1a00006 	mov	r0, r6
    2018:	e58b3000 	str	r3, [r11]
    201c:	e320f000 	nop	{0}
    2020:	e59b6000 	ldr	r6, [r11]
    2024:	e3560000 	cmp	r6, #0
    2028:	1affffb5 	bne	1f04 <__call_exitprocs+0x3c>
    202c:	eaffffe8 	b	1fd4 <__call_exitprocs+0x10c>
    2030:	e1a0b006 	mov	r11, r6
    2034:	e1a06003 	mov	r6, r3
    2038:	eafffff9 	b	2024 <__call_exitprocs+0x15c>
    203c:	0000e32c 	.word	0x0000e32c
    2040:	00000000 	.word	0x00000000

00002044 <register_fini>:
    2044:	e92d4008 	push	{r3, lr}
    2048:	e59f3010 	ldr	r3, [pc, #16]	; 2060 <register_fini+0x1c>
    204c:	e3530000 	cmp	r3, #0
    2050:	159f000c 	ldrne	r0, [pc, #12]	; 2064 <register_fini+0x20>
    2054:	1bfffa2e 	blne	914 <atexit>
    2058:	e8bd4008 	pop	{r3, lr}
    205c:	e12fff1e 	bx	lr
    2060:	0000e3b8 	.word	0x0000e3b8
    2064:	000025ac 	.word	0x000025ac

00002068 <abort>:
    2068:	e92d4008 	push	{r3, lr}
    206c:	e3a00006 	mov	r0, #6
    2070:	eb0009b8 	bl	4758 <raise>
    2074:	e3a00001 	mov	r0, #1
    2078:	eb000f9b 	bl	5eec <_exit>

0000207c <_fflush_r>:
    207c:	e92d40f8 	push	{r3, r4, r5, r6, r7, lr}
    2080:	e2507000 	subs	r7, r0, #0
    2084:	e1a04001 	mov	r4, r1
    2088:	0a000002 	beq	2098 <_fflush_r+0x1c>
    208c:	e5973038 	ldr	r3, [r7, #56]	; 0x38
    2090:	e3530000 	cmp	r3, #0
    2094:	0a000059 	beq	2200 <_fflush_r+0x184>
    2098:	e1d420bc 	ldrh	r2, [r4, #12]
    209c:	e3520000 	cmp	r2, #0
    20a0:	0a000023 	beq	2134 <_fflush_r+0xb8>
    20a4:	e3120008 	tst	r2, #8
    20a8:	0a000024 	beq	2140 <_fflush_r+0xc4>
    20ac:	e5946010 	ldr	r6, [r4, #16]
    20b0:	e3560000 	cmp	r6, #0
    20b4:	0a00001e 	beq	2134 <_fflush_r+0xb8>
    20b8:	e5945000 	ldr	r5, [r4]
    20bc:	e3120003 	tst	r2, #3
    20c0:	05943014 	ldreq	r3, [r4, #20]
    20c4:	e0665005 	rsb	r5, r6, r5
    20c8:	13a03000 	movne	r3, #0
    20cc:	e3550000 	cmp	r5, #0
    20d0:	e5846000 	str	r6, [r4]
    20d4:	e5843008 	str	r3, [r4, #8]
    20d8:	ca000003 	bgt	20ec <_fflush_r+0x70>
    20dc:	ea000014 	b	2134 <_fflush_r+0xb8>
    20e0:	e3550000 	cmp	r5, #0
    20e4:	e0866000 	add	r6, r6, r0
    20e8:	da000011 	ble	2134 <_fflush_r+0xb8>
    20ec:	e1a03005 	mov	r3, r5
    20f0:	e1a02006 	mov	r2, r6
    20f4:	e1a00007 	mov	r0, r7
    20f8:	e594101c 	ldr	r1, [r4, #28]
    20fc:	e594c024 	ldr	r12, [r4, #36]	; 0x24
    2100:	e1a0e00f 	mov	lr, pc
    2104:	e12fff1c 	bx	r12
    2108:	e3500000 	cmp	r0, #0
    210c:	e0605005 	rsb	r5, r0, r5
    2110:	cafffff2 	bgt	20e0 <_fflush_r+0x64>
    2114:	e1d430bc 	ldrh	r3, [r4, #12]
    2118:	e3833040 	orr	r3, r3, #64	; 0x40
    211c:	e1c430bc 	strh	r3, [r4, #12]
    2120:	e3e00000 	mvn	r0, #0
    2124:	ea000003 	b	2138 <_fflush_r+0xbc>
    2128:	e594103c 	ldr	r1, [r4, #60]	; 0x3c
    212c:	e3510000 	cmp	r1, #0
    2130:	ca000007 	bgt	2154 <_fflush_r+0xd8>
    2134:	e3a00000 	mov	r0, #0
    2138:	e8bd40f8 	pop	{r3, r4, r5, r6, r7, lr}
    213c:	e12fff1e 	bx	lr
    2140:	e5941004 	ldr	r1, [r4, #4]
    2144:	e3823b02 	orr	r3, r2, #2048	; 0x800
    2148:	e3510000 	cmp	r1, #0
    214c:	e1c430bc 	strh	r3, [r4, #12]
    2150:	dafffff4 	ble	2128 <_fflush_r+0xac>
    2154:	e594c028 	ldr	r12, [r4, #40]	; 0x28
    2158:	e35c0000 	cmp	r12, #0
    215c:	0afffff4 	beq	2134 <_fflush_r+0xb8>
    2160:	e3a01000 	mov	r1, #0
    2164:	e2126a01 	ands	r6, r2, #4096	; 0x1000
    2168:	e5975000 	ldr	r5, [r7]
    216c:	e5871000 	str	r1, [r7]
    2170:	0a000024 	beq	2208 <_fflush_r+0x18c>
    2174:	e5942050 	ldr	r2, [r4, #80]	; 0x50
    2178:	e3130004 	tst	r3, #4
    217c:	0a000005 	beq	2198 <_fflush_r+0x11c>
    2180:	e5941030 	ldr	r1, [r4, #48]	; 0x30
    2184:	e5943004 	ldr	r3, [r4, #4]
    2188:	e3510000 	cmp	r1, #0
    218c:	e0632002 	rsb	r2, r3, r2
    2190:	1594303c 	ldrne	r3, [r4, #60]	; 0x3c
    2194:	10632002 	rsbne	r2, r3, r2
    2198:	e1a00007 	mov	r0, r7
    219c:	e594101c 	ldr	r1, [r4, #28]
    21a0:	e3a03000 	mov	r3, #0
    21a4:	e1a0e00f 	mov	lr, pc
    21a8:	e12fff1c 	bx	r12
    21ac:	e3700001 	cmn	r0, #1
    21b0:	0a000020 	beq	2238 <_fflush_r+0x1bc>
    21b4:	e1d430bc 	ldrh	r3, [r4, #12]
    21b8:	e5942010 	ldr	r2, [r4, #16]
    21bc:	e3c31b02 	bic	r1, r3, #2048	; 0x800
    21c0:	e3130a01 	tst	r3, #4096	; 0x1000
    21c4:	e3a03000 	mov	r3, #0
    21c8:	e1c410bc 	strh	r1, [r4, #12]
    21cc:	e884000c 	stm	r4, {r2, r3}
    21d0:	1a000028 	bne	2278 <_fflush_r+0x1fc>
    21d4:	e5941030 	ldr	r1, [r4, #48]	; 0x30
    21d8:	e3510000 	cmp	r1, #0
    21dc:	e5875000 	str	r5, [r7]
    21e0:	0affffd3 	beq	2134 <_fflush_r+0xb8>
    21e4:	e2843040 	add	r3, r4, #64	; 0x40
    21e8:	e1510003 	cmp	r1, r3
    21ec:	11a00007 	movne	r0, r7
    21f0:	1b0001a4 	blne	2888 <_free_r>
    21f4:	e3a00000 	mov	r0, #0
    21f8:	e5840030 	str	r0, [r4, #48]	; 0x30
    21fc:	eaffffcd 	b	2138 <_fflush_r+0xbc>
    2200:	eb000077 	bl	23e4 <__sinit>
    2204:	eaffffa3 	b	2098 <_fflush_r+0x1c>
    2208:	e1a02006 	mov	r2, r6
    220c:	e1a00007 	mov	r0, r7
    2210:	e594101c 	ldr	r1, [r4, #28]
    2214:	e3a03001 	mov	r3, #1
    2218:	e1a0e00f 	mov	lr, pc
    221c:	e12fff1c 	bx	r12
    2220:	e3700001 	cmn	r0, #1
    2224:	e1a02000 	mov	r2, r0
    2228:	0a000014 	beq	2280 <_fflush_r+0x204>
    222c:	e1d430bc 	ldrh	r3, [r4, #12]
    2230:	e594c028 	ldr	r12, [r4, #40]	; 0x28
    2234:	eaffffcf 	b	2178 <_fflush_r+0xfc>
    2238:	e597c000 	ldr	r12, [r7]
    223c:	e35c001d 	cmp	r12, #29
    2240:	8affffb3 	bhi	2114 <_fflush_r+0x98>
    2244:	e59f3058 	ldr	r3, [pc, #88]	; 22a4 <_fflush_r+0x228>
    2248:	e1b03c13 	lsls	r3, r3, r12
    224c:	5affffb0 	bpl	2114 <_fflush_r+0x98>
    2250:	e1d430bc 	ldrh	r3, [r4, #12]
    2254:	e5942010 	ldr	r2, [r4, #16]
    2258:	e3c31b02 	bic	r1, r3, #2048	; 0x800
    225c:	e3130a01 	tst	r3, #4096	; 0x1000
    2260:	e3a03000 	mov	r3, #0
    2264:	e1c410bc 	strh	r1, [r4, #12]
    2268:	e884000c 	stm	r4, {r2, r3}
    226c:	0affffd8 	beq	21d4 <_fflush_r+0x158>
    2270:	e35c0000 	cmp	r12, #0
    2274:	1affffd6 	bne	21d4 <_fflush_r+0x158>
    2278:	e5840050 	str	r0, [r4, #80]	; 0x50
    227c:	eaffffd4 	b	21d4 <_fflush_r+0x158>
    2280:	e5973000 	ldr	r3, [r7]
    2284:	e3530000 	cmp	r3, #0
    2288:	0affffe7 	beq	222c <_fflush_r+0x1b0>
    228c:	e353001d 	cmp	r3, #29
    2290:	13530016 	cmpne	r3, #22
    2294:	05875000 	streq	r5, [r7]
    2298:	01a00006 	moveq	r0, r6
    229c:	0affffa5 	beq	2138 <_fflush_r+0xbc>
    22a0:	eaffff9b 	b	2114 <_fflush_r+0x98>
    22a4:	80000204 	.word	0x80000204

000022a8 <fflush>:
    22a8:	e2501000 	subs	r1, r0, #0
    22ac:	e92d4008 	push	{r3, lr}
    22b0:	0a000003 	beq	22c4 <fflush+0x1c>
    22b4:	e59f3020 	ldr	r3, [pc, #32]	; 22dc <fflush+0x34>
    22b8:	e5930000 	ldr	r0, [r3]
    22bc:	e8bd4008 	pop	{r3, lr}
    22c0:	eaffff6d 	b	207c <_fflush_r>
    22c4:	e59f3014 	ldr	r3, [pc, #20]	; 22e0 <fflush+0x38>
    22c8:	e59f1014 	ldr	r1, [pc, #20]	; 22e4 <fflush+0x3c>
    22cc:	e5930000 	ldr	r0, [r3]
    22d0:	eb00035a 	bl	3040 <_fwalk_reent>
    22d4:	e8bd4008 	pop	{r3, lr}
    22d8:	e12fff1e 	bx	lr
    22dc:	0000e3f0 	.word	0x0000e3f0
    22e0:	0000e32c 	.word	0x0000e32c
    22e4:	0000207c 	.word	0x0000207c

000022e8 <__fp_lock>:
    22e8:	e3a00000 	mov	r0, #0
    22ec:	e12fff1e 	bx	lr

000022f0 <__fp_unlock>:
    22f0:	e3a00000 	mov	r0, #0
    22f4:	e12fff1e 	bx	lr

000022f8 <_cleanup_r>:
    22f8:	e92d4008 	push	{r3, lr}
    22fc:	e59f1008 	ldr	r1, [pc, #8]	; 230c <_cleanup_r+0x14>
    2300:	eb00032c 	bl	2fb8 <_fwalk>
    2304:	e8bd4008 	pop	{r3, lr}
    2308:	e12fff1e 	bx	lr
    230c:	00004fdc 	.word	0x00004fdc

00002310 <std.isra.0>:
    2310:	e3a03000 	mov	r3, #0
    2314:	e92d4010 	push	{r4, lr}
    2318:	e1a04000 	mov	r4, r0
    231c:	e1c010bc 	strh	r1, [r0, #12]
    2320:	e1c020be 	strh	r2, [r0, #14]
    2324:	e5803000 	str	r3, [r0]
    2328:	e5803004 	str	r3, [r0, #4]
    232c:	e5803008 	str	r3, [r0, #8]
    2330:	e5803064 	str	r3, [r0, #100]	; 0x64
    2334:	e5803010 	str	r3, [r0, #16]
    2338:	e5803014 	str	r3, [r0, #20]
    233c:	e5803018 	str	r3, [r0, #24]
    2340:	e1a01003 	mov	r1, r3
    2344:	e280005c 	add	r0, r0, #92	; 0x5c
    2348:	e3a02008 	mov	r2, #8
    234c:	eb0006c7 	bl	3e70 <memset>
    2350:	e59f3024 	ldr	r3, [pc, #36]	; 237c <std.isra.0+0x6c>
    2354:	e5843020 	str	r3, [r4, #32]
    2358:	e59f3020 	ldr	r3, [pc, #32]	; 2380 <std.isra.0+0x70>
    235c:	e5843024 	str	r3, [r4, #36]	; 0x24
    2360:	e59f301c 	ldr	r3, [pc, #28]	; 2384 <std.isra.0+0x74>
    2364:	e5843028 	str	r3, [r4, #40]	; 0x28
    2368:	e59f3018 	ldr	r3, [pc, #24]	; 2388 <std.isra.0+0x78>
    236c:	e584401c 	str	r4, [r4, #28]
    2370:	e584302c 	str	r3, [r4, #44]	; 0x2c
    2374:	e8bd4010 	pop	{r4, lr}
    2378:	e12fff1e 	bx	lr
    237c:	000047fc 	.word	0x000047fc
    2380:	00004838 	.word	0x00004838
    2384:	00004890 	.word	0x00004890
    2388:	000048c4 	.word	0x000048c4

0000238c <__sfmoreglue>:
    238c:	e92d4070 	push	{r4, r5, r6, lr}
    2390:	e0816081 	add	r6, r1, r1, lsl #1
    2394:	e0816106 	add	r6, r1, r6, lsl #2
    2398:	e1a06186 	lsl	r6, r6, #3
    239c:	e1a05001 	mov	r5, r1
    23a0:	e286100c 	add	r1, r6, #12
    23a4:	eb0003d3 	bl	32f8 <_malloc_r>
    23a8:	e2504000 	subs	r4, r0, #0
    23ac:	0a000005 	beq	23c8 <__sfmoreglue+0x3c>
    23b0:	e284000c 	add	r0, r4, #12
    23b4:	e3a01000 	mov	r1, #0
    23b8:	e8840022 	stm	r4, {r1, r5}
    23bc:	e5840008 	str	r0, [r4, #8]
    23c0:	e1a02006 	mov	r2, r6
    23c4:	eb0006a9 	bl	3e70 <memset>
    23c8:	e1a00004 	mov	r0, r4
    23cc:	e8bd4070 	pop	{r4, r5, r6, lr}
    23d0:	e12fff1e 	bx	lr

000023d4 <_cleanup>:
    23d4:	e59f3004 	ldr	r3, [pc, #4]	; 23e0 <_cleanup+0xc>
    23d8:	e5930000 	ldr	r0, [r3]
    23dc:	eaffffc5 	b	22f8 <_cleanup_r>
    23e0:	0000e32c 	.word	0x0000e32c

000023e4 <__sinit>:
    23e4:	e92d4038 	push	{r3, r4, r5, lr}
    23e8:	e5903038 	ldr	r3, [r0, #56]	; 0x38
    23ec:	e3530000 	cmp	r3, #0
    23f0:	e1a04000 	mov	r4, r0
    23f4:	0a000001 	beq	2400 <__sinit+0x1c>
    23f8:	e8bd4038 	pop	{r3, r4, r5, lr}
    23fc:	e12fff1e 	bx	lr
    2400:	e59fe050 	ldr	lr, [pc, #80]	; 2458 <__sinit+0x74>
    2404:	e280cfbb 	add	r12, r0, #748	; 0x2ec
    2408:	e3a05001 	mov	r5, #1
    240c:	e1a02003 	mov	r2, r3
    2410:	e58432e0 	str	r3, [r4, #736]	; 0x2e0
    2414:	e3a03003 	mov	r3, #3
    2418:	e584e03c 	str	lr, [r4, #60]	; 0x3c
    241c:	e58432e4 	str	r3, [r4, #740]	; 0x2e4
    2420:	e584c2e8 	str	r12, [r4, #744]	; 0x2e8
    2424:	e5900004 	ldr	r0, [r0, #4]
    2428:	e3a01004 	mov	r1, #4
    242c:	e5845038 	str	r5, [r4, #56]	; 0x38
    2430:	ebffffb6 	bl	2310 <std.isra.0>
    2434:	e5940008 	ldr	r0, [r4, #8]
    2438:	e1a02005 	mov	r2, r5
    243c:	e3a01009 	mov	r1, #9
    2440:	ebffffb2 	bl	2310 <std.isra.0>
    2444:	e594000c 	ldr	r0, [r4, #12]
    2448:	e3a01012 	mov	r1, #18
    244c:	e3a02002 	mov	r2, #2
    2450:	e8bd4038 	pop	{r3, r4, r5, lr}
    2454:	eaffffad 	b	2310 <std.isra.0>
    2458:	000022f8 	.word	0x000022f8

0000245c <__sfp>:
    245c:	e59f30ec 	ldr	r3, [pc, #236]	; 2550 <__sfp+0xf4>
    2460:	e92d4070 	push	{r4, r5, r6, lr}
    2464:	e5935000 	ldr	r5, [r3]
    2468:	e5953038 	ldr	r3, [r5, #56]	; 0x38
    246c:	e3530000 	cmp	r3, #0
    2470:	e1a06000 	mov	r6, r0
    2474:	0a000028 	beq	251c <__sfp+0xc0>
    2478:	e2855e2e 	add	r5, r5, #736	; 0x2e0
    247c:	e5953004 	ldr	r3, [r5, #4]
    2480:	e2533001 	subs	r3, r3, #1
    2484:	e5954008 	ldr	r4, [r5, #8]
    2488:	5a000004 	bpl	24a0 <__sfp+0x44>
    248c:	ea00001d 	b	2508 <__sfp+0xac>
    2490:	e2433001 	sub	r3, r3, #1
    2494:	e3730001 	cmn	r3, #1
    2498:	e2844068 	add	r4, r4, #104	; 0x68
    249c:	0a000019 	beq	2508 <__sfp+0xac>
    24a0:	e1d420fc 	ldrsh	r2, [r4, #12]
    24a4:	e3520000 	cmp	r2, #0
    24a8:	1afffff8 	bne	2490 <__sfp+0x34>
    24ac:	e3e03000 	mvn	r3, #0
    24b0:	e3a05000 	mov	r5, #0
    24b4:	e1c430be 	strh	r3, [r4, #14]
    24b8:	e3a03001 	mov	r3, #1
    24bc:	e1c430bc 	strh	r3, [r4, #12]
    24c0:	e5845064 	str	r5, [r4, #100]	; 0x64
    24c4:	e5845000 	str	r5, [r4]
    24c8:	e5845008 	str	r5, [r4, #8]
    24cc:	e5845004 	str	r5, [r4, #4]
    24d0:	e5845010 	str	r5, [r4, #16]
    24d4:	e5845014 	str	r5, [r4, #20]
    24d8:	e5845018 	str	r5, [r4, #24]
    24dc:	e284005c 	add	r0, r4, #92	; 0x5c
    24e0:	e1a01005 	mov	r1, r5
    24e4:	e3a02008 	mov	r2, #8
    24e8:	eb000660 	bl	3e70 <memset>
    24ec:	e5845030 	str	r5, [r4, #48]	; 0x30
    24f0:	e5845034 	str	r5, [r4, #52]	; 0x34
    24f4:	e5845044 	str	r5, [r4, #68]	; 0x44
    24f8:	e5845048 	str	r5, [r4, #72]	; 0x48
    24fc:	e1a00004 	mov	r0, r4
    2500:	e8bd4070 	pop	{r4, r5, r6, lr}
    2504:	e12fff1e 	bx	lr
    2508:	e5950000 	ldr	r0, [r5]
    250c:	e3500000 	cmp	r0, #0
    2510:	0a000004 	beq	2528 <__sfp+0xcc>
    2514:	e1a05000 	mov	r5, r0
    2518:	eaffffd7 	b	247c <__sfp+0x20>
    251c:	e1a00005 	mov	r0, r5
    2520:	ebffffaf 	bl	23e4 <__sinit>
    2524:	eaffffd3 	b	2478 <__sfp+0x1c>
    2528:	e1a00006 	mov	r0, r6
    252c:	e3a01004 	mov	r1, #4
    2530:	ebffff95 	bl	238c <__sfmoreglue>
    2534:	e3500000 	cmp	r0, #0
    2538:	e5850000 	str	r0, [r5]
    253c:	1afffff4 	bne	2514 <__sfp+0xb8>
    2540:	e3a0300c 	mov	r3, #12
    2544:	e5863000 	str	r3, [r6]
    2548:	e1a04000 	mov	r4, r0
    254c:	eaffffea 	b	24fc <__sfp+0xa0>
    2550:	0000e32c 	.word	0x0000e32c

00002554 <__sfp_lock_acquire>:
    2554:	e12fff1e 	bx	lr

00002558 <__sfp_lock_release>:
    2558:	e12fff1e 	bx	lr

0000255c <__sinit_lock_acquire>:
    255c:	e12fff1e 	bx	lr

00002560 <__sinit_lock_release>:
    2560:	e12fff1e 	bx	lr

00002564 <__fp_lock_all>:
    2564:	e92d4008 	push	{r3, lr}
    2568:	e59f3010 	ldr	r3, [pc, #16]	; 2580 <__fp_lock_all+0x1c>
    256c:	e59f1010 	ldr	r1, [pc, #16]	; 2584 <__fp_lock_all+0x20>
    2570:	e5930000 	ldr	r0, [r3]
    2574:	eb00028f 	bl	2fb8 <_fwalk>
    2578:	e8bd4008 	pop	{r3, lr}
    257c:	e12fff1e 	bx	lr
    2580:	0000e3f0 	.word	0x0000e3f0
    2584:	000022e8 	.word	0x000022e8

00002588 <__fp_unlock_all>:
    2588:	e92d4008 	push	{r3, lr}
    258c:	e59f3010 	ldr	r3, [pc, #16]	; 25a4 <__fp_unlock_all+0x1c>
    2590:	e59f1010 	ldr	r1, [pc, #16]	; 25a8 <__fp_unlock_all+0x20>
    2594:	e5930000 	ldr	r0, [r3]
    2598:	eb000286 	bl	2fb8 <_fwalk>
    259c:	e8bd4008 	pop	{r3, lr}
    25a0:	e12fff1e 	bx	lr
    25a4:	0000e3f0 	.word	0x0000e3f0
    25a8:	000022f0 	.word	0x000022f0

000025ac <__libc_fini_array>:
    25ac:	e92d4038 	push	{r3, r4, r5, lr}
    25b0:	e59f5030 	ldr	r5, [pc, #48]	; 25e8 <__libc_fini_array+0x3c>
    25b4:	e59f4030 	ldr	r4, [pc, #48]	; 25ec <__libc_fini_array+0x40>
    25b8:	e0654004 	rsb	r4, r5, r4
    25bc:	e1b04144 	asrs	r4, r4, #2
    25c0:	10855104 	addne	r5, r5, r4, lsl #2
    25c4:	0a000004 	beq	25dc <__libc_fini_array+0x30>
    25c8:	e5353004 	ldr	r3, [r5, #-4]!
    25cc:	e1a0e00f 	mov	lr, pc
    25d0:	e12fff13 	bx	r3
    25d4:	e2544001 	subs	r4, r4, #1
    25d8:	1afffffa 	bne	25c8 <__libc_fini_array+0x1c>
    25dc:	eb002f75 	bl	e3b8 <__libc_fini>
    25e0:	e8bd4038 	pop	{r3, r4, r5, lr}
    25e4:	e12fff1e 	bx	lr
    25e8:	0000e3d0 	.word	0x0000e3d0
    25ec:	0000e3d4 	.word	0x0000e3d4

000025f0 <_fputwc_r>:
    25f0:	e1d230bc 	ldrh	r3, [r2, #12]
    25f4:	e92d45f0 	push	{r4, r5, r6, r7, r8, r10, lr}
    25f8:	e3130a02 	tst	r3, #8192	; 0x2000
    25fc:	e1a04002 	mov	r4, r2
    2600:	05922064 	ldreq	r2, [r2, #100]	; 0x64
    2604:	03833a02 	orreq	r3, r3, #8192	; 0x2000
    2608:	03822a02 	orreq	r2, r2, #8192	; 0x2000
    260c:	01c430bc 	strheq	r3, [r4, #12]
    2610:	05842064 	streq	r2, [r4, #100]	; 0x64
    2614:	e24dd00c 	sub	sp, sp, #12
    2618:	e1a07000 	mov	r7, r0
    261c:	e1a06001 	mov	r6, r1
    2620:	eb0002c7 	bl	3144 <__locale_mb_cur_max>
    2624:	e3500001 	cmp	r0, #1
    2628:	0a000039 	beq	2714 <_fputwc_r+0x124>
    262c:	e28d8004 	add	r8, sp, #4
    2630:	e1a00007 	mov	r0, r7
    2634:	e1a01008 	mov	r1, r8
    2638:	e1a02006 	mov	r2, r6
    263c:	e284305c 	add	r3, r4, #92	; 0x5c
    2640:	eb00099b 	bl	4cb4 <_wcrtomb_r>
    2644:	e3700001 	cmn	r0, #1
    2648:	e1a0a000 	mov	r10, r0
    264c:	0a000022 	beq	26dc <_fputwc_r+0xec>
    2650:	e3500000 	cmp	r0, #0
    2654:	0a000035 	beq	2730 <_fputwc_r+0x140>
    2658:	e3a05000 	mov	r5, #0
    265c:	ea000008 	b	2684 <_fputwc_r+0x94>
    2660:	e5943000 	ldr	r3, [r4]
    2664:	e7d82005 	ldrb	r2, [r8, r5]
    2668:	e5c32000 	strb	r2, [r3]
    266c:	e5943000 	ldr	r3, [r4]
    2670:	e2833001 	add	r3, r3, #1
    2674:	e5843000 	str	r3, [r4]
    2678:	e2855001 	add	r5, r5, #1
    267c:	e155000a 	cmp	r5, r10
    2680:	2a00002a 	bcs	2730 <_fputwc_r+0x140>
    2684:	e5943008 	ldr	r3, [r4, #8]
    2688:	e2433001 	sub	r3, r3, #1
    268c:	e3530000 	cmp	r3, #0
    2690:	e5843008 	str	r3, [r4, #8]
    2694:	aafffff1 	bge	2660 <_fputwc_r+0x70>
    2698:	e5942018 	ldr	r2, [r4, #24]
    269c:	e1530002 	cmp	r3, r2
    26a0:	ba000013 	blt	26f4 <_fputwc_r+0x104>
    26a4:	e5943000 	ldr	r3, [r4]
    26a8:	e7d82005 	ldrb	r2, [r8, r5]
    26ac:	e5c32000 	strb	r2, [r3]
    26b0:	e5943000 	ldr	r3, [r4]
    26b4:	e5d31000 	ldrb	r1, [r3]
    26b8:	e351000a 	cmp	r1, #10
    26bc:	0a00001d 	beq	2738 <_fputwc_r+0x148>
    26c0:	e2833001 	add	r3, r3, #1
    26c4:	e5843000 	str	r3, [r4]
    26c8:	e3a00000 	mov	r0, #0
    26cc:	e3500000 	cmp	r0, #0
    26d0:	0affffe8 	beq	2678 <_fputwc_r+0x88>
    26d4:	e3e00000 	mvn	r0, #0
    26d8:	ea000002 	b	26e8 <_fputwc_r+0xf8>
    26dc:	e1d430bc 	ldrh	r3, [r4, #12]
    26e0:	e3833040 	orr	r3, r3, #64	; 0x40
    26e4:	e1c430bc 	strh	r3, [r4, #12]
    26e8:	e28dd00c 	add	sp, sp, #12
    26ec:	e8bd45f0 	pop	{r4, r5, r6, r7, r8, r10, lr}
    26f0:	e12fff1e 	bx	lr
    26f4:	e7d81005 	ldrb	r1, [r8, r5]
    26f8:	e1a00007 	mov	r0, r7
    26fc:	e1a02004 	mov	r2, r4
    2700:	eb000918 	bl	4b68 <__swbuf_r>
    2704:	e3700001 	cmn	r0, #1
    2708:	13a00000 	movne	r0, #0
    270c:	03a00001 	moveq	r0, #1
    2710:	eaffffed 	b	26cc <_fputwc_r+0xdc>
    2714:	e2463001 	sub	r3, r6, #1
    2718:	e35300fe 	cmp	r3, #254	; 0xfe
    271c:	8affffc2 	bhi	262c <_fputwc_r+0x3c>
    2720:	e28d8008 	add	r8, sp, #8
    2724:	e5686004 	strb	r6, [r8, #-4]!
    2728:	e1a0a000 	mov	r10, r0
    272c:	eaffffc9 	b	2658 <_fputwc_r+0x68>
    2730:	e1a00006 	mov	r0, r6
    2734:	eaffffeb 	b	26e8 <_fputwc_r+0xf8>
    2738:	e1a00007 	mov	r0, r7
    273c:	eaffffee 	b	26fc <_fputwc_r+0x10c>

00002740 <fputwc>:
    2740:	e92d4070 	push	{r4, r5, r6, lr}
    2744:	e59f403c 	ldr	r4, [pc, #60]	; 2788 <fputwc+0x48>
    2748:	e5943000 	ldr	r3, [r4]
    274c:	e3530000 	cmp	r3, #0
    2750:	e1a06000 	mov	r6, r0
    2754:	e1a05001 	mov	r5, r1
    2758:	0a000005 	beq	2774 <fputwc+0x34>
    275c:	e5932038 	ldr	r2, [r3, #56]	; 0x38
    2760:	e3520000 	cmp	r2, #0
    2764:	1a000002 	bne	2774 <fputwc+0x34>
    2768:	e1a00003 	mov	r0, r3
    276c:	ebffff1c 	bl	23e4 <__sinit>
    2770:	e5943000 	ldr	r3, [r4]
    2774:	e1a00003 	mov	r0, r3
    2778:	e1a01006 	mov	r1, r6
    277c:	e1a02005 	mov	r2, r5
    2780:	e8bd4070 	pop	{r4, r5, r6, lr}
    2784:	eaffff99 	b	25f0 <_fputwc_r>
    2788:	0000e3f0 	.word	0x0000e3f0

0000278c <_malloc_trim_r>:
    278c:	e92d40f8 	push	{r3, r4, r5, r6, r7, lr}
    2790:	e59f50e4 	ldr	r5, [pc, #228]	; 287c <_malloc_trim_r+0xf0>
    2794:	e1a07001 	mov	r7, r1
    2798:	e1a04000 	mov	r4, r0
    279c:	eb000600 	bl	3fa4 <__malloc_lock>
    27a0:	e5953008 	ldr	r3, [r5, #8]
    27a4:	e5936004 	ldr	r6, [r3, #4]
    27a8:	e3c66003 	bic	r6, r6, #3
    27ac:	e2863efe 	add	r3, r6, #4064	; 0xfe0
    27b0:	e283300f 	add	r3, r3, #15
    27b4:	e0677003 	rsb	r7, r7, r3
    27b8:	e1a07627 	lsr	r7, r7, #12
    27bc:	e2477001 	sub	r7, r7, #1
    27c0:	e1a07607 	lsl	r7, r7, #12
    27c4:	e3570a01 	cmp	r7, #4096	; 0x1000
    27c8:	ba000006 	blt	27e8 <_malloc_trim_r+0x5c>
    27cc:	e1a00004 	mov	r0, r4
    27d0:	e3a01000 	mov	r1, #0
    27d4:	eb000751 	bl	4520 <_sbrk_r>
    27d8:	e5953008 	ldr	r3, [r5, #8]
    27dc:	e0833006 	add	r3, r3, r6
    27e0:	e1500003 	cmp	r0, r3
    27e4:	0a000004 	beq	27fc <_malloc_trim_r+0x70>
    27e8:	e1a00004 	mov	r0, r4
    27ec:	eb0005ed 	bl	3fa8 <__malloc_unlock>
    27f0:	e3a00000 	mov	r0, #0
    27f4:	e8bd40f8 	pop	{r3, r4, r5, r6, r7, lr}
    27f8:	e12fff1e 	bx	lr
    27fc:	e1a00004 	mov	r0, r4
    2800:	e2671000 	rsb	r1, r7, #0
    2804:	eb000745 	bl	4520 <_sbrk_r>
    2808:	e3700001 	cmn	r0, #1
    280c:	0a00000b 	beq	2840 <_malloc_trim_r+0xb4>
    2810:	e59f3068 	ldr	r3, [pc, #104]	; 2880 <_malloc_trim_r+0xf4>
    2814:	e5952008 	ldr	r2, [r5, #8]
    2818:	e5931000 	ldr	r1, [r3]
    281c:	e0676006 	rsb	r6, r7, r6
    2820:	e3866001 	orr	r6, r6, #1
    2824:	e0677001 	rsb	r7, r7, r1
    2828:	e1a00004 	mov	r0, r4
    282c:	e5826004 	str	r6, [r2, #4]
    2830:	e5837000 	str	r7, [r3]
    2834:	eb0005db 	bl	3fa8 <__malloc_unlock>
    2838:	e3a00001 	mov	r0, #1
    283c:	eaffffec 	b	27f4 <_malloc_trim_r+0x68>
    2840:	e1a00004 	mov	r0, r4
    2844:	e3a01000 	mov	r1, #0
    2848:	eb000734 	bl	4520 <_sbrk_r>
    284c:	e5953008 	ldr	r3, [r5, #8]
    2850:	e0632000 	rsb	r2, r3, r0
    2854:	e352000f 	cmp	r2, #15
    2858:	daffffe2 	ble	27e8 <_malloc_trim_r+0x5c>
    285c:	e59f1020 	ldr	r1, [pc, #32]	; 2884 <_malloc_trim_r+0xf8>
    2860:	e5911000 	ldr	r1, [r1]
    2864:	e0610000 	rsb	r0, r1, r0
    2868:	e59f1010 	ldr	r1, [pc, #16]	; 2880 <_malloc_trim_r+0xf4>
    286c:	e3822001 	orr	r2, r2, #1
    2870:	e5810000 	str	r0, [r1]
    2874:	e5832004 	str	r2, [r3, #4]
    2878:	eaffffda 	b	27e8 <_malloc_trim_r+0x5c>
    287c:	0000e89c 	.word	0x0000e89c
    2880:	00042e4c 	.word	0x00042e4c
    2884:	0000eca4 	.word	0x0000eca4

00002888 <_free_r>:
    2888:	e92d40f8 	push	{r3, r4, r5, r6, r7, lr}
    288c:	e2514000 	subs	r4, r1, #0
    2890:	e1a06000 	mov	r6, r0
    2894:	0a000046 	beq	29b4 <_free_r+0x12c>
    2898:	eb0005c1 	bl	3fa4 <__malloc_lock>
    289c:	e514e004 	ldr	lr, [r4, #-4]
    28a0:	e59f1238 	ldr	r1, [pc, #568]	; 2ae0 <_free_r+0x258>
    28a4:	e244c008 	sub	r12, r4, #8
    28a8:	e3ce3001 	bic	r3, lr, #1
    28ac:	e08c2003 	add	r2, r12, r3
    28b0:	e5910008 	ldr	r0, [r1, #8]
    28b4:	e5925004 	ldr	r5, [r2, #4]
    28b8:	e1500002 	cmp	r0, r2
    28bc:	e3c55003 	bic	r5, r5, #3
    28c0:	0a00004a 	beq	29f0 <_free_r+0x168>
    28c4:	e21ee001 	ands	lr, lr, #1
    28c8:	e5825004 	str	r5, [r2, #4]
    28cc:	13a0e000 	movne	lr, #0
    28d0:	1a000009 	bne	28fc <_free_r+0x74>
    28d4:	e5144008 	ldr	r4, [r4, #-8]
    28d8:	e064c00c 	rsb	r12, r4, r12
    28dc:	e59c0008 	ldr	r0, [r12, #8]
    28e0:	e2817008 	add	r7, r1, #8
    28e4:	e1500007 	cmp	r0, r7
    28e8:	e0833004 	add	r3, r3, r4
    28ec:	159c400c 	ldrne	r4, [r12, #12]
    28f0:	1580400c 	strne	r4, [r0, #12]
    28f4:	15840008 	strne	r0, [r4, #8]
    28f8:	03a0e001 	moveq	lr, #1
    28fc:	e0820005 	add	r0, r2, r5
    2900:	e5900004 	ldr	r0, [r0, #4]
    2904:	e3100001 	tst	r0, #1
    2908:	1a000009 	bne	2934 <_free_r+0xac>
    290c:	e35e0000 	cmp	lr, #0
    2910:	e5920008 	ldr	r0, [r2, #8]
    2914:	e0833005 	add	r3, r3, r5
    2918:	1a000002 	bne	2928 <_free_r+0xa0>
    291c:	e59f41c0 	ldr	r4, [pc, #448]	; 2ae4 <_free_r+0x25c>
    2920:	e1500004 	cmp	r0, r4
    2924:	0a000047 	beq	2a48 <_free_r+0x1c0>
    2928:	e592200c 	ldr	r2, [r2, #12]
    292c:	e580200c 	str	r2, [r0, #12]
    2930:	e5820008 	str	r0, [r2, #8]
    2934:	e3832001 	orr	r2, r3, #1
    2938:	e35e0000 	cmp	lr, #0
    293c:	e58c2004 	str	r2, [r12, #4]
    2940:	e78c3003 	str	r3, [r12, r3]
    2944:	1a000018 	bne	29ac <_free_r+0x124>
    2948:	e3530c02 	cmp	r3, #512	; 0x200
    294c:	3a00001a 	bcc	29bc <_free_r+0x134>
    2950:	e1a024a3 	lsr	r2, r3, #9
    2954:	e3520004 	cmp	r2, #4
    2958:	8a000042 	bhi	2a68 <_free_r+0x1e0>
    295c:	e1a0e323 	lsr	lr, r3, #6
    2960:	e28ee038 	add	lr, lr, #56	; 0x38
    2964:	e1a0008e 	lsl	r0, lr, #1
    2968:	e0810100 	add	r0, r1, r0, lsl #2
    296c:	e5902008 	ldr	r2, [r0, #8]
    2970:	e1520000 	cmp	r2, r0
    2974:	e59f1164 	ldr	r1, [pc, #356]	; 2ae0 <_free_r+0x258>
    2978:	0a000044 	beq	2a90 <_free_r+0x208>
    297c:	e5921004 	ldr	r1, [r2, #4]
    2980:	e3c11003 	bic	r1, r1, #3
    2984:	e1530001 	cmp	r3, r1
    2988:	2a000002 	bcs	2998 <_free_r+0x110>
    298c:	e5922008 	ldr	r2, [r2, #8]
    2990:	e1500002 	cmp	r0, r2
    2994:	1afffff8 	bne	297c <_free_r+0xf4>
    2998:	e592300c 	ldr	r3, [r2, #12]
    299c:	e58c300c 	str	r3, [r12, #12]
    29a0:	e58c2008 	str	r2, [r12, #8]
    29a4:	e582c00c 	str	r12, [r2, #12]
    29a8:	e583c008 	str	r12, [r3, #8]
    29ac:	e1a00006 	mov	r0, r6
    29b0:	eb00057c 	bl	3fa8 <__malloc_unlock>
    29b4:	e8bd40f8 	pop	{r3, r4, r5, r6, r7, lr}
    29b8:	e12fff1e 	bx	lr
    29bc:	e5912004 	ldr	r2, [r1, #4]
    29c0:	e1a031a3 	lsr	r3, r3, #3
    29c4:	e1a00143 	asr	r0, r3, #2
    29c8:	e3a0e001 	mov	lr, #1
    29cc:	e182001e 	orr	r0, r2, lr, lsl r0
    29d0:	e0813183 	add	r3, r1, r3, lsl #3
    29d4:	e5932008 	ldr	r2, [r3, #8]
    29d8:	e58c300c 	str	r3, [r12, #12]
    29dc:	e58c2008 	str	r2, [r12, #8]
    29e0:	e5810004 	str	r0, [r1, #4]
    29e4:	e583c008 	str	r12, [r3, #8]
    29e8:	e582c00c 	str	r12, [r2, #12]
    29ec:	eaffffee 	b	29ac <_free_r+0x124>
    29f0:	e31e0001 	tst	lr, #1
    29f4:	e0853003 	add	r3, r5, r3
    29f8:	1a000006 	bne	2a18 <_free_r+0x190>
    29fc:	e5142008 	ldr	r2, [r4, #-8]
    2a00:	e062c00c 	rsb	r12, r2, r12
    2a04:	e59c000c 	ldr	r0, [r12, #12]
    2a08:	e59ce008 	ldr	lr, [r12, #8]
    2a0c:	e58e000c 	str	r0, [lr, #12]
    2a10:	e580e008 	str	lr, [r0, #8]
    2a14:	e0833002 	add	r3, r3, r2
    2a18:	e59f20c8 	ldr	r2, [pc, #200]	; 2ae8 <_free_r+0x260>
    2a1c:	e5920000 	ldr	r0, [r2]
    2a20:	e3832001 	orr	r2, r3, #1
    2a24:	e1530000 	cmp	r3, r0
    2a28:	e58c2004 	str	r2, [r12, #4]
    2a2c:	e581c008 	str	r12, [r1, #8]
    2a30:	3affffdd 	bcc	29ac <_free_r+0x124>
    2a34:	e59f30b0 	ldr	r3, [pc, #176]	; 2aec <_free_r+0x264>
    2a38:	e1a00006 	mov	r0, r6
    2a3c:	e5931000 	ldr	r1, [r3]
    2a40:	ebffff51 	bl	278c <_malloc_trim_r>
    2a44:	eaffffd8 	b	29ac <_free_r+0x124>
    2a48:	e3832001 	orr	r2, r3, #1
    2a4c:	e581c014 	str	r12, [r1, #20]
    2a50:	e581c010 	str	r12, [r1, #16]
    2a54:	e58c000c 	str	r0, [r12, #12]
    2a58:	e58c0008 	str	r0, [r12, #8]
    2a5c:	e58c2004 	str	r2, [r12, #4]
    2a60:	e78c3003 	str	r3, [r12, r3]
    2a64:	eaffffd0 	b	29ac <_free_r+0x124>
    2a68:	e3520014 	cmp	r2, #20
    2a6c:	9282e05b 	addls	lr, r2, #91	; 0x5b
    2a70:	91a0008e 	lslls	r0, lr, #1
    2a74:	9affffbb 	bls	2968 <_free_r+0xe0>
    2a78:	e3520054 	cmp	r2, #84	; 0x54
    2a7c:	8a00000a 	bhi	2aac <_free_r+0x224>
    2a80:	e1a0e623 	lsr	lr, r3, #12
    2a84:	e28ee06e 	add	lr, lr, #110	; 0x6e
    2a88:	e1a0008e 	lsl	r0, lr, #1
    2a8c:	eaffffb5 	b	2968 <_free_r+0xe0>
    2a90:	e5913004 	ldr	r3, [r1, #4]
    2a94:	e1a0e14e 	asr	lr, lr, #2
    2a98:	e3a00001 	mov	r0, #1
    2a9c:	e1830e10 	orr	r0, r3, r0, lsl lr
    2aa0:	e1a03002 	mov	r3, r2
    2aa4:	e5810004 	str	r0, [r1, #4]
    2aa8:	eaffffbb 	b	299c <_free_r+0x114>
    2aac:	e3520f55 	cmp	r2, #340	; 0x154
    2ab0:	91a0e7a3 	lsrls	lr, r3, #15
    2ab4:	928ee077 	addls	lr, lr, #119	; 0x77
    2ab8:	91a0008e 	lslls	r0, lr, #1
    2abc:	9affffa9 	bls	2968 <_free_r+0xe0>
    2ac0:	e59f0028 	ldr	r0, [pc, #40]	; 2af0 <_free_r+0x268>
    2ac4:	e1520000 	cmp	r2, r0
    2ac8:	91a0e923 	lsrls	lr, r3, #18
    2acc:	928ee07c 	addls	lr, lr, #124	; 0x7c
    2ad0:	91a0008e 	lslls	r0, lr, #1
    2ad4:	83a000fc 	movhi	r0, #252	; 0xfc
    2ad8:	83a0e07e 	movhi	lr, #126	; 0x7e
    2adc:	eaffffa1 	b	2968 <_free_r+0xe0>
    2ae0:	0000e89c 	.word	0x0000e89c
    2ae4:	0000e8a4 	.word	0x0000e8a4
    2ae8:	0000eca8 	.word	0x0000eca8
    2aec:	00042e48 	.word	0x00042e48
    2af0:	00000554 	.word	0x00000554

00002af4 <__sfvwrite_r>:
    2af4:	e92d4ff0 	push	{r4, r5, r6, r7, r8, r9, r10, r11, lr}
    2af8:	e5923008 	ldr	r3, [r2, #8]
    2afc:	e3530000 	cmp	r3, #0
    2b00:	e24dd00c 	sub	sp, sp, #12
    2b04:	e1a07002 	mov	r7, r2
    2b08:	e1a0a000 	mov	r10, r0
    2b0c:	e1a04001 	mov	r4, r1
    2b10:	0a00001e 	beq	2b90 <__sfvwrite_r+0x9c>
    2b14:	e1d130bc 	ldrh	r3, [r1, #12]
    2b18:	e3130008 	tst	r3, #8
    2b1c:	0a00001f 	beq	2ba0 <__sfvwrite_r+0xac>
    2b20:	e5912010 	ldr	r2, [r1, #16]
    2b24:	e3520000 	cmp	r2, #0
    2b28:	0a00001c 	beq	2ba0 <__sfvwrite_r+0xac>
    2b2c:	e2132002 	ands	r2, r3, #2
    2b30:	e5975000 	ldr	r5, [r7]
    2b34:	0a000029 	beq	2be0 <__sfvwrite_r+0xec>
    2b38:	e3a08000 	mov	r8, #0
    2b3c:	e1a06008 	mov	r6, r8
    2b40:	e3560000 	cmp	r6, #0
    2b44:	e1a02008 	mov	r2, r8
    2b48:	e1a0000a 	mov	r0, r10
    2b4c:	0a00001f 	beq	2bd0 <__sfvwrite_r+0xdc>
    2b50:	e3560b01 	cmp	r6, #1024	; 0x400
    2b54:	31a03006 	movcc	r3, r6
    2b58:	23a03b01 	movcs	r3, #1024	; 0x400
    2b5c:	e594101c 	ldr	r1, [r4, #28]
    2b60:	e594c024 	ldr	r12, [r4, #36]	; 0x24
    2b64:	e1a0e00f 	mov	lr, pc
    2b68:	e12fff1c 	bx	r12
    2b6c:	e3500000 	cmp	r0, #0
    2b70:	da000050 	ble	2cb8 <__sfvwrite_r+0x1c4>
    2b74:	e5973008 	ldr	r3, [r7, #8]
    2b78:	e0603003 	rsb	r3, r0, r3
    2b7c:	e3530000 	cmp	r3, #0
    2b80:	e0888000 	add	r8, r8, r0
    2b84:	e0606006 	rsb	r6, r0, r6
    2b88:	e5873008 	str	r3, [r7, #8]
    2b8c:	1affffeb 	bne	2b40 <__sfvwrite_r+0x4c>
    2b90:	e3a00000 	mov	r0, #0
    2b94:	e28dd00c 	add	sp, sp, #12
    2b98:	e8bd4ff0 	pop	{r4, r5, r6, r7, r8, r9, r10, r11, lr}
    2b9c:	e12fff1e 	bx	lr
    2ba0:	e1a0000a 	mov	r0, r10
    2ba4:	e1a01004 	mov	r1, r4
    2ba8:	ebfffc3b 	bl	1c9c <__swsetup_r>
    2bac:	e3500000 	cmp	r0, #0
    2bb0:	e1d430bc 	ldrh	r3, [r4, #12]
    2bb4:	0affffdc 	beq	2b2c <__sfvwrite_r+0x38>
    2bb8:	e3833040 	orr	r3, r3, #64	; 0x40
    2bbc:	e1c430bc 	strh	r3, [r4, #12]
    2bc0:	e3a03009 	mov	r3, #9
    2bc4:	e3e00000 	mvn	r0, #0
    2bc8:	e58a3000 	str	r3, [r10]
    2bcc:	eafffff0 	b	2b94 <__sfvwrite_r+0xa0>
    2bd0:	e5958000 	ldr	r8, [r5]
    2bd4:	e5956004 	ldr	r6, [r5, #4]
    2bd8:	e2855008 	add	r5, r5, #8
    2bdc:	eaffffd7 	b	2b40 <__sfvwrite_r+0x4c>
    2be0:	e2139001 	ands	r9, r3, #1
    2be4:	1a000038 	bne	2ccc <__sfvwrite_r+0x1d8>
    2be8:	e1a06009 	mov	r6, r9
    2bec:	e3560000 	cmp	r6, #0
    2bf0:	0a000024 	beq	2c88 <__sfvwrite_r+0x194>
    2bf4:	e3130c02 	tst	r3, #512	; 0x200
    2bf8:	e5948008 	ldr	r8, [r4, #8]
    2bfc:	e1a02003 	mov	r2, r3
    2c00:	0a000062 	beq	2d90 <__sfvwrite_r+0x29c>
    2c04:	e1560008 	cmp	r6, r8
    2c08:	e1a0c008 	mov	r12, r8
    2c0c:	3a000089 	bcc	2e38 <__sfvwrite_r+0x344>
    2c10:	e2022d12 	and	r2, r2, #1152	; 0x480
    2c14:	e3520000 	cmp	r2, #0
    2c18:	1a0000a2 	bne	2ea8 <__sfvwrite_r+0x3b4>
    2c1c:	e5940000 	ldr	r0, [r4]
    2c20:	e1a0b008 	mov	r11, r8
    2c24:	e1a03006 	mov	r3, r6
    2c28:	e1a08006 	mov	r8, r6
    2c2c:	e1a0200c 	mov	r2, r12
    2c30:	e1a01009 	mov	r1, r9
    2c34:	e58d3004 	str	r3, [sp, #4]
    2c38:	e58dc000 	str	r12, [sp]
    2c3c:	eb00043e 	bl	3d3c <memmove>
    2c40:	e59dc000 	ldr	r12, [sp]
    2c44:	e5941008 	ldr	r1, [r4, #8]
    2c48:	e5942000 	ldr	r2, [r4]
    2c4c:	e06bb001 	rsb	r11, r11, r1
    2c50:	e082c00c 	add	r12, r2, r12
    2c54:	e584b008 	str	r11, [r4, #8]
    2c58:	e584c000 	str	r12, [r4]
    2c5c:	e59d3004 	ldr	r3, [sp, #4]
    2c60:	e5972008 	ldr	r2, [r7, #8]
    2c64:	e0688002 	rsb	r8, r8, r2
    2c68:	e3580000 	cmp	r8, #0
    2c6c:	e0899003 	add	r9, r9, r3
    2c70:	e0636006 	rsb	r6, r3, r6
    2c74:	e5878008 	str	r8, [r7, #8]
    2c78:	0affffc4 	beq	2b90 <__sfvwrite_r+0x9c>
    2c7c:	e3560000 	cmp	r6, #0
    2c80:	e1d430bc 	ldrh	r3, [r4, #12]
    2c84:	1affffda 	bne	2bf4 <__sfvwrite_r+0x100>
    2c88:	e5959000 	ldr	r9, [r5]
    2c8c:	e5956004 	ldr	r6, [r5, #4]
    2c90:	e2855008 	add	r5, r5, #8
    2c94:	eaffffd4 	b	2bec <__sfvwrite_r+0xf8>
    2c98:	eb0004c3 	bl	3fac <_realloc_r>
    2c9c:	e2503000 	subs	r3, r0, #0
    2ca0:	1a00009d 	bne	2f1c <__sfvwrite_r+0x428>
    2ca4:	e1a0000a 	mov	r0, r10
    2ca8:	e5941010 	ldr	r1, [r4, #16]
    2cac:	ebfffef5 	bl	2888 <_free_r>
    2cb0:	e3a0300c 	mov	r3, #12
    2cb4:	e58a3000 	str	r3, [r10]
    2cb8:	e1d430bc 	ldrh	r3, [r4, #12]
    2cbc:	e3833040 	orr	r3, r3, #64	; 0x40
    2cc0:	e1c430bc 	strh	r3, [r4, #12]
    2cc4:	e3e00000 	mvn	r0, #0
    2cc8:	eaffffb1 	b	2b94 <__sfvwrite_r+0xa0>
    2ccc:	e1a09002 	mov	r9, r2
    2cd0:	e1a0c002 	mov	r12, r2
    2cd4:	e1a0b002 	mov	r11, r2
    2cd8:	e1a08002 	mov	r8, r2
    2cdc:	e3580000 	cmp	r8, #0
    2ce0:	0a000025 	beq	2d7c <__sfvwrite_r+0x288>
    2ce4:	e35c0000 	cmp	r12, #0
    2ce8:	0a000064 	beq	2e80 <__sfvwrite_r+0x38c>
    2cec:	e5940000 	ldr	r0, [r4]
    2cf0:	e5942010 	ldr	r2, [r4, #16]
    2cf4:	e1590008 	cmp	r9, r8
    2cf8:	31a03009 	movcc	r3, r9
    2cfc:	21a03008 	movcs	r3, r8
    2d00:	e1500002 	cmp	r0, r2
    2d04:	e5946008 	ldr	r6, [r4, #8]
    2d08:	e594e014 	ldr	lr, [r4, #20]
    2d0c:	9a000002 	bls	2d1c <__sfvwrite_r+0x228>
    2d10:	e086600e 	add	r6, r6, lr
    2d14:	e1530006 	cmp	r3, r6
    2d18:	ca00008a 	bgt	2f48 <__sfvwrite_r+0x454>
    2d1c:	e153000e 	cmp	r3, lr
    2d20:	ba00002d 	blt	2ddc <__sfvwrite_r+0x2e8>
    2d24:	e594101c 	ldr	r1, [r4, #28]
    2d28:	e1a0000a 	mov	r0, r10
    2d2c:	e58dc000 	str	r12, [sp]
    2d30:	e1a0200b 	mov	r2, r11
    2d34:	e1a0300e 	mov	r3, lr
    2d38:	e594c024 	ldr	r12, [r4, #36]	; 0x24
    2d3c:	e1a0e00f 	mov	lr, pc
    2d40:	e12fff1c 	bx	r12
    2d44:	e2506000 	subs	r6, r0, #0
    2d48:	e59dc000 	ldr	r12, [sp]
    2d4c:	daffffd9 	ble	2cb8 <__sfvwrite_r+0x1c4>
    2d50:	e0599006 	subs	r9, r9, r6
    2d54:	0a000030 	beq	2e1c <__sfvwrite_r+0x328>
    2d58:	e5973008 	ldr	r3, [r7, #8]
    2d5c:	e0663003 	rsb	r3, r6, r3
    2d60:	e3530000 	cmp	r3, #0
    2d64:	e08bb006 	add	r11, r11, r6
    2d68:	e0668008 	rsb	r8, r6, r8
    2d6c:	e5873008 	str	r3, [r7, #8]
    2d70:	0affff86 	beq	2b90 <__sfvwrite_r+0x9c>
    2d74:	e3580000 	cmp	r8, #0
    2d78:	1affffd9 	bne	2ce4 <__sfvwrite_r+0x1f0>
    2d7c:	e595b000 	ldr	r11, [r5]
    2d80:	e5958004 	ldr	r8, [r5, #4]
    2d84:	e3a0c000 	mov	r12, #0
    2d88:	e2855008 	add	r5, r5, #8
    2d8c:	eaffffd2 	b	2cdc <__sfvwrite_r+0x1e8>
    2d90:	e5940000 	ldr	r0, [r4]
    2d94:	e5943010 	ldr	r3, [r4, #16]
    2d98:	e1500003 	cmp	r0, r3
    2d9c:	9a000001 	bls	2da8 <__sfvwrite_r+0x2b4>
    2da0:	e1560008 	cmp	r6, r8
    2da4:	8a000075 	bhi	2f80 <__sfvwrite_r+0x48c>
    2da8:	e5943014 	ldr	r3, [r4, #20]
    2dac:	e1560003 	cmp	r6, r3
    2db0:	3a000026 	bcc	2e50 <__sfvwrite_r+0x35c>
    2db4:	e1a0000a 	mov	r0, r10
    2db8:	e594101c 	ldr	r1, [r4, #28]
    2dbc:	e1a02009 	mov	r2, r9
    2dc0:	e594c024 	ldr	r12, [r4, #36]	; 0x24
    2dc4:	e1a0e00f 	mov	lr, pc
    2dc8:	e12fff1c 	bx	r12
    2dcc:	e2508000 	subs	r8, r0, #0
    2dd0:	daffffb8 	ble	2cb8 <__sfvwrite_r+0x1c4>
    2dd4:	e1a03008 	mov	r3, r8
    2dd8:	eaffffa0 	b	2c60 <__sfvwrite_r+0x16c>
    2ddc:	e1a02003 	mov	r2, r3
    2de0:	e1a0100b 	mov	r1, r11
    2de4:	e58d3004 	str	r3, [sp, #4]
    2de8:	e58dc000 	str	r12, [sp]
    2dec:	eb0003d2 	bl	3d3c <memmove>
    2df0:	e59d3004 	ldr	r3, [sp, #4]
    2df4:	e5941008 	ldr	r1, [r4, #8]
    2df8:	e5942000 	ldr	r2, [r4]
    2dfc:	e1a06003 	mov	r6, r3
    2e00:	e0631001 	rsb	r1, r3, r1
    2e04:	e0822003 	add	r2, r2, r3
    2e08:	e0599006 	subs	r9, r9, r6
    2e0c:	e5841008 	str	r1, [r4, #8]
    2e10:	e5842000 	str	r2, [r4]
    2e14:	e59dc000 	ldr	r12, [sp]
    2e18:	1affffce 	bne	2d58 <__sfvwrite_r+0x264>
    2e1c:	e1a0000a 	mov	r0, r10
    2e20:	e1a01004 	mov	r1, r4
    2e24:	ebfffc94 	bl	207c <_fflush_r>
    2e28:	e3500000 	cmp	r0, #0
    2e2c:	1affffa1 	bne	2cb8 <__sfvwrite_r+0x1c4>
    2e30:	e1a0c009 	mov	r12, r9
    2e34:	eaffffc7 	b	2d58 <__sfvwrite_r+0x264>
    2e38:	e5940000 	ldr	r0, [r4]
    2e3c:	e1a0b006 	mov	r11, r6
    2e40:	e1a03006 	mov	r3, r6
    2e44:	e1a08006 	mov	r8, r6
    2e48:	e1a0c006 	mov	r12, r6
    2e4c:	eaffff76 	b	2c2c <__sfvwrite_r+0x138>
    2e50:	e1a02006 	mov	r2, r6
    2e54:	e1a01009 	mov	r1, r9
    2e58:	eb0003b7 	bl	3d3c <memmove>
    2e5c:	e5942008 	ldr	r2, [r4, #8]
    2e60:	e5943000 	ldr	r3, [r4]
    2e64:	e0662002 	rsb	r2, r6, r2
    2e68:	e0833006 	add	r3, r3, r6
    2e6c:	e5843000 	str	r3, [r4]
    2e70:	e5842008 	str	r2, [r4, #8]
    2e74:	e1a08006 	mov	r8, r6
    2e78:	e1a03006 	mov	r3, r6
    2e7c:	eaffff77 	b	2c60 <__sfvwrite_r+0x16c>
    2e80:	e1a0000b 	mov	r0, r11
    2e84:	e3a0100a 	mov	r1, #10
    2e88:	e1a02008 	mov	r2, r8
    2e8c:	eb0002e0 	bl	3a14 <memchr>
    2e90:	e3500000 	cmp	r0, #0
    2e94:	12809001 	addne	r9, r0, #1
    2e98:	106b9009 	rsbne	r9, r11, r9
    2e9c:	02889001 	addeq	r9, r8, #1
    2ea0:	e3a0c001 	mov	r12, #1
    2ea4:	eaffff90 	b	2cec <__sfvwrite_r+0x1f8>
    2ea8:	e5941010 	ldr	r1, [r4, #16]
    2eac:	e594b000 	ldr	r11, [r4]
    2eb0:	e5948014 	ldr	r8, [r4, #20]
    2eb4:	e061b00b 	rsb	r11, r1, r11
    2eb8:	e0888088 	add	r8, r8, r8, lsl #1
    2ebc:	e0888fa8 	add	r8, r8, r8, lsr #31
    2ec0:	e28b0001 	add	r0, r11, #1
    2ec4:	e1a080c8 	asr	r8, r8, #1
    2ec8:	e0800006 	add	r0, r0, r6
    2ecc:	e1580000 	cmp	r8, r0
    2ed0:	e1a02008 	mov	r2, r8
    2ed4:	31a08000 	movcc	r8, r0
    2ed8:	31a02008 	movcc	r2, r8
    2edc:	e3130b01 	tst	r3, #1024	; 0x400
    2ee0:	e1a0000a 	mov	r0, r10
    2ee4:	0affff6b 	beq	2c98 <__sfvwrite_r+0x1a4>
    2ee8:	e1a01002 	mov	r1, r2
    2eec:	eb000101 	bl	32f8 <_malloc_r>
    2ef0:	e2503000 	subs	r3, r0, #0
    2ef4:	0affff6d 	beq	2cb0 <__sfvwrite_r+0x1bc>
    2ef8:	e5941010 	ldr	r1, [r4, #16]
    2efc:	e1a0200b 	mov	r2, r11
    2f00:	e58d3004 	str	r3, [sp, #4]
    2f04:	eb000309 	bl	3b30 <memcpy>
    2f08:	e1d420bc 	ldrh	r2, [r4, #12]
    2f0c:	e3c22d12 	bic	r2, r2, #1152	; 0x480
    2f10:	e3822080 	orr	r2, r2, #128	; 0x80
    2f14:	e1c420bc 	strh	r2, [r4, #12]
    2f18:	e59d3004 	ldr	r3, [sp, #4]
    2f1c:	e083000b 	add	r0, r3, r11
    2f20:	e06b2008 	rsb	r2, r11, r8
    2f24:	e5843010 	str	r3, [r4, #16]
    2f28:	e5848014 	str	r8, [r4, #20]
    2f2c:	e5840000 	str	r0, [r4]
    2f30:	e1a0b006 	mov	r11, r6
    2f34:	e5842008 	str	r2, [r4, #8]
    2f38:	e1a03006 	mov	r3, r6
    2f3c:	e1a08006 	mov	r8, r6
    2f40:	e1a0c006 	mov	r12, r6
    2f44:	eaffff38 	b	2c2c <__sfvwrite_r+0x138>
    2f48:	e1a0100b 	mov	r1, r11
    2f4c:	e1a02006 	mov	r2, r6
    2f50:	e58dc000 	str	r12, [sp]
    2f54:	eb000378 	bl	3d3c <memmove>
    2f58:	e5943000 	ldr	r3, [r4]
    2f5c:	e0833006 	add	r3, r3, r6
    2f60:	e5843000 	str	r3, [r4]
    2f64:	e1a0000a 	mov	r0, r10
    2f68:	e1a01004 	mov	r1, r4
    2f6c:	ebfffc42 	bl	207c <_fflush_r>
    2f70:	e3500000 	cmp	r0, #0
    2f74:	e59dc000 	ldr	r12, [sp]
    2f78:	0affff74 	beq	2d50 <__sfvwrite_r+0x25c>
    2f7c:	eaffff4d 	b	2cb8 <__sfvwrite_r+0x1c4>
    2f80:	e1a01009 	mov	r1, r9
    2f84:	e1a02008 	mov	r2, r8
    2f88:	e58d8004 	str	r8, [sp, #4]
    2f8c:	eb00036a 	bl	3d3c <memmove>
    2f90:	e5942000 	ldr	r2, [r4]
    2f94:	e0822008 	add	r2, r2, r8
    2f98:	e5842000 	str	r2, [r4]
    2f9c:	e1a0000a 	mov	r0, r10
    2fa0:	e1a01004 	mov	r1, r4
    2fa4:	ebfffc34 	bl	207c <_fflush_r>
    2fa8:	e3500000 	cmp	r0, #0
    2fac:	e59d3004 	ldr	r3, [sp, #4]
    2fb0:	0affff2a 	beq	2c60 <__sfvwrite_r+0x16c>
    2fb4:	eaffff3f 	b	2cb8 <__sfvwrite_r+0x1c4>

00002fb8 <_fwalk>:
    2fb8:	e92d41f0 	push	{r4, r5, r6, r7, r8, lr}
    2fbc:	e1a06000 	mov	r6, r0
    2fc0:	e1a08001 	mov	r8, r1
    2fc4:	ebfffd62 	bl	2554 <__sfp_lock_acquire>
    2fc8:	e2966e2e 	adds	r6, r6, #736	; 0x2e0
    2fcc:	0a000019 	beq	3038 <_fwalk+0x80>
    2fd0:	e3a07000 	mov	r7, #0
    2fd4:	e5965004 	ldr	r5, [r6, #4]
    2fd8:	e2555001 	subs	r5, r5, #1
    2fdc:	e5964008 	ldr	r4, [r6, #8]
    2fe0:	4a00000d 	bmi	301c <_fwalk+0x64>
    2fe4:	e1d430fc 	ldrsh	r3, [r4, #12]
    2fe8:	e3530000 	cmp	r3, #0
    2fec:	e2455001 	sub	r5, r5, #1
    2ff0:	0a000006 	beq	3010 <_fwalk+0x58>
    2ff4:	e1d430fe 	ldrsh	r3, [r4, #14]
    2ff8:	e3730001 	cmn	r3, #1
    2ffc:	e1a00004 	mov	r0, r4
    3000:	0a000002 	beq	3010 <_fwalk+0x58>
    3004:	e1a0e00f 	mov	lr, pc
    3008:	e12fff18 	bx	r8
    300c:	e1877000 	orr	r7, r7, r0
    3010:	e3750001 	cmn	r5, #1
    3014:	e2844068 	add	r4, r4, #104	; 0x68
    3018:	1afffff1 	bne	2fe4 <_fwalk+0x2c>
    301c:	e5966000 	ldr	r6, [r6]
    3020:	e3560000 	cmp	r6, #0
    3024:	1affffea 	bne	2fd4 <_fwalk+0x1c>
    3028:	ebfffd4a 	bl	2558 <__sfp_lock_release>
    302c:	e1a00007 	mov	r0, r7
    3030:	e8bd41f0 	pop	{r4, r5, r6, r7, r8, lr}
    3034:	e12fff1e 	bx	lr
    3038:	e1a07006 	mov	r7, r6
    303c:	eafffff9 	b	3028 <_fwalk+0x70>

00003040 <_fwalk_reent>:
    3040:	e92d45f8 	push	{r3, r4, r5, r6, r7, r8, r10, lr}
    3044:	e1a07000 	mov	r7, r0
    3048:	e1a08001 	mov	r8, r1
    304c:	ebfffd40 	bl	2554 <__sfp_lock_acquire>
    3050:	e2976e2e 	adds	r6, r7, #736	; 0x2e0
    3054:	0a00001a 	beq	30c4 <_fwalk_reent+0x84>
    3058:	e3a0a000 	mov	r10, #0
    305c:	e5965004 	ldr	r5, [r6, #4]
    3060:	e2555001 	subs	r5, r5, #1
    3064:	e5964008 	ldr	r4, [r6, #8]
    3068:	4a00000e 	bmi	30a8 <_fwalk_reent+0x68>
    306c:	e1d430fc 	ldrsh	r3, [r4, #12]
    3070:	e3530000 	cmp	r3, #0
    3074:	e2455001 	sub	r5, r5, #1
    3078:	0a000007 	beq	309c <_fwalk_reent+0x5c>
    307c:	e1d430fe 	ldrsh	r3, [r4, #14]
    3080:	e3730001 	cmn	r3, #1
    3084:	e1a01004 	mov	r1, r4
    3088:	e1a00007 	mov	r0, r7
    308c:	0a000002 	beq	309c <_fwalk_reent+0x5c>
    3090:	e1a0e00f 	mov	lr, pc
    3094:	e12fff18 	bx	r8
    3098:	e18aa000 	orr	r10, r10, r0
    309c:	e3750001 	cmn	r5, #1
    30a0:	e2844068 	add	r4, r4, #104	; 0x68
    30a4:	1afffff0 	bne	306c <_fwalk_reent+0x2c>
    30a8:	e5966000 	ldr	r6, [r6]
    30ac:	e3560000 	cmp	r6, #0
    30b0:	1affffe9 	bne	305c <_fwalk_reent+0x1c>
    30b4:	ebfffd27 	bl	2558 <__sfp_lock_release>
    30b8:	e1a0000a 	mov	r0, r10
    30bc:	e8bd45f8 	pop	{r3, r4, r5, r6, r7, r8, r10, lr}
    30c0:	e12fff1e 	bx	lr
    30c4:	e1a0a006 	mov	r10, r6
    30c8:	eafffff9 	b	30b4 <_fwalk_reent+0x74>

000030cc <_setlocale_r>:
    30cc:	e92d4010 	push	{r4, lr}
    30d0:	e2524000 	subs	r4, r2, #0
    30d4:	0a000004 	beq	30ec <_setlocale_r+0x20>
    30d8:	e1a00004 	mov	r0, r4
    30dc:	e59f1048 	ldr	r1, [pc, #72]	; 312c <_setlocale_r+0x60>
    30e0:	eb0005fc 	bl	48d8 <strcmp>
    30e4:	e3500000 	cmp	r0, #0
    30e8:	1a000002 	bne	30f8 <_setlocale_r+0x2c>
    30ec:	e59f003c 	ldr	r0, [pc, #60]	; 3130 <_setlocale_r+0x64>
    30f0:	e8bd4010 	pop	{r4, lr}
    30f4:	e12fff1e 	bx	lr
    30f8:	e1a00004 	mov	r0, r4
    30fc:	e59f102c 	ldr	r1, [pc, #44]	; 3130 <_setlocale_r+0x64>
    3100:	eb0005f4 	bl	48d8 <strcmp>
    3104:	e3500000 	cmp	r0, #0
    3108:	0afffff7 	beq	30ec <_setlocale_r+0x20>
    310c:	e1a00004 	mov	r0, r4
    3110:	e59f101c 	ldr	r1, [pc, #28]	; 3134 <_setlocale_r+0x68>
    3114:	eb0005ef 	bl	48d8 <strcmp>
    3118:	e59f3010 	ldr	r3, [pc, #16]	; 3130 <_setlocale_r+0x64>
    311c:	e3500000 	cmp	r0, #0
    3120:	01a00003 	moveq	r0, r3
    3124:	13a00000 	movne	r0, #0
    3128:	eafffff0 	b	30f0 <_setlocale_r+0x24>
    312c:	0000e384 	.word	0x0000e384
    3130:	0000e330 	.word	0x0000e330
    3134:	0000e2f8 	.word	0x0000e2f8

00003138 <__locale_charset>:
    3138:	e59f0000 	ldr	r0, [pc]	; 3140 <__locale_charset+0x8>
    313c:	e12fff1e 	bx	lr
    3140:	0000e820 	.word	0x0000e820

00003144 <__locale_mb_cur_max>:
    3144:	e59f3004 	ldr	r3, [pc, #4]	; 3150 <__locale_mb_cur_max+0xc>
    3148:	e5930020 	ldr	r0, [r3, #32]
    314c:	e12fff1e 	bx	lr
    3150:	0000e820 	.word	0x0000e820

00003154 <__locale_msgcharset>:
    3154:	e59f0000 	ldr	r0, [pc]	; 315c <__locale_msgcharset+0x8>
    3158:	e12fff1e 	bx	lr
    315c:	0000e844 	.word	0x0000e844

00003160 <__locale_cjk_lang>:
    3160:	e3a00000 	mov	r0, #0
    3164:	e12fff1e 	bx	lr

00003168 <_localeconv_r>:
    3168:	e59f0000 	ldr	r0, [pc]	; 3170 <_localeconv_r+0x8>
    316c:	e12fff1e 	bx	lr
    3170:	0000e864 	.word	0x0000e864

00003174 <setlocale>:
    3174:	e1a02001 	mov	r2, r1
    3178:	e59f100c 	ldr	r1, [pc, #12]	; 318c <setlocale+0x18>
    317c:	e1a03000 	mov	r3, r0
    3180:	e5910000 	ldr	r0, [r1]
    3184:	e1a01003 	mov	r1, r3
    3188:	eaffffcf 	b	30cc <_setlocale_r>
    318c:	0000e3f0 	.word	0x0000e3f0

00003190 <localeconv>:
    3190:	e59f0000 	ldr	r0, [pc]	; 3198 <localeconv+0x8>
    3194:	e12fff1e 	bx	lr
    3198:	0000e864 	.word	0x0000e864

0000319c <__smakebuf_r>:
    319c:	e92d40f0 	push	{r4, r5, r6, r7, lr}
    31a0:	e1d130bc 	ldrh	r3, [r1, #12]
    31a4:	e3130002 	tst	r3, #2
    31a8:	e24dd044 	sub	sp, sp, #68	; 0x44
    31ac:	e1a04001 	mov	r4, r1
    31b0:	e1a05000 	mov	r5, r0
    31b4:	1a00002b 	bne	3268 <__smakebuf_r+0xcc>
    31b8:	e1d110fe 	ldrsh	r1, [r1, #14]
    31bc:	e3510000 	cmp	r1, #0
    31c0:	ba000010 	blt	3208 <__smakebuf_r+0x6c>
    31c4:	e28d2004 	add	r2, sp, #4
    31c8:	eb000788 	bl	4ff0 <_fstat_r>
    31cc:	e3500000 	cmp	r0, #0
    31d0:	ba00000b 	blt	3204 <__smakebuf_r+0x68>
    31d4:	e59d3008 	ldr	r3, [sp, #8]
    31d8:	e2033a0f 	and	r3, r3, #61440	; 0xf000
    31dc:	e2532a02 	subs	r2, r3, #8192	; 0x2000
    31e0:	e2727000 	rsbs	r7, r2, #0
    31e4:	e0b77002 	adcs	r7, r7, r2
    31e8:	e3530902 	cmp	r3, #32768	; 0x8000
    31ec:	0a000023 	beq	3280 <__smakebuf_r+0xe4>
    31f0:	e1d430bc 	ldrh	r3, [r4, #12]
    31f4:	e3833b02 	orr	r3, r3, #2048	; 0x800
    31f8:	e1c430bc 	strh	r3, [r4, #12]
    31fc:	e3a06b01 	mov	r6, #1024	; 0x400
    3200:	ea000006 	b	3220 <__smakebuf_r+0x84>
    3204:	e1d430bc 	ldrh	r3, [r4, #12]
    3208:	e3130080 	tst	r3, #128	; 0x80
    320c:	e3833b02 	orr	r3, r3, #2048	; 0x800
    3210:	e1c430bc 	strh	r3, [r4, #12]
    3214:	03a06b01 	moveq	r6, #1024	; 0x400
    3218:	13a06040 	movne	r6, #64	; 0x40
    321c:	e3a07000 	mov	r7, #0
    3220:	e1a00005 	mov	r0, r5
    3224:	e1a01006 	mov	r1, r6
    3228:	eb000032 	bl	32f8 <_malloc_r>
    322c:	e3500000 	cmp	r0, #0
    3230:	e1d430bc 	ldrh	r3, [r4, #12]
    3234:	0a000023 	beq	32c8 <__smakebuf_r+0x12c>
    3238:	e59f20b0 	ldr	r2, [pc, #176]	; 32f0 <__smakebuf_r+0x154>
    323c:	e3833080 	orr	r3, r3, #128	; 0x80
    3240:	e3570000 	cmp	r7, #0
    3244:	e585203c 	str	r2, [r5, #60]	; 0x3c
    3248:	e1c430bc 	strh	r3, [r4, #12]
    324c:	e5840000 	str	r0, [r4]
    3250:	e5840010 	str	r0, [r4, #16]
    3254:	e5846014 	str	r6, [r4, #20]
    3258:	1a000012 	bne	32a8 <__smakebuf_r+0x10c>
    325c:	e28dd044 	add	sp, sp, #68	; 0x44
    3260:	e8bd40f0 	pop	{r4, r5, r6, r7, lr}
    3264:	e12fff1e 	bx	lr
    3268:	e2813043 	add	r3, r1, #67	; 0x43
    326c:	e5813000 	str	r3, [r1]
    3270:	e5813010 	str	r3, [r1, #16]
    3274:	e3a03001 	mov	r3, #1
    3278:	e5813014 	str	r3, [r1, #20]
    327c:	eafffff6 	b	325c <__smakebuf_r+0xc0>
    3280:	e5942028 	ldr	r2, [r4, #40]	; 0x28
    3284:	e59f3068 	ldr	r3, [pc, #104]	; 32f4 <__smakebuf_r+0x158>
    3288:	e1520003 	cmp	r2, r3
    328c:	1affffd7 	bne	31f0 <__smakebuf_r+0x54>
    3290:	e1d430bc 	ldrh	r3, [r4, #12]
    3294:	e3a06b01 	mov	r6, #1024	; 0x400
    3298:	e1833006 	orr	r3, r3, r6
    329c:	e1c430bc 	strh	r3, [r4, #12]
    32a0:	e584604c 	str	r6, [r4, #76]	; 0x4c
    32a4:	eaffffdd 	b	3220 <__smakebuf_r+0x84>
    32a8:	e1a00005 	mov	r0, r5
    32ac:	e1d410fe 	ldrsh	r1, [r4, #14]
    32b0:	eb00075e 	bl	5030 <_isatty_r>
    32b4:	e3500000 	cmp	r0, #0
    32b8:	11d430bc 	ldrhne	r3, [r4, #12]
    32bc:	13833001 	orrne	r3, r3, #1
    32c0:	11c430bc 	strhne	r3, [r4, #12]
    32c4:	eaffffe4 	b	325c <__smakebuf_r+0xc0>
    32c8:	e3130c02 	tst	r3, #512	; 0x200
    32cc:	1affffe2 	bne	325c <__smakebuf_r+0xc0>
    32d0:	e3833002 	orr	r3, r3, #2
    32d4:	e2842043 	add	r2, r4, #67	; 0x43
    32d8:	e1c430bc 	strh	r3, [r4, #12]
    32dc:	e3a03001 	mov	r3, #1
    32e0:	e5842000 	str	r2, [r4]
    32e4:	e5842010 	str	r2, [r4, #16]
    32e8:	e5843014 	str	r3, [r4, #20]
    32ec:	eaffffda 	b	325c <__smakebuf_r+0xc0>
    32f0:	000022f8 	.word	0x000022f8
    32f4:	00004890 	.word	0x00004890

000032f8 <_malloc_r>:
    32f8:	e92d4ff0 	push	{r4, r5, r6, r7, r8, r9, r10, r11, lr}
    32fc:	e281500b 	add	r5, r1, #11
    3300:	e3550016 	cmp	r5, #22
    3304:	83c55007 	bichi	r5, r5, #7
    3308:	81a03fa5 	lsrhi	r3, r5, #31
    330c:	93a03000 	movls	r3, #0
    3310:	93a05010 	movls	r5, #16
    3314:	e1550001 	cmp	r5, r1
    3318:	21a01003 	movcs	r1, r3
    331c:	33831001 	orrcc	r1, r3, #1
    3320:	e3510000 	cmp	r1, #0
    3324:	13a0300c 	movne	r3, #12
    3328:	e24dd00c 	sub	sp, sp, #12
    332c:	e1a06000 	mov	r6, r0
    3330:	15803000 	strne	r3, [r0]
    3334:	13a04000 	movne	r4, #0
    3338:	1a000015 	bne	3394 <_malloc_r+0x9c>
    333c:	eb000318 	bl	3fa4 <__malloc_lock>
    3340:	e3550f7e 	cmp	r5, #504	; 0x1f8
    3344:	2a000016 	bcs	33a4 <_malloc_r+0xac>
    3348:	e59f76b8 	ldr	r7, [pc, #1720]	; 3a08 <_malloc_r+0x710>
    334c:	e1a0e1a5 	lsr	lr, r5, #3
    3350:	e087318e 	add	r3, r7, lr, lsl #3
    3354:	e593400c 	ldr	r4, [r3, #12]
    3358:	e1540003 	cmp	r4, r3
    335c:	0a00014b 	beq	3890 <_malloc_r+0x598>
    3360:	e5943004 	ldr	r3, [r4, #4]
    3364:	e3c33003 	bic	r3, r3, #3
    3368:	e0843003 	add	r3, r4, r3
    336c:	e5930004 	ldr	r0, [r3, #4]
    3370:	e2841008 	add	r1, r4, #8
    3374:	e8910006 	ldm	r1, {r1, r2}
    3378:	e3800001 	orr	r0, r0, #1
    337c:	e5830004 	str	r0, [r3, #4]
    3380:	e581200c 	str	r2, [r1, #12]
    3384:	e5821008 	str	r1, [r2, #8]
    3388:	e1a00006 	mov	r0, r6
    338c:	eb000305 	bl	3fa8 <__malloc_unlock>
    3390:	e2844008 	add	r4, r4, #8
    3394:	e1a00004 	mov	r0, r4
    3398:	e28dd00c 	add	sp, sp, #12
    339c:	e8bd4ff0 	pop	{r4, r5, r6, r7, r8, r9, r10, r11, lr}
    33a0:	e12fff1e 	bx	lr
    33a4:	e1b0e4a5 	lsrs	lr, r5, #9
    33a8:	01a0e1a5 	lsreq	lr, r5, #3
    33ac:	01a0108e 	lsleq	r1, lr, #1
    33b0:	1a000061 	bne	353c <_malloc_r+0x244>
    33b4:	e59f764c 	ldr	r7, [pc, #1612]	; 3a08 <_malloc_r+0x710>
    33b8:	e0871101 	add	r1, r7, r1, lsl #2
    33bc:	e591400c 	ldr	r4, [r1, #12]
    33c0:	e1510004 	cmp	r1, r4
    33c4:	1a000005 	bne	33e0 <_malloc_r+0xe8>
    33c8:	ea00000a 	b	33f8 <_malloc_r+0x100>
    33cc:	e3530000 	cmp	r3, #0
    33d0:	aa0000d7 	bge	3734 <_malloc_r+0x43c>
    33d4:	e594400c 	ldr	r4, [r4, #12]
    33d8:	e1510004 	cmp	r1, r4
    33dc:	0a000005 	beq	33f8 <_malloc_r+0x100>
    33e0:	e5942004 	ldr	r2, [r4, #4]
    33e4:	e3c22003 	bic	r2, r2, #3
    33e8:	e0653002 	rsb	r3, r5, r2
    33ec:	e353000f 	cmp	r3, #15
    33f0:	dafffff5 	ble	33cc <_malloc_r+0xd4>
    33f4:	e24ee001 	sub	lr, lr, #1
    33f8:	e28ee001 	add	lr, lr, #1
    33fc:	e59f3604 	ldr	r3, [pc, #1540]	; 3a08 <_malloc_r+0x710>
    3400:	e5974010 	ldr	r4, [r7, #16]
    3404:	e2838008 	add	r8, r3, #8
    3408:	e1540008 	cmp	r4, r8
    340c:	05931004 	ldreq	r1, [r3, #4]
    3410:	0a000016 	beq	3470 <_malloc_r+0x178>
    3414:	e5942004 	ldr	r2, [r4, #4]
    3418:	e3c22003 	bic	r2, r2, #3
    341c:	e0651002 	rsb	r1, r5, r2
    3420:	e351000f 	cmp	r1, #15
    3424:	ca0000f7 	bgt	3808 <_malloc_r+0x510>
    3428:	e3510000 	cmp	r1, #0
    342c:	e5838014 	str	r8, [r3, #20]
    3430:	e5838010 	str	r8, [r3, #16]
    3434:	aa000046 	bge	3554 <_malloc_r+0x25c>
    3438:	e3520c02 	cmp	r2, #512	; 0x200
    343c:	2a0000d2 	bcs	378c <_malloc_r+0x494>
    3440:	e5930004 	ldr	r0, [r3, #4]
    3444:	e1a021a2 	lsr	r2, r2, #3
    3448:	e1a01142 	asr	r1, r2, #2
    344c:	e3a0c001 	mov	r12, #1
    3450:	e180111c 	orr	r1, r0, r12, lsl r1
    3454:	e0832182 	add	r2, r3, r2, lsl #3
    3458:	e5920008 	ldr	r0, [r2, #8]
    345c:	e584200c 	str	r2, [r4, #12]
    3460:	e5840008 	str	r0, [r4, #8]
    3464:	e5831004 	str	r1, [r3, #4]
    3468:	e5824008 	str	r4, [r2, #8]
    346c:	e580400c 	str	r4, [r0, #12]
    3470:	e1a0014e 	asr	r0, lr, #2
    3474:	e3a03001 	mov	r3, #1
    3478:	e1a00013 	lsl	r0, r3, r0
    347c:	e1500001 	cmp	r0, r1
    3480:	8a00003b 	bhi	3574 <_malloc_r+0x27c>
    3484:	e1110000 	tst	r1, r0
    3488:	1a000008 	bne	34b0 <_malloc_r+0x1b8>
    348c:	e1a00310 	lsl	r0, r0, r3
    3490:	e3cee003 	bic	lr, lr, #3
    3494:	e1110000 	tst	r1, r0
    3498:	e28ee004 	add	lr, lr, #4
    349c:	1a000003 	bne	34b0 <_malloc_r+0x1b8>
    34a0:	e1a00080 	lsl	r0, r0, #1
    34a4:	e1110000 	tst	r1, r0
    34a8:	e28ee004 	add	lr, lr, #4
    34ac:	0afffffb 	beq	34a0 <_malloc_r+0x1a8>
    34b0:	e087a18e 	add	r10, r7, lr, lsl #3
    34b4:	e1a0c00a 	mov	r12, r10
    34b8:	e1a0400e 	mov	r4, lr
    34bc:	e59c300c 	ldr	r3, [r12, #12]
    34c0:	e15c0003 	cmp	r12, r3
    34c4:	1a000005 	bne	34e0 <_malloc_r+0x1e8>
    34c8:	ea0000db 	b	383c <_malloc_r+0x544>
    34cc:	e3520000 	cmp	r2, #0
    34d0:	aa0000f4 	bge	38a8 <_malloc_r+0x5b0>
    34d4:	e593300c 	ldr	r3, [r3, #12]
    34d8:	e15c0003 	cmp	r12, r3
    34dc:	0a0000d6 	beq	383c <_malloc_r+0x544>
    34e0:	e5931004 	ldr	r1, [r3, #4]
    34e4:	e3c11003 	bic	r1, r1, #3
    34e8:	e0652001 	rsb	r2, r5, r1
    34ec:	e352000f 	cmp	r2, #15
    34f0:	dafffff5 	ble	34cc <_malloc_r+0x1d4>
    34f4:	e1a04003 	mov	r4, r3
    34f8:	e593000c 	ldr	r0, [r3, #12]
    34fc:	e5b4c008 	ldr	r12, [r4, #8]!
    3500:	e0831005 	add	r1, r3, r5
    3504:	e382e001 	orr	lr, r2, #1
    3508:	e3855001 	orr	r5, r5, #1
    350c:	e58c000c 	str	r0, [r12, #12]
    3510:	e580c008 	str	r12, [r0, #8]
    3514:	e5835004 	str	r5, [r3, #4]
    3518:	e5871014 	str	r1, [r7, #20]
    351c:	e5871010 	str	r1, [r7, #16]
    3520:	e581800c 	str	r8, [r1, #12]
    3524:	e5818008 	str	r8, [r1, #8]
    3528:	e581e004 	str	lr, [r1, #4]
    352c:	e7812002 	str	r2, [r1, r2]
    3530:	e1a00006 	mov	r0, r6
    3534:	eb00029b 	bl	3fa8 <__malloc_unlock>
    3538:	eaffff95 	b	3394 <_malloc_r+0x9c>
    353c:	e35e0004 	cmp	lr, #4
    3540:	8a000087 	bhi	3764 <_malloc_r+0x46c>
    3544:	e1a0e325 	lsr	lr, r5, #6
    3548:	e28ee038 	add	lr, lr, #56	; 0x38
    354c:	e1a0108e 	lsl	r1, lr, #1
    3550:	eaffff97 	b	33b4 <_malloc_r+0xbc>
    3554:	e0842002 	add	r2, r4, r2
    3558:	e5923004 	ldr	r3, [r2, #4]
    355c:	e3833001 	orr	r3, r3, #1
    3560:	e5823004 	str	r3, [r2, #4]
    3564:	e1a00006 	mov	r0, r6
    3568:	eb00028e 	bl	3fa8 <__malloc_unlock>
    356c:	e2844008 	add	r4, r4, #8
    3570:	eaffff87 	b	3394 <_malloc_r+0x9c>
    3574:	e5974008 	ldr	r4, [r7, #8]
    3578:	e594a004 	ldr	r10, [r4, #4]
    357c:	e3caa003 	bic	r10, r10, #3
    3580:	e155000a 	cmp	r5, r10
    3584:	8a000002 	bhi	3594 <_malloc_r+0x29c>
    3588:	e065300a 	rsb	r3, r5, r10
    358c:	e353000f 	cmp	r3, #15
    3590:	ca00005d 	bgt	370c <_malloc_r+0x414>
    3594:	e59f9470 	ldr	r9, [pc, #1136]	; 3a0c <_malloc_r+0x714>
    3598:	e5973408 	ldr	r3, [r7, #1032]	; 0x408
    359c:	e599b000 	ldr	r11, [r9]
    35a0:	e3730001 	cmn	r3, #1
    35a4:	e085b00b 	add	r11, r5, r11
    35a8:	128bba01 	addne	r11, r11, #4096	; 0x1000
    35ac:	128bb00f 	addne	r11, r11, #15
    35b0:	13cbbeff 	bicne	r11, r11, #4080	; 0xff0
    35b4:	028bb010 	addeq	r11, r11, #16
    35b8:	13cbb00f 	bicne	r11, r11, #15
    35bc:	e084200a 	add	r2, r4, r10
    35c0:	e1a00006 	mov	r0, r6
    35c4:	e1a0100b 	mov	r1, r11
    35c8:	e58d2004 	str	r2, [sp, #4]
    35cc:	eb0003d3 	bl	4520 <_sbrk_r>
    35d0:	e3700001 	cmn	r0, #1
    35d4:	e1a08000 	mov	r8, r0
    35d8:	e59d2004 	ldr	r2, [sp, #4]
    35dc:	0a0000e2 	beq	396c <_malloc_r+0x674>
    35e0:	e1520000 	cmp	r2, r0
    35e4:	8a0000bf 	bhi	38e8 <_malloc_r+0x5f0>
    35e8:	e5993004 	ldr	r3, [r9, #4]
    35ec:	e1520008 	cmp	r2, r8
    35f0:	e08b3003 	add	r3, r11, r3
    35f4:	e5893004 	str	r3, [r9, #4]
    35f8:	0a0000df 	beq	397c <_malloc_r+0x684>
    35fc:	e5971408 	ldr	r1, [r7, #1032]	; 0x408
    3600:	e3710001 	cmn	r1, #1
    3604:	10622008 	rsbne	r2, r2, r8
    3608:	059f33f8 	ldreq	r3, [pc, #1016]	; 3a08 <_malloc_r+0x710>
    360c:	10833002 	addne	r3, r3, r2
    3610:	05838408 	streq	r8, [r3, #1032]	; 0x408
    3614:	15893004 	strne	r3, [r9, #4]
    3618:	e2183007 	ands	r3, r8, #7
    361c:	12632008 	rsbne	r2, r3, #8
    3620:	10888002 	addne	r8, r8, r2
    3624:	12633a01 	rsbne	r3, r3, #4096	; 0x1000
    3628:	12832008 	addne	r2, r3, #8
    362c:	e088300b 	add	r3, r8, r11
    3630:	03a02a01 	moveq	r2, #4096	; 0x1000
    3634:	e1a03a03 	lsl	r3, r3, #20
    3638:	e042ba23 	sub	r11, r2, r3, lsr #20
    363c:	e1a0100b 	mov	r1, r11
    3640:	e1a00006 	mov	r0, r6
    3644:	eb0003b5 	bl	4520 <_sbrk_r>
    3648:	e3700001 	cmn	r0, #1
    364c:	10682000 	rsbne	r2, r8, r0
    3650:	e5993004 	ldr	r3, [r9, #4]
    3654:	108b2002 	addne	r2, r11, r2
    3658:	03a0b000 	moveq	r11, #0
    365c:	13822001 	orrne	r2, r2, #1
    3660:	03a02001 	moveq	r2, #1
    3664:	e08b3003 	add	r3, r11, r3
    3668:	e1540007 	cmp	r4, r7
    366c:	e5893004 	str	r3, [r9, #4]
    3670:	e5878008 	str	r8, [r7, #8]
    3674:	e5882004 	str	r2, [r8, #4]
    3678:	0a00000d 	beq	36b4 <_malloc_r+0x3bc>
    367c:	e35a000f 	cmp	r10, #15
    3680:	9a0000ac 	bls	3938 <_malloc_r+0x640>
    3684:	e594c004 	ldr	r12, [r4, #4]
    3688:	e24a200c 	sub	r2, r10, #12
    368c:	e3c22007 	bic	r2, r2, #7
    3690:	e20cc001 	and	r12, r12, #1
    3694:	e0841002 	add	r1, r4, r2
    3698:	e3a00005 	mov	r0, #5
    369c:	e182c00c 	orr	r12, r2, r12
    36a0:	e352000f 	cmp	r2, #15
    36a4:	e584c004 	str	r12, [r4, #4]
    36a8:	e5810004 	str	r0, [r1, #4]
    36ac:	e5810008 	str	r0, [r1, #8]
    36b0:	8a0000b8 	bhi	3998 <_malloc_r+0x6a0>
    36b4:	e599202c 	ldr	r2, [r9, #44]	; 0x2c
    36b8:	e1530002 	cmp	r3, r2
    36bc:	859f2348 	ldrhi	r2, [pc, #840]	; 3a0c <_malloc_r+0x714>
    36c0:	8582302c 	strhi	r3, [r2, #44]	; 0x2c
    36c4:	e5992030 	ldr	r2, [r9, #48]	; 0x30
    36c8:	e5974008 	ldr	r4, [r7, #8]
    36cc:	e1530002 	cmp	r3, r2
    36d0:	95943004 	ldrls	r3, [r4, #4]
    36d4:	85942004 	ldrhi	r2, [r4, #4]
    36d8:	859f132c 	ldrhi	r1, [pc, #812]	; 3a0c <_malloc_r+0x714>
    36dc:	93c33003 	bicls	r3, r3, #3
    36e0:	85813030 	strhi	r3, [r1, #48]	; 0x30
    36e4:	83c23003 	bichi	r3, r2, #3
    36e8:	e1550003 	cmp	r5, r3
    36ec:	e0653003 	rsb	r3, r5, r3
    36f0:	8a000001 	bhi	36fc <_malloc_r+0x404>
    36f4:	e353000f 	cmp	r3, #15
    36f8:	ca000003 	bgt	370c <_malloc_r+0x414>
    36fc:	e1a00006 	mov	r0, r6
    3700:	eb000228 	bl	3fa8 <__malloc_unlock>
    3704:	e3a04000 	mov	r4, #0
    3708:	eaffff21 	b	3394 <_malloc_r+0x9c>
    370c:	e0842005 	add	r2, r4, r5
    3710:	e3833001 	orr	r3, r3, #1
    3714:	e3855001 	orr	r5, r5, #1
    3718:	e5845004 	str	r5, [r4, #4]
    371c:	e1a00006 	mov	r0, r6
    3720:	e5823004 	str	r3, [r2, #4]
    3724:	e5872008 	str	r2, [r7, #8]
    3728:	e2844008 	add	r4, r4, #8
    372c:	eb00021d 	bl	3fa8 <__malloc_unlock>
    3730:	eaffff17 	b	3394 <_malloc_r+0x9c>
    3734:	e0842002 	add	r2, r4, r2
    3738:	e5920004 	ldr	r0, [r2, #4]
    373c:	e2841008 	add	r1, r4, #8
    3740:	e891000a 	ldm	r1, {r1, r3}
    3744:	e3800001 	orr	r0, r0, #1
    3748:	e5820004 	str	r0, [r2, #4]
    374c:	e581300c 	str	r3, [r1, #12]
    3750:	e5831008 	str	r1, [r3, #8]
    3754:	e1a00006 	mov	r0, r6
    3758:	eb000212 	bl	3fa8 <__malloc_unlock>
    375c:	e2844008 	add	r4, r4, #8
    3760:	eaffff0b 	b	3394 <_malloc_r+0x9c>
    3764:	e35e0014 	cmp	lr, #20
    3768:	928ee05b 	addls	lr, lr, #91	; 0x5b
    376c:	91a0108e 	lslls	r1, lr, #1
    3770:	9affff0f 	bls	33b4 <_malloc_r+0xbc>
    3774:	e35e0054 	cmp	lr, #84	; 0x54
    3778:	8a000061 	bhi	3904 <_malloc_r+0x60c>
    377c:	e1a0e625 	lsr	lr, r5, #12
    3780:	e28ee06e 	add	lr, lr, #110	; 0x6e
    3784:	e1a0108e 	lsl	r1, lr, #1
    3788:	eaffff09 	b	33b4 <_malloc_r+0xbc>
    378c:	e1a034a2 	lsr	r3, r2, #9
    3790:	e3530004 	cmp	r3, #4
    3794:	9a00004f 	bls	38d8 <_malloc_r+0x5e0>
    3798:	e3530014 	cmp	r3, #20
    379c:	9283a05b 	addls	r10, r3, #91	; 0x5b
    37a0:	91a0008a 	lslls	r0, r10, #1
    37a4:	9a000004 	bls	37bc <_malloc_r+0x4c4>
    37a8:	e3530054 	cmp	r3, #84	; 0x54
    37ac:	8a00007f 	bhi	39b0 <_malloc_r+0x6b8>
    37b0:	e1a0a622 	lsr	r10, r2, #12
    37b4:	e28aa06e 	add	r10, r10, #110	; 0x6e
    37b8:	e1a0008a 	lsl	r0, r10, #1
    37bc:	e0870100 	add	r0, r7, r0, lsl #2
    37c0:	e5903008 	ldr	r3, [r0, #8]
    37c4:	e1530000 	cmp	r3, r0
    37c8:	e59fc238 	ldr	r12, [pc, #568]	; 3a08 <_malloc_r+0x710>
    37cc:	0a000052 	beq	391c <_malloc_r+0x624>
    37d0:	e5931004 	ldr	r1, [r3, #4]
    37d4:	e3c11003 	bic	r1, r1, #3
    37d8:	e1520001 	cmp	r2, r1
    37dc:	2a000002 	bcs	37ec <_malloc_r+0x4f4>
    37e0:	e5933008 	ldr	r3, [r3, #8]
    37e4:	e1500003 	cmp	r0, r3
    37e8:	1afffff8 	bne	37d0 <_malloc_r+0x4d8>
    37ec:	e593200c 	ldr	r2, [r3, #12]
    37f0:	e5971004 	ldr	r1, [r7, #4]
    37f4:	e584200c 	str	r2, [r4, #12]
    37f8:	e5843008 	str	r3, [r4, #8]
    37fc:	e583400c 	str	r4, [r3, #12]
    3800:	e5824008 	str	r4, [r2, #8]
    3804:	eaffff19 	b	3470 <_malloc_r+0x178>
    3808:	e0842005 	add	r2, r4, r5
    380c:	e3810001 	orr	r0, r1, #1
    3810:	e3855001 	orr	r5, r5, #1
    3814:	e5845004 	str	r5, [r4, #4]
    3818:	e5832014 	str	r2, [r3, #20]
    381c:	e5832010 	str	r2, [r3, #16]
    3820:	e582800c 	str	r8, [r2, #12]
    3824:	e9820101 	stmib	r2, {r0, r8}
    3828:	e7821001 	str	r1, [r2, r1]
    382c:	e1a00006 	mov	r0, r6
    3830:	eb0001dc 	bl	3fa8 <__malloc_unlock>
    3834:	e2844008 	add	r4, r4, #8
    3838:	eafffed5 	b	3394 <_malloc_r+0x9c>
    383c:	e2844001 	add	r4, r4, #1
    3840:	e3140003 	tst	r4, #3
    3844:	e28cc008 	add	r12, r12, #8
    3848:	1affff1b 	bne	34bc <_malloc_r+0x1c4>
    384c:	e31e0003 	tst	lr, #3
    3850:	e24a3008 	sub	r3, r10, #8
    3854:	0a000062 	beq	39e4 <_malloc_r+0x6ec>
    3858:	e59aa000 	ldr	r10, [r10]
    385c:	e15a0003 	cmp	r10, r3
    3860:	e24ee001 	sub	lr, lr, #1
    3864:	0afffff8 	beq	384c <_malloc_r+0x554>
    3868:	e5973004 	ldr	r3, [r7, #4]
    386c:	e1a00080 	lsl	r0, r0, #1
    3870:	e1500003 	cmp	r0, r3
    3874:	8affff3e 	bhi	3574 <_malloc_r+0x27c>
    3878:	e3500000 	cmp	r0, #0
    387c:	0affff3c 	beq	3574 <_malloc_r+0x27c>
    3880:	e1130000 	tst	r3, r0
    3884:	0a00005a 	beq	39f4 <_malloc_r+0x6fc>
    3888:	e1a0e004 	mov	lr, r4
    388c:	eaffff07 	b	34b0 <_malloc_r+0x1b8>
    3890:	e2843008 	add	r3, r4, #8
    3894:	e5944014 	ldr	r4, [r4, #20]
    3898:	e1530004 	cmp	r3, r4
    389c:	028ee002 	addeq	lr, lr, #2
    38a0:	0afffed5 	beq	33fc <_malloc_r+0x104>
    38a4:	eafffead 	b	3360 <_malloc_r+0x68>
    38a8:	e0831001 	add	r1, r3, r1
    38ac:	e5910004 	ldr	r0, [r1, #4]
    38b0:	e1a04003 	mov	r4, r3
    38b4:	e5b42008 	ldr	r2, [r4, #8]!
    38b8:	e593300c 	ldr	r3, [r3, #12]
    38bc:	e3800001 	orr	r0, r0, #1
    38c0:	e5810004 	str	r0, [r1, #4]
    38c4:	e582300c 	str	r3, [r2, #12]
    38c8:	e5832008 	str	r2, [r3, #8]
    38cc:	e1a00006 	mov	r0, r6
    38d0:	eb0001b4 	bl	3fa8 <__malloc_unlock>
    38d4:	eafffeae 	b	3394 <_malloc_r+0x9c>
    38d8:	e1a0a322 	lsr	r10, r2, #6
    38dc:	e28aa038 	add	r10, r10, #56	; 0x38
    38e0:	e1a0008a 	lsl	r0, r10, #1
    38e4:	eaffffb4 	b	37bc <_malloc_r+0x4c4>
    38e8:	e1540007 	cmp	r4, r7
    38ec:	0affff3d 	beq	35e8 <_malloc_r+0x2f0>
    38f0:	e59f3110 	ldr	r3, [pc, #272]	; 3a08 <_malloc_r+0x710>
    38f4:	e5934008 	ldr	r4, [r3, #8]
    38f8:	e5943004 	ldr	r3, [r4, #4]
    38fc:	e3c33003 	bic	r3, r3, #3
    3900:	eaffff78 	b	36e8 <_malloc_r+0x3f0>
    3904:	e35e0f55 	cmp	lr, #340	; 0x154
    3908:	8a00000f 	bhi	394c <_malloc_r+0x654>
    390c:	e1a0e7a5 	lsr	lr, r5, #15
    3910:	e28ee077 	add	lr, lr, #119	; 0x77
    3914:	e1a0108e 	lsl	r1, lr, #1
    3918:	eafffea5 	b	33b4 <_malloc_r+0xbc>
    391c:	e59c2004 	ldr	r2, [r12, #4]
    3920:	e1a0a14a 	asr	r10, r10, #2
    3924:	e3a01001 	mov	r1, #1
    3928:	e1821a11 	orr	r1, r2, r1, lsl r10
    392c:	e1a02003 	mov	r2, r3
    3930:	e58c1004 	str	r1, [r12, #4]
    3934:	eaffffae 	b	37f4 <_malloc_r+0x4fc>
    3938:	e3a03001 	mov	r3, #1
    393c:	e5883004 	str	r3, [r8, #4]
    3940:	e1a04008 	mov	r4, r8
    3944:	e3a03000 	mov	r3, #0
    3948:	eaffff66 	b	36e8 <_malloc_r+0x3f0>
    394c:	e59f30bc 	ldr	r3, [pc, #188]	; 3a10 <_malloc_r+0x718>
    3950:	e15e0003 	cmp	lr, r3
    3954:	91a0e925 	lsrls	lr, r5, #18
    3958:	928ee07c 	addls	lr, lr, #124	; 0x7c
    395c:	91a0108e 	lslls	r1, lr, #1
    3960:	83a010fc 	movhi	r1, #252	; 0xfc
    3964:	83a0e07e 	movhi	lr, #126	; 0x7e
    3968:	eafffe91 	b	33b4 <_malloc_r+0xbc>
    396c:	e5974008 	ldr	r4, [r7, #8]
    3970:	e5943004 	ldr	r3, [r4, #4]
    3974:	e3c33003 	bic	r3, r3, #3
    3978:	eaffff5a 	b	36e8 <_malloc_r+0x3f0>
    397c:	e1b01a02 	lsls	r1, r2, #20
    3980:	1affff1d 	bne	35fc <_malloc_r+0x304>
    3984:	e5972008 	ldr	r2, [r7, #8]
    3988:	e08b100a 	add	r1, r11, r10
    398c:	e3811001 	orr	r1, r1, #1
    3990:	e5821004 	str	r1, [r2, #4]
    3994:	eaffff46 	b	36b4 <_malloc_r+0x3bc>
    3998:	e1a00006 	mov	r0, r6
    399c:	e2841008 	add	r1, r4, #8
    39a0:	ebfffbb8 	bl	2888 <_free_r>
    39a4:	e59f3060 	ldr	r3, [pc, #96]	; 3a0c <_malloc_r+0x714>
    39a8:	e5933004 	ldr	r3, [r3, #4]
    39ac:	eaffff40 	b	36b4 <_malloc_r+0x3bc>
    39b0:	e3530f55 	cmp	r3, #340	; 0x154
    39b4:	91a0a7a2 	lsrls	r10, r2, #15
    39b8:	928aa077 	addls	r10, r10, #119	; 0x77
    39bc:	91a0008a 	lslls	r0, r10, #1
    39c0:	9affff7d 	bls	37bc <_malloc_r+0x4c4>
    39c4:	e59f1044 	ldr	r1, [pc, #68]	; 3a10 <_malloc_r+0x718>
    39c8:	e1530001 	cmp	r3, r1
    39cc:	91a0a922 	lsrls	r10, r2, #18
    39d0:	928aa07c 	addls	r10, r10, #124	; 0x7c
    39d4:	91a0008a 	lslls	r0, r10, #1
    39d8:	83a000fc 	movhi	r0, #252	; 0xfc
    39dc:	83a0a07e 	movhi	r10, #126	; 0x7e
    39e0:	eaffff75 	b	37bc <_malloc_r+0x4c4>
    39e4:	e5973004 	ldr	r3, [r7, #4]
    39e8:	e1c33000 	bic	r3, r3, r0
    39ec:	e5873004 	str	r3, [r7, #4]
    39f0:	eaffff9d 	b	386c <_malloc_r+0x574>
    39f4:	e1a00080 	lsl	r0, r0, #1
    39f8:	e1130000 	tst	r3, r0
    39fc:	e2844004 	add	r4, r4, #4
    3a00:	1affffa0 	bne	3888 <_malloc_r+0x590>
    3a04:	eafffffa 	b	39f4 <_malloc_r+0x6fc>
    3a08:	0000e89c 	.word	0x0000e89c
    3a0c:	00042e48 	.word	0x00042e48
    3a10:	00000554 	.word	0x00000554

00003a14 <memchr>:
    3a14:	e3100003 	tst	r0, #3
    3a18:	e92d0070 	push	{r4, r5, r6}
    3a1c:	e20110ff 	and	r1, r1, #255	; 0xff
    3a20:	0a00003c 	beq	3b18 <memchr+0x104>
    3a24:	e3520000 	cmp	r2, #0
    3a28:	e242c001 	sub	r12, r2, #1
    3a2c:	0a00003b 	beq	3b20 <memchr+0x10c>
    3a30:	e5d03000 	ldrb	r3, [r0]
    3a34:	e1530001 	cmp	r3, r1
    3a38:	0a00001f 	beq	3abc <memchr+0xa8>
    3a3c:	e2803001 	add	r3, r0, #1
    3a40:	ea000006 	b	3a60 <memchr+0x4c>
    3a44:	e35c0000 	cmp	r12, #0
    3a48:	0a00001d 	beq	3ac4 <memchr+0xb0>
    3a4c:	e5d02000 	ldrb	r2, [r0]
    3a50:	e1520001 	cmp	r2, r1
    3a54:	e2833001 	add	r3, r3, #1
    3a58:	e24cc001 	sub	r12, r12, #1
    3a5c:	0a000016 	beq	3abc <memchr+0xa8>
    3a60:	e3130003 	tst	r3, #3
    3a64:	e1a00003 	mov	r0, r3
    3a68:	1afffff5 	bne	3a44 <memchr+0x30>
    3a6c:	e35c0003 	cmp	r12, #3
    3a70:	8a000015 	bhi	3acc <memchr+0xb8>
    3a74:	e35c0000 	cmp	r12, #0
    3a78:	e24c4001 	sub	r4, r12, #1
    3a7c:	0a000010 	beq	3ac4 <memchr+0xb0>
    3a80:	e5d03000 	ldrb	r3, [r0]
    3a84:	e1530001 	cmp	r3, r1
    3a88:	0a00000b 	beq	3abc <memchr+0xa8>
    3a8c:	e2802001 	add	r2, r0, #1
    3a90:	e3a03000 	mov	r3, #0
    3a94:	ea000004 	b	3aac <memchr+0x98>
    3a98:	e5d0c000 	ldrb	r12, [r0]
    3a9c:	e15c0001 	cmp	r12, r1
    3aa0:	e2822001 	add	r2, r2, #1
    3aa4:	e2833001 	add	r3, r3, #1
    3aa8:	0a000003 	beq	3abc <memchr+0xa8>
    3aac:	e1540003 	cmp	r4, r3
    3ab0:	e1a00002 	mov	r0, r2
    3ab4:	1afffff7 	bne	3a98 <memchr+0x84>
    3ab8:	e3a00000 	mov	r0, #0
    3abc:	e8bd0070 	pop	{r4, r5, r6}
    3ac0:	e12fff1e 	bx	lr
    3ac4:	e1a0000c 	mov	r0, r12
    3ac8:	eafffffb 	b	3abc <memchr+0xa8>
    3acc:	e1816401 	orr	r6, r1, r1, lsl #8
    3ad0:	e1866806 	orr	r6, r6, r6, lsl #16
    3ad4:	e5903000 	ldr	r3, [r0]
    3ad8:	e59f4048 	ldr	r4, [pc, #72]	; 3b28 <memchr+0x114>
    3adc:	e0263003 	eor	r3, r6, r3
    3ae0:	e0834004 	add	r4, r3, r4
    3ae4:	e59f2040 	ldr	r2, [pc, #64]	; 3b2c <memchr+0x118>
    3ae8:	e1c44003 	bic	r4, r4, r3
    3aec:	e0042002 	and	r2, r4, r2
    3af0:	e3520000 	cmp	r2, #0
    3af4:	e1a05000 	mov	r5, r0
    3af8:	e2800004 	add	r0, r0, #4
    3afc:	1a000003 	bne	3b10 <memchr+0xfc>
    3b00:	e24cc004 	sub	r12, r12, #4
    3b04:	e35c0003 	cmp	r12, #3
    3b08:	8afffff1 	bhi	3ad4 <memchr+0xc0>
    3b0c:	eaffffd8 	b	3a74 <memchr+0x60>
    3b10:	e1a00005 	mov	r0, r5
    3b14:	eaffffd6 	b	3a74 <memchr+0x60>
    3b18:	e1a0c002 	mov	r12, r2
    3b1c:	eaffffd2 	b	3a6c <memchr+0x58>
    3b20:	e1a00002 	mov	r0, r2
    3b24:	eaffffe4 	b	3abc <memchr+0xa8>
    3b28:	fefefeff 	.word	0xfefefeff
    3b2c:	80808080 	.word	0x80808080

00003b30 <memcpy>:
    3b30:	e3520003 	cmp	r2, #3
    3b34:	e92d01f0 	push	{r4, r5, r6, r7, r8}
    3b38:	8a000009 	bhi	3b64 <memcpy+0x34>
    3b3c:	e3520000 	cmp	r2, #0
    3b40:	0a000005 	beq	3b5c <memcpy+0x2c>
    3b44:	e3a03000 	mov	r3, #0
    3b48:	e7d1c003 	ldrb	r12, [r1, r3]
    3b4c:	e7c0c003 	strb	r12, [r0, r3]
    3b50:	e2833001 	add	r3, r3, #1
    3b54:	e1530002 	cmp	r3, r2
    3b58:	1afffffa 	bne	3b48 <memcpy+0x18>
    3b5c:	e8bd01f0 	pop	{r4, r5, r6, r7, r8}
    3b60:	e12fff1e 	bx	lr
    3b64:	e3100003 	tst	r0, #3
    3b68:	e0802002 	add	r2, r0, r2
    3b6c:	0a00000b 	beq	3ba0 <memcpy+0x70>
    3b70:	e280c001 	add	r12, r0, #1
    3b74:	e2814001 	add	r4, r1, #1
    3b78:	e20c3003 	and	r3, r12, #3
    3b7c:	e5545001 	ldrb	r5, [r4, #-1]
    3b80:	e3530000 	cmp	r3, #0
    3b84:	e1a01004 	mov	r1, r4
    3b88:	e1a0300c 	mov	r3, r12
    3b8c:	e54c5001 	strb	r5, [r12, #-1]
    3b90:	e2844001 	add	r4, r4, #1
    3b94:	e28cc001 	add	r12, r12, #1
    3b98:	1afffff6 	bne	3b78 <memcpy+0x48>
    3b9c:	ea000000 	b	3ba4 <memcpy+0x74>
    3ba0:	e1a03000 	mov	r3, r0
    3ba4:	e211c003 	ands	r12, r1, #3
    3ba8:	1a00004f 	bne	3cec <memcpy+0x1bc>
    3bac:	e063c002 	rsb	r12, r3, r2
    3bb0:	e35c003f 	cmp	r12, #63	; 0x3f
    3bb4:	da000024 	ble	3c4c <memcpy+0x11c>
    3bb8:	e591c000 	ldr	r12, [r1]
    3bbc:	e583c000 	str	r12, [r3]
    3bc0:	e591c004 	ldr	r12, [r1, #4]
    3bc4:	e583c004 	str	r12, [r3, #4]
    3bc8:	e591c008 	ldr	r12, [r1, #8]
    3bcc:	e583c008 	str	r12, [r3, #8]
    3bd0:	e591c00c 	ldr	r12, [r1, #12]
    3bd4:	e583c00c 	str	r12, [r3, #12]
    3bd8:	e591c010 	ldr	r12, [r1, #16]
    3bdc:	e583c010 	str	r12, [r3, #16]
    3be0:	e591c014 	ldr	r12, [r1, #20]
    3be4:	e583c014 	str	r12, [r3, #20]
    3be8:	e591c018 	ldr	r12, [r1, #24]
    3bec:	e583c018 	str	r12, [r3, #24]
    3bf0:	e591c01c 	ldr	r12, [r1, #28]
    3bf4:	e583c01c 	str	r12, [r3, #28]
    3bf8:	e591c020 	ldr	r12, [r1, #32]
    3bfc:	e583c020 	str	r12, [r3, #32]
    3c00:	e591c024 	ldr	r12, [r1, #36]	; 0x24
    3c04:	e583c024 	str	r12, [r3, #36]	; 0x24
    3c08:	e591c028 	ldr	r12, [r1, #40]	; 0x28
    3c0c:	e583c028 	str	r12, [r3, #40]	; 0x28
    3c10:	e591c02c 	ldr	r12, [r1, #44]	; 0x2c
    3c14:	e583c02c 	str	r12, [r3, #44]	; 0x2c
    3c18:	e591c030 	ldr	r12, [r1, #48]	; 0x30
    3c1c:	e583c030 	str	r12, [r3, #48]	; 0x30
    3c20:	e591c034 	ldr	r12, [r1, #52]	; 0x34
    3c24:	e583c034 	str	r12, [r3, #52]	; 0x34
    3c28:	e591c038 	ldr	r12, [r1, #56]	; 0x38
    3c2c:	e583c038 	str	r12, [r3, #56]	; 0x38
    3c30:	e591c03c 	ldr	r12, [r1, #60]	; 0x3c
    3c34:	e2833040 	add	r3, r3, #64	; 0x40
    3c38:	e503c004 	str	r12, [r3, #-4]
    3c3c:	e063c002 	rsb	r12, r3, r2
    3c40:	e35c003f 	cmp	r12, #63	; 0x3f
    3c44:	e2811040 	add	r1, r1, #64	; 0x40
    3c48:	caffffda 	bgt	3bb8 <memcpy+0x88>
    3c4c:	e35c000f 	cmp	r12, #15
    3c50:	da00000c 	ble	3c88 <memcpy+0x158>
    3c54:	e591c000 	ldr	r12, [r1]
    3c58:	e583c000 	str	r12, [r3]
    3c5c:	e591c004 	ldr	r12, [r1, #4]
    3c60:	e583c004 	str	r12, [r3, #4]
    3c64:	e591c008 	ldr	r12, [r1, #8]
    3c68:	e583c008 	str	r12, [r3, #8]
    3c6c:	e591c00c 	ldr	r12, [r1, #12]
    3c70:	e2833010 	add	r3, r3, #16
    3c74:	e503c004 	str	r12, [r3, #-4]
    3c78:	e063c002 	rsb	r12, r3, r2
    3c7c:	e35c000f 	cmp	r12, #15
    3c80:	e2811010 	add	r1, r1, #16
    3c84:	cafffff2 	bgt	3c54 <memcpy+0x124>
    3c88:	e35c0003 	cmp	r12, #3
    3c8c:	da00000a 	ble	3cbc <memcpy+0x18c>
    3c90:	e283c004 	add	r12, r3, #4
    3c94:	e2814004 	add	r4, r1, #4
    3c98:	e06c3002 	rsb	r3, r12, r2
    3c9c:	e5145004 	ldr	r5, [r4, #-4]
    3ca0:	e3530003 	cmp	r3, #3
    3ca4:	e1a01004 	mov	r1, r4
    3ca8:	e1a0300c 	mov	r3, r12
    3cac:	e50c5004 	str	r5, [r12, #-4]
    3cb0:	e2844004 	add	r4, r4, #4
    3cb4:	e28cc004 	add	r12, r12, #4
    3cb8:	cafffff6 	bgt	3c98 <memcpy+0x168>
    3cbc:	e1520003 	cmp	r2, r3
    3cc0:	82833001 	addhi	r3, r3, #1
    3cc4:	82811001 	addhi	r1, r1, #1
    3cc8:	82822001 	addhi	r2, r2, #1
    3ccc:	9affffa2 	bls	3b5c <memcpy+0x2c>
    3cd0:	e551c001 	ldrb	r12, [r1, #-1]
    3cd4:	e2833001 	add	r3, r3, #1
    3cd8:	e1530002 	cmp	r3, r2
    3cdc:	e543c002 	strb	r12, [r3, #-2]
    3ce0:	e2811001 	add	r1, r1, #1
    3ce4:	1afffff9 	bne	3cd0 <memcpy+0x1a0>
    3ce8:	eaffff9b 	b	3b5c <memcpy+0x2c>
    3cec:	e0635002 	rsb	r5, r3, r2
    3cf0:	e06c4001 	rsb	r4, r12, r1
    3cf4:	e3550003 	cmp	r5, #3
    3cf8:	e5945000 	ldr	r5, [r4]
    3cfc:	daffffee 	ble	3cbc <memcpy+0x18c>
    3d00:	e26c6004 	rsb	r6, r12, #4
    3d04:	e1a0718c 	lsl	r7, r12, #3
    3d08:	e1a06186 	lsl	r6, r6, #3
    3d0c:	e283c004 	add	r12, r3, #4
    3d10:	e1a08735 	lsr	r8, r5, r7
    3d14:	e5b45004 	ldr	r5, [r4, #4]!
    3d18:	e1888615 	orr	r8, r8, r5, lsl r6
    3d1c:	e06c3002 	rsb	r3, r12, r2
    3d20:	e3530003 	cmp	r3, #3
    3d24:	e50c8004 	str	r8, [r12, #-4]
    3d28:	e1a0300c 	mov	r3, r12
    3d2c:	e2811004 	add	r1, r1, #4
    3d30:	e28cc004 	add	r12, r12, #4
    3d34:	cafffff5 	bgt	3d10 <memcpy+0x1e0>
    3d38:	eaffffdf 	b	3cbc <memcpy+0x18c>

00003d3c <memmove>:
    3d3c:	e1500001 	cmp	r0, r1
    3d40:	e92d00f0 	push	{r4, r5, r6, r7}
    3d44:	9a00000e 	bls	3d84 <memmove+0x48>
    3d48:	e081c002 	add	r12, r1, r2
    3d4c:	e150000c 	cmp	r0, r12
    3d50:	2a00000b 	bcs	3d84 <memmove+0x48>
    3d54:	e3520000 	cmp	r2, #0
    3d58:	e0803002 	add	r3, r0, r2
    3d5c:	e2422001 	sub	r2, r2, #1
    3d60:	0a000005 	beq	3d7c <memmove+0x40>
    3d64:	e1a0100c 	mov	r1, r12
    3d68:	e571c001 	ldrb	r12, [r1, #-1]!
    3d6c:	e2422001 	sub	r2, r2, #1
    3d70:	e3720001 	cmn	r2, #1
    3d74:	e563c001 	strb	r12, [r3, #-1]!
    3d78:	1afffffa 	bne	3d68 <memmove+0x2c>
    3d7c:	e8bd00f0 	pop	{r4, r5, r6, r7}
    3d80:	e12fff1e 	bx	lr
    3d84:	e352000f 	cmp	r2, #15
    3d88:	8a000009 	bhi	3db4 <memmove+0x78>
    3d8c:	e1a03000 	mov	r3, r0
    3d90:	e3520000 	cmp	r2, #0
    3d94:	0afffff8 	beq	3d7c <memmove+0x40>
    3d98:	e2411001 	sub	r1, r1, #1
    3d9c:	e0832002 	add	r2, r3, r2
    3da0:	e5f1c001 	ldrb	r12, [r1, #1]!
    3da4:	e4c3c001 	strb	r12, [r3], #1
    3da8:	e1530002 	cmp	r3, r2
    3dac:	1afffffb 	bne	3da0 <memmove+0x64>
    3db0:	eafffff1 	b	3d7c <memmove+0x40>
    3db4:	e1813000 	orr	r3, r1, r0
    3db8:	e3130003 	tst	r3, #3
    3dbc:	1a000027 	bne	3e60 <memmove+0x124>
    3dc0:	e1a0c001 	mov	r12, r1
    3dc4:	e1a03000 	mov	r3, r0
    3dc8:	e1a04002 	mov	r4, r2
    3dcc:	e59c5000 	ldr	r5, [r12]
    3dd0:	e5835000 	str	r5, [r3]
    3dd4:	e59c5004 	ldr	r5, [r12, #4]
    3dd8:	e5835004 	str	r5, [r3, #4]
    3ddc:	e59c5008 	ldr	r5, [r12, #8]
    3de0:	e5835008 	str	r5, [r3, #8]
    3de4:	e2444010 	sub	r4, r4, #16
    3de8:	e59c500c 	ldr	r5, [r12, #12]
    3dec:	e354000f 	cmp	r4, #15
    3df0:	e583500c 	str	r5, [r3, #12]
    3df4:	e28cc010 	add	r12, r12, #16
    3df8:	e2833010 	add	r3, r3, #16
    3dfc:	8afffff2 	bhi	3dcc <memmove+0x90>
    3e00:	e2424010 	sub	r4, r2, #16
    3e04:	e3c4400f 	bic	r4, r4, #15
    3e08:	e202c00f 	and	r12, r2, #15
    3e0c:	e2844010 	add	r4, r4, #16
    3e10:	e35c0003 	cmp	r12, #3
    3e14:	e0803004 	add	r3, r0, r4
    3e18:	e0811004 	add	r1, r1, r4
    3e1c:	9a000011 	bls	3e68 <memmove+0x12c>
    3e20:	e24cc004 	sub	r12, r12, #4
    3e24:	e1a0712c 	lsr	r7, r12, #2
    3e28:	e0816107 	add	r6, r1, r7, lsl #2
    3e2c:	e1a0c001 	mov	r12, r1
    3e30:	e2866004 	add	r6, r6, #4
    3e34:	e1a04003 	mov	r4, r3
    3e38:	e49c5004 	ldr	r5, [r12], #4
    3e3c:	e15c0006 	cmp	r12, r6
    3e40:	e4845004 	str	r5, [r4], #4
    3e44:	1afffffb 	bne	3e38 <memmove+0xfc>
    3e48:	e287c001 	add	r12, r7, #1
    3e4c:	e1a0c10c 	lsl	r12, r12, #2
    3e50:	e2022003 	and	r2, r2, #3
    3e54:	e081100c 	add	r1, r1, r12
    3e58:	e083300c 	add	r3, r3, r12
    3e5c:	eaffffcb 	b	3d90 <memmove+0x54>
    3e60:	e1a03000 	mov	r3, r0
    3e64:	eaffffcb 	b	3d98 <memmove+0x5c>
    3e68:	e1a0200c 	mov	r2, r12
    3e6c:	eaffffc7 	b	3d90 <memmove+0x54>

00003e70 <memset>:
    3e70:	e3520003 	cmp	r2, #3
    3e74:	e52d4004 	push	{r4}		; (str r4, [sp, #-4]!)
    3e78:	e20110ff 	and	r1, r1, #255	; 0xff
    3e7c:	8a000008 	bhi	3ea4 <memset+0x34>
    3e80:	e3520000 	cmp	r2, #0
    3e84:	0a000004 	beq	3e9c <memset+0x2c>
    3e88:	e1a03000 	mov	r3, r0
    3e8c:	e0822000 	add	r2, r2, r0
    3e90:	e4c31001 	strb	r1, [r3], #1
    3e94:	e1530002 	cmp	r3, r2
    3e98:	1afffffc 	bne	3e90 <memset+0x20>
    3e9c:	e8bd0010 	ldmfd	sp!, {r4}
    3ea0:	e12fff1e 	bx	lr
    3ea4:	e3100003 	tst	r0, #3
    3ea8:	e0802002 	add	r2, r0, r2
    3eac:	0a000007 	beq	3ed0 <memset+0x60>
    3eb0:	e280c001 	add	r12, r0, #1
    3eb4:	e20c3003 	and	r3, r12, #3
    3eb8:	e3530000 	cmp	r3, #0
    3ebc:	e54c1001 	strb	r1, [r12, #-1]
    3ec0:	e1a0300c 	mov	r3, r12
    3ec4:	e28cc001 	add	r12, r12, #1
    3ec8:	1afffff9 	bne	3eb4 <memset+0x44>
    3ecc:	ea000000 	b	3ed4 <memset+0x64>
    3ed0:	e1a03000 	mov	r3, r0
    3ed4:	e0634002 	rsb	r4, r3, r2
    3ed8:	e081c401 	add	r12, r1, r1, lsl #8
    3edc:	e354003f 	cmp	r4, #63	; 0x3f
    3ee0:	e08cc80c 	add	r12, r12, r12, lsl #16
    3ee4:	da00001a 	ble	3f54 <memset+0xe4>
    3ee8:	e583c000 	str	r12, [r3]
    3eec:	e583c004 	str	r12, [r3, #4]
    3ef0:	e583c008 	str	r12, [r3, #8]
    3ef4:	e583c00c 	str	r12, [r3, #12]
    3ef8:	e583c010 	str	r12, [r3, #16]
    3efc:	e583c014 	str	r12, [r3, #20]
    3f00:	e583c018 	str	r12, [r3, #24]
    3f04:	e583c01c 	str	r12, [r3, #28]
    3f08:	e583c020 	str	r12, [r3, #32]
    3f0c:	e583c024 	str	r12, [r3, #36]	; 0x24
    3f10:	e583c028 	str	r12, [r3, #40]	; 0x28
    3f14:	e583c02c 	str	r12, [r3, #44]	; 0x2c
    3f18:	e583c030 	str	r12, [r3, #48]	; 0x30
    3f1c:	e583c034 	str	r12, [r3, #52]	; 0x34
    3f20:	e583c038 	str	r12, [r3, #56]	; 0x38
    3f24:	e583c03c 	str	r12, [r3, #60]	; 0x3c
    3f28:	e2833040 	add	r3, r3, #64	; 0x40
    3f2c:	e0634002 	rsb	r4, r3, r2
    3f30:	e354003f 	cmp	r4, #63	; 0x3f
    3f34:	caffffeb 	bgt	3ee8 <memset+0x78>
    3f38:	ea000005 	b	3f54 <memset+0xe4>
    3f3c:	e583c000 	str	r12, [r3]
    3f40:	e583c004 	str	r12, [r3, #4]
    3f44:	e583c008 	str	r12, [r3, #8]
    3f48:	e583c00c 	str	r12, [r3, #12]
    3f4c:	e2833010 	add	r3, r3, #16
    3f50:	e0634002 	rsb	r4, r3, r2
    3f54:	e354000f 	cmp	r4, #15
    3f58:	cafffff7 	bgt	3f3c <memset+0xcc>
    3f5c:	e3540003 	cmp	r4, #3
    3f60:	da000006 	ble	3f80 <memset+0x110>
    3f64:	e2834004 	add	r4, r3, #4
    3f68:	e0643002 	rsb	r3, r4, r2
    3f6c:	e3530003 	cmp	r3, #3
    3f70:	e504c004 	str	r12, [r4, #-4]
    3f74:	e1a03004 	mov	r3, r4
    3f78:	e2844004 	add	r4, r4, #4
    3f7c:	cafffff9 	bgt	3f68 <memset+0xf8>
    3f80:	e1520003 	cmp	r2, r3
    3f84:	9affffc4 	bls	3e9c <memset+0x2c>
    3f88:	e2833001 	add	r3, r3, #1
    3f8c:	e2822001 	add	r2, r2, #1
    3f90:	e5431001 	strb	r1, [r3, #-1]
    3f94:	e2833001 	add	r3, r3, #1
    3f98:	e1530002 	cmp	r3, r2
    3f9c:	1afffffb 	bne	3f90 <memset+0x120>
    3fa0:	eaffffbd 	b	3e9c <memset+0x2c>

00003fa4 <__malloc_lock>:
    3fa4:	e12fff1e 	bx	lr

00003fa8 <__malloc_unlock>:
    3fa8:	e12fff1e 	bx	lr

00003fac <_realloc_r>:
    3fac:	e92d4ff0 	push	{r4, r5, r6, r7, r8, r9, r10, r11, lr}
    3fb0:	e2514000 	subs	r4, r1, #0
    3fb4:	e24dd00c 	sub	sp, sp, #12
    3fb8:	e1a08000 	mov	r8, r0
    3fbc:	e1a0b002 	mov	r11, r2
    3fc0:	0a0000d1 	beq	430c <_realloc_r+0x360>
    3fc4:	ebfffff6 	bl	3fa4 <__malloc_lock>
    3fc8:	e28b500b 	add	r5, r11, #11
    3fcc:	e3550016 	cmp	r5, #22
    3fd0:	83c55007 	bichi	r5, r5, #7
    3fd4:	93a01010 	movls	r1, #16
    3fd8:	81a06fa5 	lsrhi	r6, r5, #31
    3fdc:	93a06000 	movls	r6, #0
    3fe0:	91a05001 	movls	r5, r1
    3fe4:	e5143004 	ldr	r3, [r4, #-4]
    3fe8:	81a01005 	movhi	r1, r5
    3fec:	e155000b 	cmp	r5, r11
    3ff0:	33866001 	orrcc	r6, r6, #1
    3ff4:	e3560000 	cmp	r6, #0
    3ff8:	e3c37003 	bic	r7, r3, #3
    3ffc:	13a0300c 	movne	r3, #12
    4000:	e244a008 	sub	r10, r4, #8
    4004:	15883000 	strne	r3, [r8]
    4008:	13a06000 	movne	r6, #0
    400c:	1a00000f 	bne	4050 <_realloc_r+0xa4>
    4010:	e1570001 	cmp	r7, r1
    4014:	ba000011 	blt	4060 <_realloc_r+0xb4>
    4018:	e1a06007 	mov	r6, r7
    401c:	e0652006 	rsb	r2, r5, r6
    4020:	e352000f 	cmp	r2, #15
    4024:	e2033001 	and	r3, r3, #1
    4028:	8a00005e 	bhi	41a8 <_realloc_r+0x1fc>
    402c:	e1833006 	orr	r3, r3, r6
    4030:	e58a3004 	str	r3, [r10, #4]
    4034:	e08aa006 	add	r10, r10, r6
    4038:	e59a3004 	ldr	r3, [r10, #4]
    403c:	e3833001 	orr	r3, r3, #1
    4040:	e58a3004 	str	r3, [r10, #4]
    4044:	e1a00008 	mov	r0, r8
    4048:	ebffffd6 	bl	3fa8 <__malloc_unlock>
    404c:	e1a06004 	mov	r6, r4
    4050:	e1a00006 	mov	r0, r6
    4054:	e28dd00c 	add	sp, sp, #12
    4058:	e8bd4ff0 	pop	{r4, r5, r6, r7, r8, r9, r10, r11, lr}
    405c:	e12fff1e 	bx	lr
    4060:	e59f24b4 	ldr	r2, [pc, #1204]	; 451c <_realloc_r+0x570>
    4064:	e592c008 	ldr	r12, [r2, #8]
    4068:	e08a0007 	add	r0, r10, r7
    406c:	e15c0000 	cmp	r12, r0
    4070:	0a0000a9 	beq	431c <_realloc_r+0x370>
    4074:	e590e004 	ldr	lr, [r0, #4]
    4078:	e3ce9001 	bic	r9, lr, #1
    407c:	e0809009 	add	r9, r0, r9
    4080:	e5999004 	ldr	r9, [r9, #4]
    4084:	e3190001 	tst	r9, #1
    4088:	11a0e006 	movne	lr, r6
    408c:	11a0000e 	movne	r0, lr
    4090:	0a00003b 	beq	4184 <_realloc_r+0x1d8>
    4094:	e3130001 	tst	r3, #1
    4098:	1a00004f 	bne	41dc <_realloc_r+0x230>
    409c:	e5149008 	ldr	r9, [r4, #-8]
    40a0:	e069900a 	rsb	r9, r9, r10
    40a4:	e5993004 	ldr	r3, [r9, #4]
    40a8:	e3500000 	cmp	r0, #0
    40ac:	e3c33003 	bic	r3, r3, #3
    40b0:	0a000067 	beq	4254 <_realloc_r+0x2a8>
    40b4:	e150000c 	cmp	r0, r12
    40b8:	e083c007 	add	r12, r3, r7
    40bc:	0a0000ce 	beq	43fc <_realloc_r+0x450>
    40c0:	e08e600c 	add	r6, lr, r12
    40c4:	e1560001 	cmp	r6, r1
    40c8:	ba000062 	blt	4258 <_realloc_r+0x2ac>
    40cc:	e2802008 	add	r2, r0, #8
    40d0:	e892000c 	ldm	r2, {r2, r3}
    40d4:	e5832008 	str	r2, [r3, #8]
    40d8:	e582300c 	str	r3, [r2, #12]
    40dc:	e1a0a009 	mov	r10, r9
    40e0:	e599300c 	ldr	r3, [r9, #12]
    40e4:	e5ba1008 	ldr	r1, [r10, #8]!
    40e8:	e2472004 	sub	r2, r7, #4
    40ec:	e3520024 	cmp	r2, #36	; 0x24
    40f0:	e581300c 	str	r3, [r1, #12]
    40f4:	e5831008 	str	r1, [r3, #8]
    40f8:	8a0000fa 	bhi	44e8 <_realloc_r+0x53c>
    40fc:	e3520013 	cmp	r2, #19
    4100:	91a0300a 	movls	r3, r10
    4104:	9a000014 	bls	415c <_realloc_r+0x1b0>
    4108:	e5943000 	ldr	r3, [r4]
    410c:	e5893008 	str	r3, [r9, #8]
    4110:	e5943004 	ldr	r3, [r4, #4]
    4114:	e352001b 	cmp	r2, #27
    4118:	e589300c 	str	r3, [r9, #12]
    411c:	92844008 	addls	r4, r4, #8
    4120:	92893010 	addls	r3, r9, #16
    4124:	9a00000c 	bls	415c <_realloc_r+0x1b0>
    4128:	e5943008 	ldr	r3, [r4, #8]
    412c:	e5893010 	str	r3, [r9, #16]
    4130:	e594300c 	ldr	r3, [r4, #12]
    4134:	e5893014 	str	r3, [r9, #20]
    4138:	e3520024 	cmp	r2, #36	; 0x24
    413c:	05943010 	ldreq	r3, [r4, #16]
    4140:	05893018 	streq	r3, [r9, #24]
    4144:	05942014 	ldreq	r2, [r4, #20]
    4148:	0589201c 	streq	r2, [r9, #28]
    414c:	12893018 	addne	r3, r9, #24
    4150:	12844010 	addne	r4, r4, #16
    4154:	02893020 	addeq	r3, r9, #32
    4158:	02844018 	addeq	r4, r4, #24
    415c:	e5942000 	ldr	r2, [r4]
    4160:	e5832000 	str	r2, [r3]
    4164:	e5942004 	ldr	r2, [r4, #4]
    4168:	e5832004 	str	r2, [r3, #4]
    416c:	e5942008 	ldr	r2, [r4, #8]
    4170:	e5832008 	str	r2, [r3, #8]
    4174:	e1a0400a 	mov	r4, r10
    4178:	e5993004 	ldr	r3, [r9, #4]
    417c:	e1a0a009 	mov	r10, r9
    4180:	eaffffa5 	b	401c <_realloc_r+0x70>
    4184:	e3cee003 	bic	lr, lr, #3
    4188:	e08e6007 	add	r6, lr, r7
    418c:	e1560001 	cmp	r6, r1
    4190:	baffffbf 	blt	4094 <_realloc_r+0xe8>
    4194:	e2801008 	add	r1, r0, #8
    4198:	e8910006 	ldm	r1, {r1, r2}
    419c:	e581200c 	str	r2, [r1, #12]
    41a0:	e5821008 	str	r1, [r2, #8]
    41a4:	eaffff9c 	b	401c <_realloc_r+0x70>
    41a8:	e08a1005 	add	r1, r10, r5
    41ac:	e3820001 	orr	r0, r2, #1
    41b0:	e1835005 	orr	r5, r3, r5
    41b4:	e58a5004 	str	r5, [r10, #4]
    41b8:	e5810004 	str	r0, [r1, #4]
    41bc:	e0812002 	add	r2, r1, r2
    41c0:	e5923004 	ldr	r3, [r2, #4]
    41c4:	e3833001 	orr	r3, r3, #1
    41c8:	e5823004 	str	r3, [r2, #4]
    41cc:	e1a00008 	mov	r0, r8
    41d0:	e2811008 	add	r1, r1, #8
    41d4:	ebfff9ab 	bl	2888 <_free_r>
    41d8:	eaffff99 	b	4044 <_realloc_r+0x98>
    41dc:	e1a00008 	mov	r0, r8
    41e0:	e1a0100b 	mov	r1, r11
    41e4:	ebfffc43 	bl	32f8 <_malloc_r>
    41e8:	e2506000 	subs	r6, r0, #0
    41ec:	0a000015 	beq	4248 <_realloc_r+0x29c>
    41f0:	e5143004 	ldr	r3, [r4, #-4]
    41f4:	e3c32001 	bic	r2, r3, #1
    41f8:	e2461008 	sub	r1, r6, #8
    41fc:	e08a2002 	add	r2, r10, r2
    4200:	e1510002 	cmp	r1, r2
    4204:	0a0000b3 	beq	44d8 <_realloc_r+0x52c>
    4208:	e2472004 	sub	r2, r7, #4
    420c:	e3520024 	cmp	r2, #36	; 0x24
    4210:	8a000076 	bhi	43f0 <_realloc_r+0x444>
    4214:	e3520013 	cmp	r2, #19
    4218:	91a03006 	movls	r3, r6
    421c:	91a02004 	movls	r2, r4
    4220:	8a000052 	bhi	4370 <_realloc_r+0x3c4>
    4224:	e5921000 	ldr	r1, [r2]
    4228:	e5831000 	str	r1, [r3]
    422c:	e5921004 	ldr	r1, [r2, #4]
    4230:	e5831004 	str	r1, [r3, #4]
    4234:	e5922008 	ldr	r2, [r2, #8]
    4238:	e5832008 	str	r2, [r3, #8]
    423c:	e1a00008 	mov	r0, r8
    4240:	e1a01004 	mov	r1, r4
    4244:	ebfff98f 	bl	2888 <_free_r>
    4248:	e1a00008 	mov	r0, r8
    424c:	ebffff55 	bl	3fa8 <__malloc_unlock>
    4250:	eaffff7e 	b	4050 <_realloc_r+0xa4>
    4254:	e083c007 	add	r12, r3, r7
    4258:	e15c0001 	cmp	r12, r1
    425c:	baffffde 	blt	41dc <_realloc_r+0x230>
    4260:	e1a06009 	mov	r6, r9
    4264:	e599300c 	ldr	r3, [r9, #12]
    4268:	e5b61008 	ldr	r1, [r6, #8]!
    426c:	e2472004 	sub	r2, r7, #4
    4270:	e3520024 	cmp	r2, #36	; 0x24
    4274:	e581300c 	str	r3, [r1, #12]
    4278:	e5831008 	str	r1, [r3, #8]
    427c:	8a000051 	bhi	43c8 <_realloc_r+0x41c>
    4280:	e3520013 	cmp	r2, #19
    4284:	91a03006 	movls	r3, r6
    4288:	9a000014 	bls	42e0 <_realloc_r+0x334>
    428c:	e5943000 	ldr	r3, [r4]
    4290:	e5893008 	str	r3, [r9, #8]
    4294:	e5943004 	ldr	r3, [r4, #4]
    4298:	e352001b 	cmp	r2, #27
    429c:	e589300c 	str	r3, [r9, #12]
    42a0:	92844008 	addls	r4, r4, #8
    42a4:	92893010 	addls	r3, r9, #16
    42a8:	9a00000c 	bls	42e0 <_realloc_r+0x334>
    42ac:	e5943008 	ldr	r3, [r4, #8]
    42b0:	e5893010 	str	r3, [r9, #16]
    42b4:	e594300c 	ldr	r3, [r4, #12]
    42b8:	e5893014 	str	r3, [r9, #20]
    42bc:	e3520024 	cmp	r2, #36	; 0x24
    42c0:	05943010 	ldreq	r3, [r4, #16]
    42c4:	05893018 	streq	r3, [r9, #24]
    42c8:	05942014 	ldreq	r2, [r4, #20]
    42cc:	0589201c 	streq	r2, [r9, #28]
    42d0:	12893018 	addne	r3, r9, #24
    42d4:	12844010 	addne	r4, r4, #16
    42d8:	02893020 	addeq	r3, r9, #32
    42dc:	02844018 	addeq	r4, r4, #24
    42e0:	e5942000 	ldr	r2, [r4]
    42e4:	e5832000 	str	r2, [r3]
    42e8:	e5942004 	ldr	r2, [r4, #4]
    42ec:	e5832004 	str	r2, [r3, #4]
    42f0:	e5942008 	ldr	r2, [r4, #8]
    42f4:	e5832008 	str	r2, [r3, #8]
    42f8:	e1a04006 	mov	r4, r6
    42fc:	e5993004 	ldr	r3, [r9, #4]
    4300:	e1a0600c 	mov	r6, r12
    4304:	e1a0a009 	mov	r10, r9
    4308:	eaffff43 	b	401c <_realloc_r+0x70>
    430c:	e1a01002 	mov	r1, r2
    4310:	ebfffbf8 	bl	32f8 <_malloc_r>
    4314:	e1a06000 	mov	r6, r0
    4318:	eaffff4c 	b	4050 <_realloc_r+0xa4>
    431c:	e59ce004 	ldr	lr, [r12, #4]
    4320:	e3cee003 	bic	lr, lr, #3
    4324:	e08e0007 	add	r0, lr, r7
    4328:	e2856010 	add	r6, r5, #16
    432c:	e1500006 	cmp	r0, r6
    4330:	b1a0000c 	movlt	r0, r12
    4334:	baffff56 	blt	4094 <_realloc_r+0xe8>
    4338:	e0653000 	rsb	r3, r5, r0
    433c:	e08aa005 	add	r10, r10, r5
    4340:	e3833001 	orr	r3, r3, #1
    4344:	e58a3004 	str	r3, [r10, #4]
    4348:	e5143004 	ldr	r3, [r4, #-4]
    434c:	e2033001 	and	r3, r3, #1
    4350:	e1855003 	orr	r5, r5, r3
    4354:	e59f31c0 	ldr	r3, [pc, #448]	; 451c <_realloc_r+0x570>
    4358:	e5045004 	str	r5, [r4, #-4]
    435c:	e1a00008 	mov	r0, r8
    4360:	e583a008 	str	r10, [r3, #8]
    4364:	e1a06004 	mov	r6, r4
    4368:	ebffff0e 	bl	3fa8 <__malloc_unlock>
    436c:	eaffff37 	b	4050 <_realloc_r+0xa4>
    4370:	e5943000 	ldr	r3, [r4]
    4374:	e5863000 	str	r3, [r6]
    4378:	e5943004 	ldr	r3, [r4, #4]
    437c:	e352001b 	cmp	r2, #27
    4380:	e5863004 	str	r3, [r6, #4]
    4384:	92842008 	addls	r2, r4, #8
    4388:	92863008 	addls	r3, r6, #8
    438c:	9affffa4 	bls	4224 <_realloc_r+0x278>
    4390:	e5943008 	ldr	r3, [r4, #8]
    4394:	e5863008 	str	r3, [r6, #8]
    4398:	e594300c 	ldr	r3, [r4, #12]
    439c:	e586300c 	str	r3, [r6, #12]
    43a0:	e3520024 	cmp	r2, #36	; 0x24
    43a4:	05943010 	ldreq	r3, [r4, #16]
    43a8:	05863010 	streq	r3, [r6, #16]
    43ac:	05942014 	ldreq	r2, [r4, #20]
    43b0:	12863010 	addne	r3, r6, #16
    43b4:	05862014 	streq	r2, [r6, #20]
    43b8:	12842010 	addne	r2, r4, #16
    43bc:	02863018 	addeq	r3, r6, #24
    43c0:	02842018 	addeq	r2, r4, #24
    43c4:	eaffff96 	b	4224 <_realloc_r+0x278>
    43c8:	e1a01004 	mov	r1, r4
    43cc:	e1a00006 	mov	r0, r6
    43d0:	e58dc004 	str	r12, [sp, #4]
    43d4:	ebfffe58 	bl	3d3c <memmove>
    43d8:	e59dc004 	ldr	r12, [sp, #4]
    43dc:	e1a04006 	mov	r4, r6
    43e0:	e5993004 	ldr	r3, [r9, #4]
    43e4:	e1a0600c 	mov	r6, r12
    43e8:	e1a0a009 	mov	r10, r9
    43ec:	eaffff0a 	b	401c <_realloc_r+0x70>
    43f0:	e1a01004 	mov	r1, r4
    43f4:	ebfffe50 	bl	3d3c <memmove>
    43f8:	eaffff8f 	b	423c <_realloc_r+0x290>
    43fc:	e08e300c 	add	r3, lr, r12
    4400:	e2850010 	add	r0, r5, #16
    4404:	e1530000 	cmp	r3, r0
    4408:	baffff92 	blt	4258 <_realloc_r+0x2ac>
    440c:	e1a06009 	mov	r6, r9
    4410:	e599100c 	ldr	r1, [r9, #12]
    4414:	e5b60008 	ldr	r0, [r6, #8]!
    4418:	e2472004 	sub	r2, r7, #4
    441c:	e3520024 	cmp	r2, #36	; 0x24
    4420:	e580100c 	str	r1, [r0, #12]
    4424:	e5810008 	str	r0, [r1, #8]
    4428:	8a000035 	bhi	4504 <_realloc_r+0x558>
    442c:	e3520013 	cmp	r2, #19
    4430:	91a02006 	movls	r2, r6
    4434:	9a000014 	bls	448c <_realloc_r+0x4e0>
    4438:	e5941000 	ldr	r1, [r4]
    443c:	e5891008 	str	r1, [r9, #8]
    4440:	e5941004 	ldr	r1, [r4, #4]
    4444:	e352001b 	cmp	r2, #27
    4448:	e589100c 	str	r1, [r9, #12]
    444c:	92892010 	addls	r2, r9, #16
    4450:	92844008 	addls	r4, r4, #8
    4454:	9a00000c 	bls	448c <_realloc_r+0x4e0>
    4458:	e5941008 	ldr	r1, [r4, #8]
    445c:	e5891010 	str	r1, [r9, #16]
    4460:	e594100c 	ldr	r1, [r4, #12]
    4464:	e5891014 	str	r1, [r9, #20]
    4468:	e3520024 	cmp	r2, #36	; 0x24
    446c:	05942010 	ldreq	r2, [r4, #16]
    4470:	05892018 	streq	r2, [r9, #24]
    4474:	05941014 	ldreq	r1, [r4, #20]
    4478:	0589101c 	streq	r1, [r9, #28]
    447c:	12892018 	addne	r2, r9, #24
    4480:	12844010 	addne	r4, r4, #16
    4484:	02892020 	addeq	r2, r9, #32
    4488:	02844018 	addeq	r4, r4, #24
    448c:	e5941000 	ldr	r1, [r4]
    4490:	e5821000 	str	r1, [r2]
    4494:	e5941004 	ldr	r1, [r4, #4]
    4498:	e5821004 	str	r1, [r2, #4]
    449c:	e5941008 	ldr	r1, [r4, #8]
    44a0:	e5821008 	str	r1, [r2, #8]
    44a4:	e0653003 	rsb	r3, r5, r3
    44a8:	e0892005 	add	r2, r9, r5
    44ac:	e3833001 	orr	r3, r3, #1
    44b0:	e5823004 	str	r3, [r2, #4]
    44b4:	e5993004 	ldr	r3, [r9, #4]
    44b8:	e2033001 	and	r3, r3, #1
    44bc:	e1855003 	orr	r5, r5, r3
    44c0:	e59f3054 	ldr	r3, [pc, #84]	; 451c <_realloc_r+0x570>
    44c4:	e5895004 	str	r5, [r9, #4]
    44c8:	e1a00008 	mov	r0, r8
    44cc:	e5832008 	str	r2, [r3, #8]
    44d0:	ebfffeb4 	bl	3fa8 <__malloc_unlock>
    44d4:	eafffedd 	b	4050 <_realloc_r+0xa4>
    44d8:	e5166004 	ldr	r6, [r6, #-4]
    44dc:	e3c66003 	bic	r6, r6, #3
    44e0:	e0866007 	add	r6, r6, r7
    44e4:	eafffecc 	b	401c <_realloc_r+0x70>
    44e8:	e1a01004 	mov	r1, r4
    44ec:	e1a0000a 	mov	r0, r10
    44f0:	ebfffe11 	bl	3d3c <memmove>
    44f4:	e1a0400a 	mov	r4, r10
    44f8:	e5993004 	ldr	r3, [r9, #4]
    44fc:	e1a0a009 	mov	r10, r9
    4500:	eafffec5 	b	401c <_realloc_r+0x70>
    4504:	e1a00006 	mov	r0, r6
    4508:	e1a01004 	mov	r1, r4
    450c:	e58d3004 	str	r3, [sp, #4]
    4510:	ebfffe09 	bl	3d3c <memmove>
    4514:	e59d3004 	ldr	r3, [sp, #4]
    4518:	eaffffe1 	b	44a4 <_realloc_r+0x4f8>
    451c:	0000e89c 	.word	0x0000e89c

00004520 <_sbrk_r>:
    4520:	e92d4038 	push	{r3, r4, r5, lr}
    4524:	e59f4030 	ldr	r4, [pc, #48]	; 455c <_sbrk_r+0x3c>
    4528:	e3a03000 	mov	r3, #0
    452c:	e1a05000 	mov	r5, r0
    4530:	e1a00001 	mov	r0, r1
    4534:	e5843000 	str	r3, [r4]
    4538:	eb0006ff 	bl	613c <_sbrk>
    453c:	e3700001 	cmn	r0, #1
    4540:	0a000001 	beq	454c <_sbrk_r+0x2c>
    4544:	e8bd4038 	pop	{r3, r4, r5, lr}
    4548:	e12fff1e 	bx	lr
    454c:	e5943000 	ldr	r3, [r4]
    4550:	e3530000 	cmp	r3, #0
    4554:	15853000 	strne	r3, [r5]
    4558:	eafffff9 	b	4544 <_sbrk_r+0x24>
    455c:	00042e7c 	.word	0x00042e7c

00004560 <_init_signal_r>:
    4560:	e92d4038 	push	{r3, r4, r5, lr}
    4564:	e59052dc 	ldr	r5, [r0, #732]	; 0x2dc
    4568:	e3550000 	cmp	r5, #0
    456c:	e1a04000 	mov	r4, r0
    4570:	0a000002 	beq	4580 <_init_signal_r+0x20>
    4574:	e3a00000 	mov	r0, #0
    4578:	e8bd4038 	pop	{r3, r4, r5, lr}
    457c:	e12fff1e 	bx	lr
    4580:	e3a01080 	mov	r1, #128	; 0x80
    4584:	ebfffb5b 	bl	32f8 <_malloc_r>
    4588:	e3500000 	cmp	r0, #0
    458c:	e58402dc 	str	r0, [r4, #732]	; 0x2dc
    4590:	0a000008 	beq	45b8 <_init_signal_r+0x58>
    4594:	e1a03005 	mov	r3, r5
    4598:	e1a01005 	mov	r1, r5
    459c:	ea000000 	b	45a4 <_init_signal_r+0x44>
    45a0:	e59402dc 	ldr	r0, [r4, #732]	; 0x2dc
    45a4:	e7801003 	str	r1, [r0, r3]
    45a8:	e2833004 	add	r3, r3, #4
    45ac:	e3530080 	cmp	r3, #128	; 0x80
    45b0:	1afffffa 	bne	45a0 <_init_signal_r+0x40>
    45b4:	eaffffee 	b	4574 <_init_signal_r+0x14>
    45b8:	e3e00000 	mvn	r0, #0
    45bc:	eaffffed 	b	4578 <_init_signal_r+0x18>

000045c0 <_signal_r>:
    45c0:	e92d4010 	push	{r4, lr}
    45c4:	e351001f 	cmp	r1, #31
    45c8:	e24dd008 	sub	sp, sp, #8
    45cc:	e1a04000 	mov	r4, r0
    45d0:	8a000007 	bhi	45f4 <_signal_r+0x34>
    45d4:	e59032dc 	ldr	r3, [r0, #732]	; 0x2dc
    45d8:	e3530000 	cmp	r3, #0
    45dc:	0a000008 	beq	4604 <_signal_r+0x44>
    45e0:	e7930101 	ldr	r0, [r3, r1, lsl #2]
    45e4:	e7832101 	str	r2, [r3, r1, lsl #2]
    45e8:	e28dd008 	add	sp, sp, #8
    45ec:	e8bd4010 	pop	{r4, lr}
    45f0:	e12fff1e 	bx	lr
    45f4:	e3a03016 	mov	r3, #22
    45f8:	e5803000 	str	r3, [r0]
    45fc:	e3e00000 	mvn	r0, #0
    4600:	eafffff8 	b	45e8 <_signal_r+0x28>
    4604:	e58d1004 	str	r1, [sp, #4]
    4608:	e58d2000 	str	r2, [sp]
    460c:	ebffffd3 	bl	4560 <_init_signal_r>
    4610:	e3500000 	cmp	r0, #0
    4614:	e59d1004 	ldr	r1, [sp, #4]
    4618:	e59d2000 	ldr	r2, [sp]
    461c:	13e00000 	mvnne	r0, #0
    4620:	1afffff0 	bne	45e8 <_signal_r+0x28>
    4624:	e59432dc 	ldr	r3, [r4, #732]	; 0x2dc
    4628:	eaffffec 	b	45e0 <_signal_r+0x20>

0000462c <_raise_r>:
    462c:	e351001f 	cmp	r1, #31
    4630:	e92d4038 	push	{r3, r4, r5, lr}
    4634:	83a03016 	movhi	r3, #22
    4638:	e1a05000 	mov	r5, r0
    463c:	85803000 	strhi	r3, [r0]
    4640:	e1a04001 	mov	r4, r1
    4644:	83e00000 	mvnhi	r0, #0
    4648:	8a000012 	bhi	4698 <_raise_r+0x6c>
    464c:	e59522dc 	ldr	r2, [r5, #732]	; 0x2dc
    4650:	e3520000 	cmp	r2, #0
    4654:	0a000013 	beq	46a8 <_raise_r+0x7c>
    4658:	e7923101 	ldr	r3, [r2, r1, lsl #2]
    465c:	e3530000 	cmp	r3, #0
    4660:	0a000010 	beq	46a8 <_raise_r+0x7c>
    4664:	e3530001 	cmp	r3, #1
    4668:	0a00000c 	beq	46a0 <_raise_r+0x74>
    466c:	e3730001 	cmn	r3, #1
    4670:	03a03016 	moveq	r3, #22
    4674:	05853000 	streq	r3, [r5]
    4678:	03a00001 	moveq	r0, #1
    467c:	0a000005 	beq	4698 <_raise_r+0x6c>
    4680:	e3a05000 	mov	r5, #0
    4684:	e1a00001 	mov	r0, r1
    4688:	e7825101 	str	r5, [r2, r1, lsl #2]
    468c:	e1a0e00f 	mov	lr, pc
    4690:	e12fff13 	bx	r3
    4694:	e1a00005 	mov	r0, r5
    4698:	e8bd4038 	pop	{r3, r4, r5, lr}
    469c:	e12fff1e 	bx	lr
    46a0:	e3a00000 	mov	r0, #0
    46a4:	eafffffb 	b	4698 <_raise_r+0x6c>
    46a8:	e1a00005 	mov	r0, r5
    46ac:	eb00004e 	bl	47ec <_getpid_r>
    46b0:	e1a02004 	mov	r2, r4
    46b4:	e1a01000 	mov	r1, r0
    46b8:	e1a00005 	mov	r0, r5
    46bc:	eb00003a 	bl	47ac <_kill_r>
    46c0:	eafffff4 	b	4698 <_raise_r+0x6c>

000046c4 <__sigtramp_r>:
    46c4:	e92d4010 	push	{r4, lr}
    46c8:	e351001f 	cmp	r1, #31
    46cc:	e24dd008 	sub	sp, sp, #8
    46d0:	e1a04000 	mov	r4, r0
    46d4:	8a00001d 	bhi	4750 <__sigtramp_r+0x8c>
    46d8:	e59032dc 	ldr	r3, [r0, #732]	; 0x2dc
    46dc:	e3530000 	cmp	r3, #0
    46e0:	0a000014 	beq	4738 <__sigtramp_r+0x74>
    46e4:	e7932101 	ldr	r2, [r3, r1, lsl #2]
    46e8:	e3520000 	cmp	r2, #0
    46ec:	e0833101 	add	r3, r3, r1, lsl #2
    46f0:	0a00000e 	beq	4730 <__sigtramp_r+0x6c>
    46f4:	e3720001 	cmn	r2, #1
    46f8:	03a00002 	moveq	r0, #2
    46fc:	0a000008 	beq	4724 <__sigtramp_r+0x60>
    4700:	e3520001 	cmp	r2, #1
    4704:	03a00003 	moveq	r0, #3
    4708:	0a000005 	beq	4724 <__sigtramp_r+0x60>
    470c:	e3a04000 	mov	r4, #0
    4710:	e1a00001 	mov	r0, r1
    4714:	e5834000 	str	r4, [r3]
    4718:	e1a0e00f 	mov	lr, pc
    471c:	e12fff12 	bx	r2
    4720:	e1a00004 	mov	r0, r4
    4724:	e28dd008 	add	sp, sp, #8
    4728:	e8bd4010 	pop	{r4, lr}
    472c:	e12fff1e 	bx	lr
    4730:	e3a00001 	mov	r0, #1
    4734:	eafffffa 	b	4724 <__sigtramp_r+0x60>
    4738:	e58d1004 	str	r1, [sp, #4]
    473c:	ebffff87 	bl	4560 <_init_signal_r>
    4740:	e3500000 	cmp	r0, #0
    4744:	e59d1004 	ldr	r1, [sp, #4]
    4748:	059432dc 	ldreq	r3, [r4, #732]	; 0x2dc
    474c:	0affffe4 	beq	46e4 <__sigtramp_r+0x20>
    4750:	e3e00000 	mvn	r0, #0
    4754:	eafffff2 	b	4724 <__sigtramp_r+0x60>

00004758 <raise>:
    4758:	e59f3008 	ldr	r3, [pc, #8]	; 4768 <raise+0x10>
    475c:	e1a01000 	mov	r1, r0
    4760:	e5930000 	ldr	r0, [r3]
    4764:	eaffffb0 	b	462c <_raise_r>
    4768:	0000e3f0 	.word	0x0000e3f0

0000476c <signal>:
    476c:	e1a02001 	mov	r2, r1
    4770:	e59f100c 	ldr	r1, [pc, #12]	; 4784 <signal+0x18>
    4774:	e1a03000 	mov	r3, r0
    4778:	e5910000 	ldr	r0, [r1]
    477c:	e1a01003 	mov	r1, r3
    4780:	eaffff8e 	b	45c0 <_signal_r>
    4784:	0000e3f0 	.word	0x0000e3f0

00004788 <_init_signal>:
    4788:	e59f3004 	ldr	r3, [pc, #4]	; 4794 <_init_signal+0xc>
    478c:	e5930000 	ldr	r0, [r3]
    4790:	eaffff72 	b	4560 <_init_signal_r>
    4794:	0000e3f0 	.word	0x0000e3f0

00004798 <__sigtramp>:
    4798:	e59f3008 	ldr	r3, [pc, #8]	; 47a8 <__sigtramp+0x10>
    479c:	e1a01000 	mov	r1, r0
    47a0:	e5930000 	ldr	r0, [r3]
    47a4:	eaffffc6 	b	46c4 <__sigtramp_r>
    47a8:	0000e3f0 	.word	0x0000e3f0

000047ac <_kill_r>:
    47ac:	e92d4038 	push	{r3, r4, r5, lr}
    47b0:	e59f4030 	ldr	r4, [pc, #48]	; 47e8 <_kill_r+0x3c>
    47b4:	e3a03000 	mov	r3, #0
    47b8:	e1a05000 	mov	r5, r0
    47bc:	e1a00001 	mov	r0, r1
    47c0:	e1a01002 	mov	r1, r2
    47c4:	e5843000 	str	r3, [r4]
    47c8:	eb0005ef 	bl	5f8c <_kill>
    47cc:	e3700001 	cmn	r0, #1
    47d0:	1a000002 	bne	47e0 <_kill_r+0x34>
    47d4:	e5943000 	ldr	r3, [r4]
    47d8:	e3530000 	cmp	r3, #0
    47dc:	15853000 	strne	r3, [r5]
    47e0:	e8bd4038 	pop	{r3, r4, r5, lr}
    47e4:	e12fff1e 	bx	lr
    47e8:	00042e7c 	.word	0x00042e7c

000047ec <_getpid_r>:
    47ec:	e92d4008 	push	{r3, lr}
    47f0:	eb00066d 	bl	61ac <_getpid>
    47f4:	e8bd4008 	pop	{r3, lr}
    47f8:	e12fff1e 	bx	lr

000047fc <__sread>:
    47fc:	e92d4010 	push	{r4, lr}
    4800:	e1a04001 	mov	r4, r1
    4804:	e1d110fe 	ldrsh	r1, [r1, #14]
    4808:	eb000228 	bl	50b0 <_read_r>
    480c:	e3500000 	cmp	r0, #0
    4810:	a5943050 	ldrge	r3, [r4, #80]	; 0x50
    4814:	b1d430bc 	ldrhlt	r3, [r4, #12]
    4818:	a0833000 	addge	r3, r3, r0
    481c:	b3c33a01 	biclt	r3, r3, #4096	; 0x1000
    4820:	a5843050 	strge	r3, [r4, #80]	; 0x50
    4824:	b1c430bc 	strhlt	r3, [r4, #12]
    4828:	e8bd4010 	pop	{r4, lr}
    482c:	e12fff1e 	bx	lr

00004830 <__seofread>:
    4830:	e3a00000 	mov	r0, #0
    4834:	e12fff1e 	bx	lr

00004838 <__swrite>:
    4838:	e92d40f8 	push	{r3, r4, r5, r6, r7, lr}
    483c:	e1a04001 	mov	r4, r1
    4840:	e1d110bc 	ldrh	r1, [r1, #12]
    4844:	e3110c01 	tst	r1, #256	; 0x100
    4848:	e1a07000 	mov	r7, r0
    484c:	e1a06002 	mov	r6, r2
    4850:	e1a05003 	mov	r5, r3
    4854:	0a000004 	beq	486c <__swrite+0x34>
    4858:	e1d410fe 	ldrsh	r1, [r4, #14]
    485c:	e3a02000 	mov	r2, #0
    4860:	e3a03002 	mov	r3, #2
    4864:	eb000200 	bl	506c <_lseek_r>
    4868:	e1d410bc 	ldrh	r1, [r4, #12]
    486c:	e3c11a01 	bic	r1, r1, #4096	; 0x1000
    4870:	e1c410bc 	strh	r1, [r4, #12]
    4874:	e1a00007 	mov	r0, r7
    4878:	e1d410fe 	ldrsh	r1, [r4, #14]
    487c:	e1a02006 	mov	r2, r6
    4880:	e1a03005 	mov	r3, r5
    4884:	eb000176 	bl	4e64 <_write_r>
    4888:	e8bd40f8 	pop	{r3, r4, r5, r6, r7, lr}
    488c:	e12fff1e 	bx	lr

00004890 <__sseek>:
    4890:	e92d4010 	push	{r4, lr}
    4894:	e1a04001 	mov	r4, r1
    4898:	e1d110fe 	ldrsh	r1, [r1, #14]
    489c:	eb0001f2 	bl	506c <_lseek_r>
    48a0:	e1d430bc 	ldrh	r3, [r4, #12]
    48a4:	e3700001 	cmn	r0, #1
    48a8:	03c33a01 	biceq	r3, r3, #4096	; 0x1000
    48ac:	13833a01 	orrne	r3, r3, #4096	; 0x1000
    48b0:	01c430bc 	strheq	r3, [r4, #12]
    48b4:	11c430bc 	strhne	r3, [r4, #12]
    48b8:	15840050 	strne	r0, [r4, #80]	; 0x50
    48bc:	e8bd4010 	pop	{r4, lr}
    48c0:	e12fff1e 	bx	lr

000048c4 <__sclose>:
    48c4:	e92d4008 	push	{r3, lr}
    48c8:	e1d110fe 	ldrsh	r1, [r1, #14]
    48cc:	eb000175 	bl	4ea8 <_close_r>
    48d0:	e8bd4008 	pop	{r3, lr}
    48d4:	e12fff1e 	bx	lr

000048d8 <strcmp>:
    48d8:	e0202001 	eor	r2, r0, r1
    48dc:	e3120003 	tst	r2, #3
    48e0:	1a000021 	bne	496c <strcmp_unaligned>
    48e4:	e2102003 	ands	r2, r0, #3
    48e8:	e3c00003 	bic	r0, r0, #3
    48ec:	e3c11003 	bic	r1, r1, #3
    48f0:	e490c004 	ldr	r12, [r0], #4
    48f4:	04913004 	ldreq	r3, [r1], #4
    48f8:	0a000006 	beq	4918 <strcmp+0x40>
    48fc:	e2222003 	eor	r2, r2, #3
    4900:	e1a02182 	lsl	r2, r2, #3
    4904:	e3e034ff 	mvn	r3, #-16777216	; 0xff000000
    4908:	e1a02233 	lsr	r2, r3, r2
    490c:	e4913004 	ldr	r3, [r1], #4
    4910:	e18cc002 	orr	r12, r12, r2
    4914:	e1833002 	orr	r3, r3, r2
    4918:	e52d4004 	push	{r4}		; (str r4, [sp, #-4]!)
    491c:	e3a04001 	mov	r4, #1
    4920:	e1844404 	orr	r4, r4, r4, lsl #8
    4924:	e1844804 	orr	r4, r4, r4, lsl #16
    4928:	e04c2004 	sub	r2, r12, r4
    492c:	e15c0003 	cmp	r12, r3
    4930:	01c2200c 	biceq	r2, r2, r12
    4934:	01120384 	tsteq	r2, r4, lsl #7
    4938:	0490c004 	ldreq	r12, [r0], #4
    493c:	04913004 	ldreq	r3, [r1], #4
    4940:	0afffff8 	beq	4928 <strcmp+0x50>
    4944:	e1a00c0c 	lsl	r0, r12, #24
    4948:	e1a0c42c 	lsr	r12, r12, #8
    494c:	e3500001 	cmp	r0, #1
    4950:	21500c03 	cmpcs	r0, r3, lsl #24
    4954:	01a03423 	lsreq	r3, r3, #8
    4958:	0afffff9 	beq	4944 <strcmp+0x6c>
    495c:	e20330ff 	and	r3, r3, #255	; 0xff
    4960:	e0630c20 	rsb	r0, r3, r0, lsr #24
    4964:	e49d4004 	pop	{r4}		; (ldr r4, [sp], #4)
    4968:	e12fff1e 	bx	lr

0000496c <strcmp_unaligned>:
    496c:	e3100003 	tst	r0, #3
    4970:	0a000006 	beq	4990 <strcmp_unaligned+0x24>
    4974:	e4d02001 	ldrb	r2, [r0], #1
    4978:	e4d13001 	ldrb	r3, [r1], #1
    497c:	e3520001 	cmp	r2, #1
    4980:	21520003 	cmpcs	r2, r3
    4984:	0afffff8 	beq	496c <strcmp_unaligned>
    4988:	e0420003 	sub	r0, r2, r3
    498c:	e12fff1e 	bx	lr
    4990:	e52d5004 	push	{r5}		; (str r5, [sp, #-4]!)
    4994:	e52d4004 	push	{r4}		; (str r4, [sp, #-4]!)
    4998:	e3a02001 	mov	r2, #1
    499c:	e1822402 	orr	r2, r2, r2, lsl #8
    49a0:	e1822802 	orr	r2, r2, r2, lsl #16
    49a4:	e201c003 	and	r12, r1, #3
    49a8:	e3c11003 	bic	r1, r1, #3
    49ac:	e4904004 	ldr	r4, [r0], #4
    49b0:	e4915004 	ldr	r5, [r1], #4
    49b4:	e35c0002 	cmp	r12, #2
    49b8:	0a000017 	beq	4a1c <strcmp_unaligned+0xb0>
    49bc:	8a00002d 	bhi	4a78 <strcmp_unaligned+0x10c>
    49c0:	e3c4c4ff 	bic	r12, r4, #-16777216	; 0xff000000
    49c4:	e15c0425 	cmp	r12, r5, lsr #8
    49c8:	e0443002 	sub	r3, r4, r2
    49cc:	e1c33004 	bic	r3, r3, r4
    49d0:	1a000007 	bne	49f4 <strcmp_unaligned+0x88>
    49d4:	e0133382 	ands	r3, r3, r2, lsl #7
    49d8:	04915004 	ldreq	r5, [r1], #4
    49dc:	1a000006 	bne	49fc <strcmp_unaligned+0x90>
    49e0:	e02cc004 	eor	r12, r12, r4
    49e4:	e15c0c05 	cmp	r12, r5, lsl #24
    49e8:	1a000008 	bne	4a10 <strcmp_unaligned+0xa4>
    49ec:	e4904004 	ldr	r4, [r0], #4
    49f0:	eafffff2 	b	49c0 <strcmp_unaligned+0x54>
    49f4:	e1a05425 	lsr	r5, r5, #8
    49f8:	ea000037 	b	4adc <strcmp_unaligned+0x170>
    49fc:	e3d334ff 	bics	r3, r3, #-16777216	; 0xff000000
    4a00:	1a000031 	bne	4acc <strcmp_unaligned+0x160>
    4a04:	e5d15000 	ldrb	r5, [r1]
    4a08:	e1a0cc24 	lsr	r12, r4, #24
    4a0c:	ea000032 	b	4adc <strcmp_unaligned+0x170>
    4a10:	e1a0cc24 	lsr	r12, r4, #24
    4a14:	e20550ff 	and	r5, r5, #255	; 0xff
    4a18:	ea00002f 	b	4adc <strcmp_unaligned+0x170>
    4a1c:	e1a0c804 	lsl	r12, r4, #16
    4a20:	e0443002 	sub	r3, r4, r2
    4a24:	e1a0c82c 	lsr	r12, r12, #16
    4a28:	e1c33004 	bic	r3, r3, r4
    4a2c:	e15c0825 	cmp	r12, r5, lsr #16
    4a30:	1a00000e 	bne	4a70 <strcmp_unaligned+0x104>
    4a34:	e0133382 	ands	r3, r3, r2, lsl #7
    4a38:	04915004 	ldreq	r5, [r1], #4
    4a3c:	1a000004 	bne	4a54 <strcmp_unaligned+0xe8>
    4a40:	e02cc004 	eor	r12, r12, r4
    4a44:	e15c0805 	cmp	r12, r5, lsl #16
    4a48:	1a000006 	bne	4a68 <strcmp_unaligned+0xfc>
    4a4c:	e4904004 	ldr	r4, [r0], #4
    4a50:	eafffff1 	b	4a1c <strcmp_unaligned+0xb0>
    4a54:	e1b03803 	lsls	r3, r3, #16
    4a58:	1a00001b 	bne	4acc <strcmp_unaligned+0x160>
    4a5c:	e1d150b0 	ldrh	r5, [r1]
    4a60:	e1a0c824 	lsr	r12, r4, #16
    4a64:	ea00001c 	b	4adc <strcmp_unaligned+0x170>
    4a68:	e1a05805 	lsl	r5, r5, #16
    4a6c:	e1a0c824 	lsr	r12, r4, #16
    4a70:	e1a05825 	lsr	r5, r5, #16
    4a74:	ea000018 	b	4adc <strcmp_unaligned+0x170>
    4a78:	e204c0ff 	and	r12, r4, #255	; 0xff
    4a7c:	e15c0c25 	cmp	r12, r5, lsr #24
    4a80:	e0443002 	sub	r3, r4, r2
    4a84:	e1c33004 	bic	r3, r3, r4
    4a88:	1a000007 	bne	4aac <strcmp_unaligned+0x140>
    4a8c:	e0133382 	ands	r3, r3, r2, lsl #7
    4a90:	04915004 	ldreq	r5, [r1], #4
    4a94:	1a000006 	bne	4ab4 <strcmp_unaligned+0x148>
    4a98:	e02cc004 	eor	r12, r12, r4
    4a9c:	e15c0405 	cmp	r12, r5, lsl #8
    4aa0:	1a000006 	bne	4ac0 <strcmp_unaligned+0x154>
    4aa4:	e4904004 	ldr	r4, [r0], #4
    4aa8:	eafffff2 	b	4a78 <strcmp_unaligned+0x10c>
    4aac:	e1a05c25 	lsr	r5, r5, #24
    4ab0:	ea000009 	b	4adc <strcmp_unaligned+0x170>
    4ab4:	e31400ff 	tst	r4, #255	; 0xff
    4ab8:	0a000003 	beq	4acc <strcmp_unaligned+0x160>
    4abc:	e4915004 	ldr	r5, [r1], #4
    4ac0:	e1a0c424 	lsr	r12, r4, #8
    4ac4:	e3c554ff 	bic	r5, r5, #-16777216	; 0xff000000
    4ac8:	ea000003 	b	4adc <strcmp_unaligned+0x170>
    4acc:	e3a00000 	mov	r0, #0
    4ad0:	e49d4004 	pop	{r4}		; (ldr r4, [sp], #4)
    4ad4:	e49d5004 	pop	{r5}		; (ldr r5, [sp], #4)
    4ad8:	e12fff1e 	bx	lr
    4adc:	e20c20ff 	and	r2, r12, #255	; 0xff
    4ae0:	e20500ff 	and	r0, r5, #255	; 0xff
    4ae4:	e3500001 	cmp	r0, #1
    4ae8:	21500002 	cmpcs	r0, r2
    4aec:	01a0c42c 	lsreq	r12, r12, #8
    4af0:	01a05425 	lsreq	r5, r5, #8
    4af4:	0afffff8 	beq	4adc <strcmp_unaligned+0x170>
    4af8:	e0420000 	sub	r0, r2, r0
    4afc:	e49d4004 	pop	{r4}		; (ldr r4, [sp], #4)
    4b00:	e49d5004 	pop	{r5}		; (ldr r5, [sp], #4)
    4b04:	e12fff1e 	bx	lr

00004b08 <strlen>:
    4b08:	e3c01003 	bic	r1, r0, #3
    4b0c:	e2100003 	ands	r0, r0, #3
    4b10:	e2600000 	rsb	r0, r0, #0
    4b14:	e4913004 	ldr	r3, [r1], #4
    4b18:	e280c004 	add	r12, r0, #4
    4b1c:	e1a0c18c 	lsl	r12, r12, #3
    4b20:	e3e02000 	mvn	r2, #0
    4b24:	11833c32 	orrne	r3, r3, r2, lsr r12
    4b28:	e3a0c001 	mov	r12, #1
    4b2c:	e18cc40c 	orr	r12, r12, r12, lsl #8
    4b30:	e18cc80c 	orr	r12, r12, r12, lsl #16
    4b34:	e043200c 	sub	r2, r3, r12
    4b38:	e1c22003 	bic	r2, r2, r3
    4b3c:	e012238c 	ands	r2, r2, r12, lsl #7
    4b40:	04913004 	ldreq	r3, [r1], #4
    4b44:	02800004 	addeq	r0, r0, #4
    4b48:	0afffff9 	beq	4b34 <strlen+0x2c>
    4b4c:	e31300ff 	tst	r3, #255	; 0xff
    4b50:	12800001 	addne	r0, r0, #1
    4b54:	13130cff 	tstne	r3, #65280	; 0xff00
    4b58:	12800001 	addne	r0, r0, #1
    4b5c:	131308ff 	tstne	r3, #16711680	; 0xff0000
    4b60:	12800001 	addne	r0, r0, #1
    4b64:	e12fff1e 	bx	lr

00004b68 <__swbuf_r>:
    4b68:	e92d4070 	push	{r4, r5, r6, lr}
    4b6c:	e2506000 	subs	r6, r0, #0
    4b70:	e1a05001 	mov	r5, r1
    4b74:	e1a04002 	mov	r4, r2
    4b78:	0a000002 	beq	4b88 <__swbuf_r+0x20>
    4b7c:	e5963038 	ldr	r3, [r6, #56]	; 0x38
    4b80:	e3530000 	cmp	r3, #0
    4b84:	0a00003b 	beq	4c78 <__swbuf_r+0x110>
    4b88:	e1d430bc 	ldrh	r3, [r4, #12]
    4b8c:	e5942018 	ldr	r2, [r4, #24]
    4b90:	e3130008 	tst	r3, #8
    4b94:	e5842008 	str	r2, [r4, #8]
    4b98:	0a000026 	beq	4c38 <__swbuf_r+0xd0>
    4b9c:	e5942010 	ldr	r2, [r4, #16]
    4ba0:	e3520000 	cmp	r2, #0
    4ba4:	0a000023 	beq	4c38 <__swbuf_r+0xd0>
    4ba8:	e3130a02 	tst	r3, #8192	; 0x2000
    4bac:	05941064 	ldreq	r1, [r4, #100]	; 0x64
    4bb0:	03833a02 	orreq	r3, r3, #8192	; 0x2000
    4bb4:	03c11a02 	biceq	r1, r1, #8192	; 0x2000
    4bb8:	01c430bc 	strheq	r3, [r4, #12]
    4bbc:	e5943000 	ldr	r3, [r4]
    4bc0:	05841064 	streq	r1, [r4, #100]	; 0x64
    4bc4:	e5941014 	ldr	r1, [r4, #20]
    4bc8:	e0622003 	rsb	r2, r2, r3
    4bcc:	e1520001 	cmp	r2, r1
    4bd0:	e20550ff 	and	r5, r5, #255	; 0xff
    4bd4:	b2822001 	addlt	r2, r2, #1
    4bd8:	aa00001e 	bge	4c58 <__swbuf_r+0xf0>
    4bdc:	e5941008 	ldr	r1, [r4, #8]
    4be0:	e2411001 	sub	r1, r1, #1
    4be4:	e5841008 	str	r1, [r4, #8]
    4be8:	e4c35001 	strb	r5, [r3], #1
    4bec:	e5941014 	ldr	r1, [r4, #20]
    4bf0:	e1510002 	cmp	r1, r2
    4bf4:	e5843000 	str	r3, [r4]
    4bf8:	0a000007 	beq	4c1c <__swbuf_r+0xb4>
    4bfc:	e1d430bc 	ldrh	r3, [r4, #12]
    4c00:	e3130001 	tst	r3, #1
    4c04:	0a000001 	beq	4c10 <__swbuf_r+0xa8>
    4c08:	e355000a 	cmp	r5, #10
    4c0c:	0a000002 	beq	4c1c <__swbuf_r+0xb4>
    4c10:	e1a00005 	mov	r0, r5
    4c14:	e8bd4070 	pop	{r4, r5, r6, lr}
    4c18:	e12fff1e 	bx	lr
    4c1c:	e1a00006 	mov	r0, r6
    4c20:	e1a01004 	mov	r1, r4
    4c24:	ebfff514 	bl	207c <_fflush_r>
    4c28:	e3500000 	cmp	r0, #0
    4c2c:	0afffff7 	beq	4c10 <__swbuf_r+0xa8>
    4c30:	e3e05000 	mvn	r5, #0
    4c34:	eafffff5 	b	4c10 <__swbuf_r+0xa8>
    4c38:	e1a00006 	mov	r0, r6
    4c3c:	e1a01004 	mov	r1, r4
    4c40:	ebfff415 	bl	1c9c <__swsetup_r>
    4c44:	e3500000 	cmp	r0, #0
    4c48:	e1d430bc 	ldrh	r3, [r4, #12]
    4c4c:	1a00000b 	bne	4c80 <__swbuf_r+0x118>
    4c50:	e5942010 	ldr	r2, [r4, #16]
    4c54:	eaffffd3 	b	4ba8 <__swbuf_r+0x40>
    4c58:	e1a00006 	mov	r0, r6
    4c5c:	e1a01004 	mov	r1, r4
    4c60:	ebfff505 	bl	207c <_fflush_r>
    4c64:	e3500000 	cmp	r0, #0
    4c68:	05943000 	ldreq	r3, [r4]
    4c6c:	03a02001 	moveq	r2, #1
    4c70:	0affffd9 	beq	4bdc <__swbuf_r+0x74>
    4c74:	eaffffed 	b	4c30 <__swbuf_r+0xc8>
    4c78:	ebfff5d9 	bl	23e4 <__sinit>
    4c7c:	eaffffc1 	b	4b88 <__swbuf_r+0x20>
    4c80:	e3833040 	orr	r3, r3, #64	; 0x40
    4c84:	e1c430bc 	strh	r3, [r4, #12]
    4c88:	e3a03009 	mov	r3, #9
    4c8c:	e3e05000 	mvn	r5, #0
    4c90:	e5863000 	str	r3, [r6]
    4c94:	eaffffdd 	b	4c10 <__swbuf_r+0xa8>

00004c98 <__swbuf>:
    4c98:	e1a02001 	mov	r2, r1
    4c9c:	e59f100c 	ldr	r1, [pc, #12]	; 4cb0 <__swbuf+0x18>
    4ca0:	e1a03000 	mov	r3, r0
    4ca4:	e5910000 	ldr	r0, [r1]
    4ca8:	e1a01003 	mov	r1, r3
    4cac:	eaffffad 	b	4b68 <__swbuf_r>
    4cb0:	0000e3f0 	.word	0x0000e3f0

00004cb4 <_wcrtomb_r>:
    4cb4:	e92d41f0 	push	{r4, r5, r6, r7, r8, lr}
    4cb8:	e2516000 	subs	r6, r1, #0
    4cbc:	e1a05003 	mov	r5, r3
    4cc0:	e24dd018 	sub	sp, sp, #24
    4cc4:	e1a04000 	mov	r4, r0
    4cc8:	e1a07002 	mov	r7, r2
    4ccc:	e59f306c 	ldr	r3, [pc, #108]	; 4d40 <_wcrtomb_r+0x8c>
    4cd0:	0a000010 	beq	4d18 <_wcrtomb_r+0x64>
    4cd4:	e5938000 	ldr	r8, [r3]
    4cd8:	ebfff916 	bl	3138 <__locale_charset>
    4cdc:	e58d5000 	str	r5, [sp]
    4ce0:	e1a03000 	mov	r3, r0
    4ce4:	e1a01006 	mov	r1, r6
    4ce8:	e1a00004 	mov	r0, r4
    4cec:	e1a02007 	mov	r2, r7
    4cf0:	e1a0e00f 	mov	lr, pc
    4cf4:	e12fff18 	bx	r8
    4cf8:	e3700001 	cmn	r0, #1
    4cfc:	03a03000 	moveq	r3, #0
    4d00:	05853000 	streq	r3, [r5]
    4d04:	03a0308a 	moveq	r3, #138	; 0x8a
    4d08:	05843000 	streq	r3, [r4]
    4d0c:	e28dd018 	add	sp, sp, #24
    4d10:	e8bd41f0 	pop	{r4, r5, r6, r7, r8, lr}
    4d14:	e12fff1e 	bx	lr
    4d18:	e5937000 	ldr	r7, [r3]
    4d1c:	ebfff905 	bl	3138 <__locale_charset>
    4d20:	e58d5000 	str	r5, [sp]
    4d24:	e1a03000 	mov	r3, r0
    4d28:	e28d100c 	add	r1, sp, #12
    4d2c:	e1a00004 	mov	r0, r4
    4d30:	e1a02006 	mov	r2, r6
    4d34:	e1a0e00f 	mov	lr, pc
    4d38:	e12fff17 	bx	r7
    4d3c:	eaffffed 	b	4cf8 <_wcrtomb_r+0x44>
    4d40:	0000ecac 	.word	0x0000ecac

00004d44 <wcrtomb>:
    4d44:	e92d45f0 	push	{r4, r5, r6, r7, r8, r10, lr}
    4d48:	e2506000 	subs	r6, r0, #0
    4d4c:	e24dd01c 	sub	sp, sp, #28
    4d50:	e59f5088 	ldr	r5, [pc, #136]	; 4de0 <wcrtomb+0x9c>
    4d54:	e1a07001 	mov	r7, r1
    4d58:	e1a04002 	mov	r4, r2
    4d5c:	0a000013 	beq	4db0 <wcrtomb+0x6c>
    4d60:	e59f307c 	ldr	r3, [pc, #124]	; 4de4 <wcrtomb+0xa0>
    4d64:	e595a000 	ldr	r10, [r5]
    4d68:	e5938000 	ldr	r8, [r3]
    4d6c:	ebfff8f1 	bl	3138 <__locale_charset>
    4d70:	e58d4000 	str	r4, [sp]
    4d74:	e1a03000 	mov	r3, r0
    4d78:	e1a01006 	mov	r1, r6
    4d7c:	e1a0000a 	mov	r0, r10
    4d80:	e1a02007 	mov	r2, r7
    4d84:	e1a0e00f 	mov	lr, pc
    4d88:	e12fff18 	bx	r8
    4d8c:	e3700001 	cmn	r0, #1
    4d90:	03a02000 	moveq	r2, #0
    4d94:	05953000 	ldreq	r3, [r5]
    4d98:	05842000 	streq	r2, [r4]
    4d9c:	03a0208a 	moveq	r2, #138	; 0x8a
    4da0:	05832000 	streq	r2, [r3]
    4da4:	e28dd01c 	add	sp, sp, #28
    4da8:	e8bd45f0 	pop	{r4, r5, r6, r7, r8, r10, lr}
    4dac:	e12fff1e 	bx	lr
    4db0:	e59f302c 	ldr	r3, [pc, #44]	; 4de4 <wcrtomb+0xa0>
    4db4:	e5958000 	ldr	r8, [r5]
    4db8:	e5937000 	ldr	r7, [r3]
    4dbc:	ebfff8dd 	bl	3138 <__locale_charset>
    4dc0:	e58d4000 	str	r4, [sp]
    4dc4:	e1a03000 	mov	r3, r0
    4dc8:	e28d100c 	add	r1, sp, #12
    4dcc:	e1a00008 	mov	r0, r8
    4dd0:	e1a02006 	mov	r2, r6
    4dd4:	e1a0e00f 	mov	lr, pc
    4dd8:	e12fff17 	bx	r7
    4ddc:	eaffffea 	b	4d8c <wcrtomb+0x48>
    4de0:	0000e3f0 	.word	0x0000e3f0
    4de4:	0000ecac 	.word	0x0000ecac

00004de8 <__ascii_wctomb>:
    4de8:	e3510000 	cmp	r1, #0
    4dec:	0a000006 	beq	4e0c <__ascii_wctomb+0x24>
    4df0:	e35200ff 	cmp	r2, #255	; 0xff
    4df4:	83a0308a 	movhi	r3, #138	; 0x8a
    4df8:	85803000 	strhi	r3, [r0]
    4dfc:	95c12000 	strbls	r2, [r1]
    4e00:	83e00000 	mvnhi	r0, #0
    4e04:	93a00001 	movls	r0, #1
    4e08:	e12fff1e 	bx	lr
    4e0c:	e1a00001 	mov	r0, r1
    4e10:	e12fff1e 	bx	lr

00004e14 <_wctomb_r>:
    4e14:	e92d41f0 	push	{r4, r5, r6, r7, r8, lr}
    4e18:	e1a06003 	mov	r6, r3
    4e1c:	e59f303c 	ldr	r3, [pc, #60]	; 4e60 <_wctomb_r+0x4c>
    4e20:	e24dd008 	sub	sp, sp, #8
    4e24:	e1a05000 	mov	r5, r0
    4e28:	e1a08001 	mov	r8, r1
    4e2c:	e1a07002 	mov	r7, r2
    4e30:	e5934000 	ldr	r4, [r3]
    4e34:	ebfff8bf 	bl	3138 <__locale_charset>
    4e38:	e58d6000 	str	r6, [sp]
    4e3c:	e1a03000 	mov	r3, r0
    4e40:	e1a01008 	mov	r1, r8
    4e44:	e1a00005 	mov	r0, r5
    4e48:	e1a02007 	mov	r2, r7
    4e4c:	e1a0e00f 	mov	lr, pc
    4e50:	e12fff14 	bx	r4
    4e54:	e28dd008 	add	sp, sp, #8
    4e58:	e8bd41f0 	pop	{r4, r5, r6, r7, r8, lr}
    4e5c:	e12fff1e 	bx	lr
    4e60:	0000ecac 	.word	0x0000ecac

00004e64 <_write_r>:
    4e64:	e92d4038 	push	{r3, r4, r5, lr}
    4e68:	e59f4034 	ldr	r4, [pc, #52]	; 4ea4 <_write_r+0x40>
    4e6c:	e1a05000 	mov	r5, r0
    4e70:	e1a00001 	mov	r0, r1
    4e74:	e1a01002 	mov	r1, r2
    4e78:	e1a02003 	mov	r2, r3
    4e7c:	e3a03000 	mov	r3, #0
    4e80:	e5843000 	str	r3, [r4]
    4e84:	eb000494 	bl	60dc <_write>
    4e88:	e3700001 	cmn	r0, #1
    4e8c:	1a000002 	bne	4e9c <_write_r+0x38>
    4e90:	e5943000 	ldr	r3, [r4]
    4e94:	e3530000 	cmp	r3, #0
    4e98:	15853000 	strne	r3, [r5]
    4e9c:	e8bd4038 	pop	{r3, r4, r5, lr}
    4ea0:	e12fff1e 	bx	lr
    4ea4:	00042e7c 	.word	0x00042e7c

00004ea8 <_close_r>:
    4ea8:	e92d4038 	push	{r3, r4, r5, lr}
    4eac:	e59f402c 	ldr	r4, [pc, #44]	; 4ee0 <_close_r+0x38>
    4eb0:	e3a03000 	mov	r3, #0
    4eb4:	e1a05000 	mov	r5, r0
    4eb8:	e1a00001 	mov	r0, r1
    4ebc:	e5843000 	str	r3, [r4]
    4ec0:	eb0003eb 	bl	5e74 <_close>
    4ec4:	e3700001 	cmn	r0, #1
    4ec8:	1a000002 	bne	4ed8 <_close_r+0x30>
    4ecc:	e5943000 	ldr	r3, [r4]
    4ed0:	e3530000 	cmp	r3, #0
    4ed4:	15853000 	strne	r3, [r5]
    4ed8:	e8bd4038 	pop	{r3, r4, r5, lr}
    4edc:	e12fff1e 	bx	lr
    4ee0:	00042e7c 	.word	0x00042e7c

00004ee4 <_fclose_r>:
    4ee4:	e92d4070 	push	{r4, r5, r6, lr}
    4ee8:	e2514000 	subs	r4, r1, #0
    4eec:	e1a05000 	mov	r5, r0
    4ef0:	01a06004 	moveq	r6, r4
    4ef4:	0a00002b 	beq	4fa8 <_fclose_r+0xc4>
    4ef8:	ebfff595 	bl	2554 <__sfp_lock_acquire>
    4efc:	e3550000 	cmp	r5, #0
    4f00:	0a000002 	beq	4f10 <_fclose_r+0x2c>
    4f04:	e5953038 	ldr	r3, [r5, #56]	; 0x38
    4f08:	e3530000 	cmp	r3, #0
    4f0c:	0a000028 	beq	4fb4 <_fclose_r+0xd0>
    4f10:	e1d460fc 	ldrsh	r6, [r4, #12]
    4f14:	e3560000 	cmp	r6, #0
    4f18:	0a000021 	beq	4fa4 <_fclose_r+0xc0>
    4f1c:	e1a00005 	mov	r0, r5
    4f20:	e1a01004 	mov	r1, r4
    4f24:	ebfff454 	bl	207c <_fflush_r>
    4f28:	e594302c 	ldr	r3, [r4, #44]	; 0x2c
    4f2c:	e3530000 	cmp	r3, #0
    4f30:	e1a06000 	mov	r6, r0
    4f34:	0a000005 	beq	4f50 <_fclose_r+0x6c>
    4f38:	e1a00005 	mov	r0, r5
    4f3c:	e594101c 	ldr	r1, [r4, #28]
    4f40:	e1a0e00f 	mov	lr, pc
    4f44:	e12fff13 	bx	r3
    4f48:	e3500000 	cmp	r0, #0
    4f4c:	b3e06000 	mvnlt	r6, #0
    4f50:	e1d430bc 	ldrh	r3, [r4, #12]
    4f54:	e3130080 	tst	r3, #128	; 0x80
    4f58:	1a00001b 	bne	4fcc <_fclose_r+0xe8>
    4f5c:	e5941030 	ldr	r1, [r4, #48]	; 0x30
    4f60:	e3510000 	cmp	r1, #0
    4f64:	0a000005 	beq	4f80 <_fclose_r+0x9c>
    4f68:	e2843040 	add	r3, r4, #64	; 0x40
    4f6c:	e1510003 	cmp	r1, r3
    4f70:	11a00005 	movne	r0, r5
    4f74:	1bfff643 	blne	2888 <_free_r>
    4f78:	e3a03000 	mov	r3, #0
    4f7c:	e5843030 	str	r3, [r4, #48]	; 0x30
    4f80:	e5941044 	ldr	r1, [r4, #68]	; 0x44
    4f84:	e3510000 	cmp	r1, #0
    4f88:	0a000003 	beq	4f9c <_fclose_r+0xb8>
    4f8c:	e1a00005 	mov	r0, r5
    4f90:	ebfff63c 	bl	2888 <_free_r>
    4f94:	e3a03000 	mov	r3, #0
    4f98:	e5843044 	str	r3, [r4, #68]	; 0x44
    4f9c:	e3a03000 	mov	r3, #0
    4fa0:	e1c430bc 	strh	r3, [r4, #12]
    4fa4:	ebfff56b 	bl	2558 <__sfp_lock_release>
    4fa8:	e1a00006 	mov	r0, r6
    4fac:	e8bd4070 	pop	{r4, r5, r6, lr}
    4fb0:	e12fff1e 	bx	lr
    4fb4:	e1a00005 	mov	r0, r5
    4fb8:	ebfff509 	bl	23e4 <__sinit>
    4fbc:	e1d460fc 	ldrsh	r6, [r4, #12]
    4fc0:	e3560000 	cmp	r6, #0
    4fc4:	1affffd4 	bne	4f1c <_fclose_r+0x38>
    4fc8:	eafffff5 	b	4fa4 <_fclose_r+0xc0>
    4fcc:	e1a00005 	mov	r0, r5
    4fd0:	e5941010 	ldr	r1, [r4, #16]
    4fd4:	ebfff62b 	bl	2888 <_free_r>
    4fd8:	eaffffdf 	b	4f5c <_fclose_r+0x78>

00004fdc <fclose>:
    4fdc:	e59f3008 	ldr	r3, [pc, #8]	; 4fec <fclose+0x10>
    4fe0:	e1a01000 	mov	r1, r0
    4fe4:	e5930000 	ldr	r0, [r3]
    4fe8:	eaffffbd 	b	4ee4 <_fclose_r>
    4fec:	0000e3f0 	.word	0x0000e3f0

00004ff0 <_fstat_r>:
    4ff0:	e92d4038 	push	{r3, r4, r5, lr}
    4ff4:	e59f4030 	ldr	r4, [pc, #48]	; 502c <_fstat_r+0x3c>
    4ff8:	e3a03000 	mov	r3, #0
    4ffc:	e1a05000 	mov	r5, r0
    5000:	e1a00001 	mov	r0, r1
    5004:	e1a01002 	mov	r1, r2
    5008:	e5843000 	str	r3, [r4]
    500c:	eb0003bc 	bl	5f04 <_fstat>
    5010:	e3700001 	cmn	r0, #1
    5014:	1a000002 	bne	5024 <_fstat_r+0x34>
    5018:	e5943000 	ldr	r3, [r4]
    501c:	e3530000 	cmp	r3, #0
    5020:	15853000 	strne	r3, [r5]
    5024:	e8bd4038 	pop	{r3, r4, r5, lr}
    5028:	e12fff1e 	bx	lr
    502c:	00042e7c 	.word	0x00042e7c

00005030 <_isatty_r>:
    5030:	e92d4038 	push	{r3, r4, r5, lr}
    5034:	e59f402c 	ldr	r4, [pc, #44]	; 5068 <_isatty_r+0x38>
    5038:	e3a03000 	mov	r3, #0
    503c:	e1a05000 	mov	r5, r0
    5040:	e1a00001 	mov	r0, r1
    5044:	e5843000 	str	r3, [r4]
    5048:	eb0003c5 	bl	5f64 <_isatty>
    504c:	e3700001 	cmn	r0, #1
    5050:	1a000002 	bne	5060 <_isatty_r+0x30>
    5054:	e5943000 	ldr	r3, [r4]
    5058:	e3530000 	cmp	r3, #0
    505c:	15853000 	strne	r3, [r5]
    5060:	e8bd4038 	pop	{r3, r4, r5, lr}
    5064:	e12fff1e 	bx	lr
    5068:	00042e7c 	.word	0x00042e7c

0000506c <_lseek_r>:
    506c:	e92d4038 	push	{r3, r4, r5, lr}
    5070:	e59f4034 	ldr	r4, [pc, #52]	; 50ac <_lseek_r+0x40>
    5074:	e1a05000 	mov	r5, r0
    5078:	e1a00001 	mov	r0, r1
    507c:	e1a01002 	mov	r1, r2
    5080:	e1a02003 	mov	r2, r3
    5084:	e3a03000 	mov	r3, #0
    5088:	e5843000 	str	r3, [r4]
    508c:	eb0003ce 	bl	5fcc <_lseek>
    5090:	e3700001 	cmn	r0, #1
    5094:	1a000002 	bne	50a4 <_lseek_r+0x38>
    5098:	e5943000 	ldr	r3, [r4]
    509c:	e3530000 	cmp	r3, #0
    50a0:	15853000 	strne	r3, [r5]
    50a4:	e8bd4038 	pop	{r3, r4, r5, lr}
    50a8:	e12fff1e 	bx	lr
    50ac:	00042e7c 	.word	0x00042e7c

000050b0 <_read_r>:
    50b0:	e92d4038 	push	{r3, r4, r5, lr}
    50b4:	e59f4034 	ldr	r4, [pc, #52]	; 50f0 <_read_r+0x40>
    50b8:	e1a05000 	mov	r5, r0
    50bc:	e1a00001 	mov	r0, r1
    50c0:	e1a01002 	mov	r1, r2
    50c4:	e1a02003 	mov	r2, r3
    50c8:	e3a03000 	mov	r3, #0
    50cc:	e5843000 	str	r3, [r4]
    50d0:	eb0003e9 	bl	607c <_read>
    50d4:	e3700001 	cmn	r0, #1
    50d8:	1a000002 	bne	50e8 <_read_r+0x38>
    50dc:	e5943000 	ldr	r3, [r4]
    50e0:	e3530000 	cmp	r3, #0
    50e4:	15853000 	strne	r3, [r5]
    50e8:	e8bd4038 	pop	{r3, r4, r5, lr}
    50ec:	e12fff1e 	bx	lr
    50f0:	00042e7c 	.word	0x00042e7c

000050f4 <cleanup_glue>:
    50f4:	e92d4038 	push	{r3, r4, r5, lr}
    50f8:	e1a04001 	mov	r4, r1
    50fc:	e5911000 	ldr	r1, [r1]
    5100:	e3510000 	cmp	r1, #0
    5104:	e1a05000 	mov	r5, r0
    5108:	1bfffff9 	blne	50f4 <cleanup_glue>
    510c:	e1a00005 	mov	r0, r5
    5110:	e1a01004 	mov	r1, r4
    5114:	ebfff5db 	bl	2888 <_free_r>
    5118:	e8bd4038 	pop	{r3, r4, r5, lr}
    511c:	e12fff1e 	bx	lr

00005120 <_reclaim_reent>:
    5120:	e59f30f0 	ldr	r3, [pc, #240]	; 5218 <_reclaim_reent+0xf8>
    5124:	e5933000 	ldr	r3, [r3]
    5128:	e1500003 	cmp	r0, r3
    512c:	e92d4070 	push	{r4, r5, r6, lr}
    5130:	e1a05000 	mov	r5, r0
    5134:	0a00002b 	beq	51e8 <_reclaim_reent+0xc8>
    5138:	e590204c 	ldr	r2, [r0, #76]	; 0x4c
    513c:	e3520000 	cmp	r2, #0
    5140:	0a000011 	beq	518c <_reclaim_reent+0x6c>
    5144:	e3a03000 	mov	r3, #0
    5148:	e1a06003 	mov	r6, r3
    514c:	e7921103 	ldr	r1, [r2, r3, lsl #2]
    5150:	e3510000 	cmp	r1, #0
    5154:	0a000005 	beq	5170 <_reclaim_reent+0x50>
    5158:	e5914000 	ldr	r4, [r1]
    515c:	e1a00005 	mov	r0, r5
    5160:	ebfff5c8 	bl	2888 <_free_r>
    5164:	e2541000 	subs	r1, r4, #0
    5168:	1afffffa 	bne	5158 <_reclaim_reent+0x38>
    516c:	e595204c 	ldr	r2, [r5, #76]	; 0x4c
    5170:	e2866001 	add	r6, r6, #1
    5174:	e3560020 	cmp	r6, #32
    5178:	e1a03006 	mov	r3, r6
    517c:	1afffff2 	bne	514c <_reclaim_reent+0x2c>
    5180:	e1a00005 	mov	r0, r5
    5184:	e1a01002 	mov	r1, r2
    5188:	ebfff5be 	bl	2888 <_free_r>
    518c:	e5951040 	ldr	r1, [r5, #64]	; 0x40
    5190:	e3510000 	cmp	r1, #0
    5194:	11a00005 	movne	r0, r5
    5198:	1bfff5ba 	blne	2888 <_free_r>
    519c:	e5951148 	ldr	r1, [r5, #328]	; 0x148
    51a0:	e3510000 	cmp	r1, #0
    51a4:	0a000008 	beq	51cc <_reclaim_reent+0xac>
    51a8:	e2856f53 	add	r6, r5, #332	; 0x14c
    51ac:	e1510006 	cmp	r1, r6
    51b0:	0a000005 	beq	51cc <_reclaim_reent+0xac>
    51b4:	e5914000 	ldr	r4, [r1]
    51b8:	e1a00005 	mov	r0, r5
    51bc:	ebfff5b1 	bl	2888 <_free_r>
    51c0:	e1560004 	cmp	r6, r4
    51c4:	e1a01004 	mov	r1, r4
    51c8:	1afffff9 	bne	51b4 <_reclaim_reent+0x94>
    51cc:	e5951054 	ldr	r1, [r5, #84]	; 0x54
    51d0:	e3510000 	cmp	r1, #0
    51d4:	11a00005 	movne	r0, r5
    51d8:	1bfff5aa 	blne	2888 <_free_r>
    51dc:	e5953038 	ldr	r3, [r5, #56]	; 0x38
    51e0:	e3530000 	cmp	r3, #0
    51e4:	1a000001 	bne	51f0 <_reclaim_reent+0xd0>
    51e8:	e8bd4070 	pop	{r4, r5, r6, lr}
    51ec:	e12fff1e 	bx	lr
    51f0:	e1a00005 	mov	r0, r5
    51f4:	e595c03c 	ldr	r12, [r5, #60]	; 0x3c
    51f8:	e1a0e00f 	mov	lr, pc
    51fc:	e12fff1c 	bx	r12
    5200:	e59512e0 	ldr	r1, [r5, #736]	; 0x2e0
    5204:	e3510000 	cmp	r1, #0
    5208:	0afffff6 	beq	51e8 <_reclaim_reent+0xc8>
    520c:	e1a00005 	mov	r0, r5
    5210:	e8bd4070 	pop	{r4, r5, r6, lr}
    5214:	eaffffb6 	b	50f4 <cleanup_glue>
    5218:	0000e3f0 	.word	0x0000e3f0

0000521c <_wrapup_reent>:
    521c:	e92d40f8 	push	{r3, r4, r5, r6, r7, lr}
    5220:	e2507000 	subs	r7, r0, #0
    5224:	059f3060 	ldreq	r3, [pc, #96]	; 528c <_wrapup_reent+0x70>
    5228:	05937000 	ldreq	r7, [r3]
    522c:	e5976148 	ldr	r6, [r7, #328]	; 0x148
    5230:	e3560000 	cmp	r6, #0
    5234:	0a00000d 	beq	5270 <_wrapup_reent+0x54>
    5238:	e5965004 	ldr	r5, [r6, #4]
    523c:	e2554001 	subs	r4, r5, #1
    5240:	52855002 	addpl	r5, r5, #2
    5244:	50865105 	addpl	r5, r6, r5, lsl #2
    5248:	4a000005 	bmi	5264 <_wrapup_reent+0x48>
    524c:	e5353004 	ldr	r3, [r5, #-4]!
    5250:	e2444001 	sub	r4, r4, #1
    5254:	e1a0e00f 	mov	lr, pc
    5258:	e12fff13 	bx	r3
    525c:	e3740001 	cmn	r4, #1
    5260:	1afffff9 	bne	524c <_wrapup_reent+0x30>
    5264:	e5966000 	ldr	r6, [r6]
    5268:	e3560000 	cmp	r6, #0
    526c:	1afffff1 	bne	5238 <_wrapup_reent+0x1c>
    5270:	e597303c 	ldr	r3, [r7, #60]	; 0x3c
    5274:	e3530000 	cmp	r3, #0
    5278:	11a00007 	movne	r0, r7
    527c:	11a0e00f 	movne	lr, pc
    5280:	112fff13 	bxne	r3
    5284:	e8bd40f8 	pop	{r3, r4, r5, r6, r7, lr}
    5288:	e12fff1e 	bx	lr
    528c:	0000e3f0 	.word	0x0000e3f0

00005290 <__aeabi_uldivmod>:
    5290:	e3530000 	cmp	r3, #0
    5294:	03520000 	cmpeq	r2, #0
    5298:	1a000004 	bne	52b0 <__aeabi_uldivmod+0x20>
    529c:	e3510000 	cmp	r1, #0
    52a0:	03500000 	cmpeq	r0, #0
    52a4:	13e01000 	mvnne	r1, #0
    52a8:	13e00000 	mvnne	r0, #0
    52ac:	ea000027 	b	5350 <__aeabi_idiv0>
    52b0:	e24dd008 	sub	sp, sp, #8
    52b4:	e92d6000 	push	{sp, lr}
    52b8:	eb000014 	bl	5310 <__gnu_uldivmod_helper>
    52bc:	e59de004 	ldr	lr, [sp, #4]
    52c0:	e28dd008 	add	sp, sp, #8
    52c4:	e8bd000c 	pop	{r2, r3}
    52c8:	e12fff1e 	bx	lr

000052cc <__gnu_ldivmod_helper>:
    52cc:	e92d45f8 	push	{r3, r4, r5, r6, r7, r8, r10, lr}
    52d0:	e1a08002 	mov	r8, r2
    52d4:	e1a0a003 	mov	r10, r3
    52d8:	e1a06000 	mov	r6, r0
    52dc:	e1a07001 	mov	r7, r1
    52e0:	eb00001b 	bl	5354 <__divdi3>
    52e4:	e0030198 	mul	r3, r8, r1
    52e8:	e1a02000 	mov	r2, r0
    52ec:	e0854098 	umull	r4, r5, r8, r0
    52f0:	e022329a 	mla	r2, r10, r2, r3
    52f4:	e59d3020 	ldr	r3, [sp, #32]
    52f8:	e0825005 	add	r5, r2, r5
    52fc:	e0564004 	subs	r4, r6, r4
    5300:	e0c75005 	sbc	r5, r7, r5
    5304:	e8830030 	stm	r3, {r4, r5}
    5308:	e8bd45f8 	pop	{r3, r4, r5, r6, r7, r8, r10, lr}
    530c:	e12fff1e 	bx	lr

00005310 <__gnu_uldivmod_helper>:
    5310:	e92d41f0 	push	{r4, r5, r6, r7, r8, lr}
    5314:	e1a08002 	mov	r8, r2
    5318:	e1a06000 	mov	r6, r0
    531c:	e1a07001 	mov	r7, r1
    5320:	e1a04003 	mov	r4, r3
    5324:	eb000146 	bl	5844 <__udivdi3>
    5328:	e0030490 	mul	r3, r0, r4
    532c:	e0854890 	umull	r4, r5, r0, r8
    5330:	e0283891 	mla	r8, r1, r8, r3
    5334:	e59d3018 	ldr	r3, [sp, #24]
    5338:	e0885005 	add	r5, r8, r5
    533c:	e0564004 	subs	r4, r6, r4
    5340:	e0c75005 	sbc	r5, r7, r5
    5344:	e8830030 	stm	r3, {r4, r5}
    5348:	e8bd41f0 	pop	{r4, r5, r6, r7, r8, lr}
    534c:	e12fff1e 	bx	lr

00005350 <__aeabi_idiv0>:
    5350:	e12fff1e 	bx	lr

00005354 <__divdi3>:
    5354:	e92d4ff0 	push	{r4, r5, r6, r7, r8, r9, r10, r11, lr}
    5358:	e3510000 	cmp	r1, #0
    535c:	e24dd00c 	sub	sp, sp, #12
    5360:	e1a0c003 	mov	r12, r3
    5364:	a3a05000 	movge	r5, #0
    5368:	ba00009b 	blt	55dc <__divdi3+0x288>
    536c:	e35c0000 	cmp	r12, #0
    5370:	ba000095 	blt	55cc <__divdi3+0x278>
    5374:	e2539000 	subs	r9, r3, #0
    5378:	e1a08000 	mov	r8, r0
    537c:	e1a0a001 	mov	r10, r1
    5380:	e1a0b002 	mov	r11, r2
    5384:	e1a04002 	mov	r4, r2
    5388:	e1a06000 	mov	r6, r0
    538c:	e1a07001 	mov	r7, r1
    5390:	1a000042 	bne	54a0 <__divdi3+0x14c>
    5394:	e1520001 	cmp	r2, r1
    5398:	9a000050 	bls	54e0 <__divdi3+0x18c>
    539c:	e1a00002 	mov	r0, r2
    53a0:	eb00028e 	bl	5de0 <__clzsi2>
    53a4:	e3500000 	cmp	r0, #0
    53a8:	12603020 	rsbne	r3, r0, #32
    53ac:	11a03338 	lsrne	r3, r8, r3
    53b0:	11a0401b 	lslne	r4, r11, r0
    53b4:	1183701a 	orrne	r7, r3, r10, lsl r0
    53b8:	11a06018 	lslne	r6, r8, r0
    53bc:	e1a08824 	lsr	r8, r4, #16
    53c0:	e1a01008 	mov	r1, r8
    53c4:	e1a00007 	mov	r0, r7
    53c8:	eb00023f 	bl	5ccc <__aeabi_uidiv>
    53cc:	e1a01008 	mov	r1, r8
    53d0:	e1a09000 	mov	r9, r0
    53d4:	e1a00007 	mov	r0, r7
    53d8:	eb000278 	bl	5dc0 <__aeabi_uidivmod>
    53dc:	e1a0a804 	lsl	r10, r4, #16
    53e0:	e1a0a82a 	lsr	r10, r10, #16
    53e4:	e000099a 	mul	r0, r10, r9
    53e8:	e1a03826 	lsr	r3, r6, #16
    53ec:	e1831801 	orr	r1, r3, r1, lsl #16
    53f0:	e1500001 	cmp	r0, r1
    53f4:	9a000007 	bls	5418 <__divdi3+0xc4>
    53f8:	e0911004 	adds	r1, r1, r4
    53fc:	e2492001 	sub	r2, r9, #1
    5400:	2a000003 	bcs	5414 <__divdi3+0xc0>
    5404:	e1500001 	cmp	r0, r1
    5408:	82499002 	subhi	r9, r9, #2
    540c:	80811004 	addhi	r1, r1, r4
    5410:	8a000000 	bhi	5418 <__divdi3+0xc4>
    5414:	e1a09002 	mov	r9, r2
    5418:	e060b001 	rsb	r11, r0, r1
    541c:	e1a0000b 	mov	r0, r11
    5420:	e1a01008 	mov	r1, r8
    5424:	eb000228 	bl	5ccc <__aeabi_uidiv>
    5428:	e1a01008 	mov	r1, r8
    542c:	e1a07000 	mov	r7, r0
    5430:	e1a0000b 	mov	r0, r11
    5434:	eb000261 	bl	5dc0 <__aeabi_uidivmod>
    5438:	e00a0a97 	mul	r10, r7, r10
    543c:	e1a06806 	lsl	r6, r6, #16
    5440:	e1a06826 	lsr	r6, r6, #16
    5444:	e1861801 	orr	r1, r6, r1, lsl #16
    5448:	e15a0001 	cmp	r10, r1
    544c:	9a000006 	bls	546c <__divdi3+0x118>
    5450:	e0914004 	adds	r4, r1, r4
    5454:	e2473001 	sub	r3, r7, #1
    5458:	2a000002 	bcs	5468 <__divdi3+0x114>
    545c:	e15a0004 	cmp	r10, r4
    5460:	82477002 	subhi	r7, r7, #2
    5464:	8a000000 	bhi	546c <__divdi3+0x118>
    5468:	e1a07003 	mov	r7, r3
    546c:	e1870809 	orr	r0, r7, r9, lsl #16
    5470:	e3a08000 	mov	r8, #0
    5474:	e3550000 	cmp	r5, #0
    5478:	e1a02000 	mov	r2, r0
    547c:	e1a03008 	mov	r3, r8
    5480:	0a000001 	beq	548c <__divdi3+0x138>
    5484:	e2722000 	rsbs	r2, r2, #0
    5488:	e2e33000 	rsc	r3, r3, #0
    548c:	e1a00002 	mov	r0, r2
    5490:	e1a01003 	mov	r1, r3
    5494:	e28dd00c 	add	sp, sp, #12
    5498:	e8bd4ff0 	pop	{r4, r5, r6, r7, r8, r9, r10, r11, lr}
    549c:	e12fff1e 	bx	lr
    54a0:	e1590001 	cmp	r9, r1
    54a4:	83a08000 	movhi	r8, #0
    54a8:	81a00008 	movhi	r0, r8
    54ac:	8afffff0 	bhi	5474 <__divdi3+0x120>
    54b0:	e1a00003 	mov	r0, r3
    54b4:	eb000249 	bl	5de0 <__clzsi2>
    54b8:	e2504000 	subs	r4, r0, #0
    54bc:	1a000083 	bne	56d0 <__divdi3+0x37c>
    54c0:	e159000a 	cmp	r9, r10
    54c4:	215b0008 	cmpcs	r11, r8
    54c8:	83a08000 	movhi	r8, #0
    54cc:	93a08001 	movls	r8, #1
    54d0:	93a00001 	movls	r0, #1
    54d4:	91a08004 	movls	r8, r4
    54d8:	81a00008 	movhi	r0, r8
    54dc:	eaffffe4 	b	5474 <__divdi3+0x120>
    54e0:	e3520000 	cmp	r2, #0
    54e4:	1a000003 	bne	54f8 <__divdi3+0x1a4>
    54e8:	e3a00001 	mov	r0, #1
    54ec:	e1a01002 	mov	r1, r2
    54f0:	eb0001f5 	bl	5ccc <__aeabi_uidiv>
    54f4:	e1a04000 	mov	r4, r0
    54f8:	e1a00004 	mov	r0, r4
    54fc:	eb000237 	bl	5de0 <__clzsi2>
    5500:	e2503000 	subs	r3, r0, #0
    5504:	1a000038 	bne	55ec <__divdi3+0x298>
    5508:	e1a09804 	lsl	r9, r4, #16
    550c:	e0647007 	rsb	r7, r4, r7
    5510:	e1a0a824 	lsr	r10, r4, #16
    5514:	e1a09829 	lsr	r9, r9, #16
    5518:	e3a08001 	mov	r8, #1
    551c:	e1a0100a 	mov	r1, r10
    5520:	e1a00007 	mov	r0, r7
    5524:	eb0001e8 	bl	5ccc <__aeabi_uidiv>
    5528:	e1a0100a 	mov	r1, r10
    552c:	e1a0b000 	mov	r11, r0
    5530:	e1a00007 	mov	r0, r7
    5534:	eb000221 	bl	5dc0 <__aeabi_uidivmod>
    5538:	e0000b99 	mul	r0, r9, r11
    553c:	e1a03826 	lsr	r3, r6, #16
    5540:	e1831801 	orr	r1, r3, r1, lsl #16
    5544:	e1500001 	cmp	r0, r1
    5548:	9a000006 	bls	5568 <__divdi3+0x214>
    554c:	e0911004 	adds	r1, r1, r4
    5550:	e24b3001 	sub	r3, r11, #1
    5554:	2a0000b2 	bcs	5824 <__divdi3+0x4d0>
    5558:	e1500001 	cmp	r0, r1
    555c:	824bb002 	subhi	r11, r11, #2
    5560:	80811004 	addhi	r1, r1, r4
    5564:	9a0000ae 	bls	5824 <__divdi3+0x4d0>
    5568:	e0603001 	rsb	r3, r0, r1
    556c:	e1a00003 	mov	r0, r3
    5570:	e1a0100a 	mov	r1, r10
    5574:	e58d3000 	str	r3, [sp]
    5578:	eb0001d3 	bl	5ccc <__aeabi_uidiv>
    557c:	e59d3000 	ldr	r3, [sp]
    5580:	e1a07000 	mov	r7, r0
    5584:	e1a0100a 	mov	r1, r10
    5588:	e1a00003 	mov	r0, r3
    558c:	eb00020b 	bl	5dc0 <__aeabi_uidivmod>
    5590:	e0090997 	mul	r9, r7, r9
    5594:	e1a06806 	lsl	r6, r6, #16
    5598:	e1a06826 	lsr	r6, r6, #16
    559c:	e1861801 	orr	r1, r6, r1, lsl #16
    55a0:	e1590001 	cmp	r9, r1
    55a4:	9a000006 	bls	55c4 <__divdi3+0x270>
    55a8:	e0914004 	adds	r4, r1, r4
    55ac:	e2473001 	sub	r3, r7, #1
    55b0:	2a000002 	bcs	55c0 <__divdi3+0x26c>
    55b4:	e1590004 	cmp	r9, r4
    55b8:	82477002 	subhi	r7, r7, #2
    55bc:	8a000000 	bhi	55c4 <__divdi3+0x270>
    55c0:	e1a07003 	mov	r7, r3
    55c4:	e187080b 	orr	r0, r7, r11, lsl #16
    55c8:	eaffffa9 	b	5474 <__divdi3+0x120>
    55cc:	e1e05005 	mvn	r5, r5
    55d0:	e2722000 	rsbs	r2, r2, #0
    55d4:	e2e33000 	rsc	r3, r3, #0
    55d8:	eaffff65 	b	5374 <__divdi3+0x20>
    55dc:	e2700000 	rsbs	r0, r0, #0
    55e0:	e2e11000 	rsc	r1, r1, #0
    55e4:	e3e05000 	mvn	r5, #0
    55e8:	eaffff5f 	b	536c <__divdi3+0x18>
    55ec:	e1a04314 	lsl	r4, r4, r3
    55f0:	e263b020 	rsb	r11, r3, #32
    55f4:	e1a08b37 	lsr	r8, r7, r11
    55f8:	e1a0bb36 	lsr	r11, r6, r11
    55fc:	e1a0a824 	lsr	r10, r4, #16
    5600:	e1a0100a 	mov	r1, r10
    5604:	e1a00008 	mov	r0, r8
    5608:	e18bb317 	orr	r11, r11, r7, lsl r3
    560c:	e1a06316 	lsl	r6, r6, r3
    5610:	eb0001ad 	bl	5ccc <__aeabi_uidiv>
    5614:	e1a0100a 	mov	r1, r10
    5618:	e1a03000 	mov	r3, r0
    561c:	e1a00008 	mov	r0, r8
    5620:	e58d3000 	str	r3, [sp]
    5624:	eb0001e5 	bl	5dc0 <__aeabi_uidivmod>
    5628:	e1a09804 	lsl	r9, r4, #16
    562c:	e59d3000 	ldr	r3, [sp]
    5630:	e1a09829 	lsr	r9, r9, #16
    5634:	e0000399 	mul	r0, r9, r3
    5638:	e1a0282b 	lsr	r2, r11, #16
    563c:	e1821801 	orr	r1, r2, r1, lsl #16
    5640:	e1500001 	cmp	r0, r1
    5644:	9a000006 	bls	5664 <__divdi3+0x310>
    5648:	e0911004 	adds	r1, r1, r4
    564c:	e2432001 	sub	r2, r3, #1
    5650:	2a000079 	bcs	583c <__divdi3+0x4e8>
    5654:	e1500001 	cmp	r0, r1
    5658:	82433002 	subhi	r3, r3, #2
    565c:	80811004 	addhi	r1, r1, r4
    5660:	9a000075 	bls	583c <__divdi3+0x4e8>
    5664:	e0607001 	rsb	r7, r0, r1
    5668:	e1a00007 	mov	r0, r7
    566c:	e1a0100a 	mov	r1, r10
    5670:	e58d3000 	str	r3, [sp]
    5674:	eb000194 	bl	5ccc <__aeabi_uidiv>
    5678:	e1a0100a 	mov	r1, r10
    567c:	e1a08000 	mov	r8, r0
    5680:	e1a00007 	mov	r0, r7
    5684:	eb0001cd 	bl	5dc0 <__aeabi_uidivmod>
    5688:	e0070899 	mul	r7, r9, r8
    568c:	e1a0b80b 	lsl	r11, r11, #16
    5690:	e1a0b82b 	lsr	r11, r11, #16
    5694:	e18b1801 	orr	r1, r11, r1, lsl #16
    5698:	e1570001 	cmp	r7, r1
    569c:	e59d3000 	ldr	r3, [sp]
    56a0:	9a000007 	bls	56c4 <__divdi3+0x370>
    56a4:	e0911004 	adds	r1, r1, r4
    56a8:	e2482001 	sub	r2, r8, #1
    56ac:	2a000003 	bcs	56c0 <__divdi3+0x36c>
    56b0:	e1570001 	cmp	r7, r1
    56b4:	82488002 	subhi	r8, r8, #2
    56b8:	80811004 	addhi	r1, r1, r4
    56bc:	8a000000 	bhi	56c4 <__divdi3+0x370>
    56c0:	e1a08002 	mov	r8, r2
    56c4:	e0677001 	rsb	r7, r7, r1
    56c8:	e1888803 	orr	r8, r8, r3, lsl #16
    56cc:	eaffff92 	b	551c <__divdi3+0x1c8>
    56d0:	e2643020 	rsb	r3, r4, #32
    56d4:	e1a0233b 	lsr	r2, r11, r3
    56d8:	e1829419 	orr	r9, r2, r9, lsl r4
    56dc:	e1a0233a 	lsr	r2, r10, r3
    56e0:	e1a03336 	lsr	r3, r6, r3
    56e4:	e1a07829 	lsr	r7, r9, #16
    56e8:	e1a01007 	mov	r1, r7
    56ec:	e1a00002 	mov	r0, r2
    56f0:	e183a41a 	orr	r10, r3, r10, lsl r4
    56f4:	e58d2004 	str	r2, [sp, #4]
    56f8:	eb000173 	bl	5ccc <__aeabi_uidiv>
    56fc:	e59d2004 	ldr	r2, [sp, #4]
    5700:	e1a03000 	mov	r3, r0
    5704:	e1a01007 	mov	r1, r7
    5708:	e1a00002 	mov	r0, r2
    570c:	e58d3000 	str	r3, [sp]
    5710:	eb0001aa 	bl	5dc0 <__aeabi_uidivmod>
    5714:	e1a08809 	lsl	r8, r9, #16
    5718:	e59d3000 	ldr	r3, [sp]
    571c:	e1a08828 	lsr	r8, r8, #16
    5720:	e0000398 	mul	r0, r8, r3
    5724:	e1a0282a 	lsr	r2, r10, #16
    5728:	e1821801 	orr	r1, r2, r1, lsl #16
    572c:	e1500001 	cmp	r0, r1
    5730:	e1a0b41b 	lsl	r11, r11, r4
    5734:	9a000006 	bls	5754 <__divdi3+0x400>
    5738:	e0911009 	adds	r1, r1, r9
    573c:	e2432001 	sub	r2, r3, #1
    5740:	2a00003b 	bcs	5834 <__divdi3+0x4e0>
    5744:	e1500001 	cmp	r0, r1
    5748:	82433002 	subhi	r3, r3, #2
    574c:	80811009 	addhi	r1, r1, r9
    5750:	9a000037 	bls	5834 <__divdi3+0x4e0>
    5754:	e060c001 	rsb	r12, r0, r1
    5758:	e1a0000c 	mov	r0, r12
    575c:	e1a01007 	mov	r1, r7
    5760:	e88d1008 	stm	sp, {r3, r12}
    5764:	eb000158 	bl	5ccc <__aeabi_uidiv>
    5768:	e59dc004 	ldr	r12, [sp, #4]
    576c:	e1a02000 	mov	r2, r0
    5770:	e1a01007 	mov	r1, r7
    5774:	e1a0000c 	mov	r0, r12
    5778:	e58d2004 	str	r2, [sp, #4]
    577c:	eb00018f 	bl	5dc0 <__aeabi_uidivmod>
    5780:	e59d2004 	ldr	r2, [sp, #4]
    5784:	e0080892 	mul	r8, r2, r8
    5788:	e1a0a80a 	lsl	r10, r10, #16
    578c:	e1a0a82a 	lsr	r10, r10, #16
    5790:	e18a1801 	orr	r1, r10, r1, lsl #16
    5794:	e1580001 	cmp	r8, r1
    5798:	e59d3000 	ldr	r3, [sp]
    579c:	9a000006 	bls	57bc <__divdi3+0x468>
    57a0:	e0911009 	adds	r1, r1, r9
    57a4:	e2420001 	sub	r0, r2, #1
    57a8:	2a00001f 	bcs	582c <__divdi3+0x4d8>
    57ac:	e1580001 	cmp	r8, r1
    57b0:	82422002 	subhi	r2, r2, #2
    57b4:	80811009 	addhi	r1, r1, r9
    57b8:	9a00001b 	bls	582c <__divdi3+0x4d8>
    57bc:	e0688001 	rsb	r8, r8, r1
    57c0:	e1820803 	orr	r0, r2, r3, lsl #16
    57c4:	e1a01820 	lsr	r1, r0, #16
    57c8:	e1a0382b 	lsr	r3, r11, #16
    57cc:	e1c0c801 	bic	r12, r0, r1, lsl #16
    57d0:	e1cbb803 	bic	r11, r11, r3, lsl #16
    57d4:	e0020b9c 	mul	r2, r12, r11
    57d8:	e00b0b91 	mul	r11, r1, r11
    57dc:	e00c0c93 	mul	r12, r3, r12
    57e0:	e0030391 	mul	r3, r1, r3
    57e4:	e09bc00c 	adds	r12, r11, r12
    57e8:	22833801 	addcs	r3, r3, #65536	; 0x10000
    57ec:	e092280c 	adds	r2, r2, r12, lsl #16
    57f0:	e0a3382c 	adc	r3, r3, r12, lsr #16
    57f4:	e1580003 	cmp	r8, r3
    57f8:	3a000006 	bcc	5818 <__divdi3+0x4c4>
    57fc:	13a08000 	movne	r8, #0
    5800:	03a08001 	moveq	r8, #1
    5804:	e1520416 	cmp	r2, r6, lsl r4
    5808:	93a08000 	movls	r8, #0
    580c:	82088001 	andhi	r8, r8, #1
    5810:	e3580000 	cmp	r8, #0
    5814:	0affff16 	beq	5474 <__divdi3+0x120>
    5818:	e2400001 	sub	r0, r0, #1
    581c:	e3a08000 	mov	r8, #0
    5820:	eaffff13 	b	5474 <__divdi3+0x120>
    5824:	e1a0b003 	mov	r11, r3
    5828:	eaffff4e 	b	5568 <__divdi3+0x214>
    582c:	e1a02000 	mov	r2, r0
    5830:	eaffffe1 	b	57bc <__divdi3+0x468>
    5834:	e1a03002 	mov	r3, r2
    5838:	eaffffc5 	b	5754 <__divdi3+0x400>
    583c:	e1a03002 	mov	r3, r2
    5840:	eaffff87 	b	5664 <__divdi3+0x310>

00005844 <__udivdi3>:
    5844:	e92d4ff0 	push	{r4, r5, r6, r7, r8, r9, r10, r11, lr}
    5848:	e253a000 	subs	r10, r3, #0
    584c:	e24dd00c 	sub	sp, sp, #12
    5850:	e1a06000 	mov	r6, r0
    5854:	e1a05001 	mov	r5, r1
    5858:	e1a07002 	mov	r7, r2
    585c:	e1a04002 	mov	r4, r2
    5860:	e1a08000 	mov	r8, r0
    5864:	e1a09001 	mov	r9, r1
    5868:	1a00003a 	bne	5958 <__udivdi3+0x114>
    586c:	e1520001 	cmp	r2, r1
    5870:	9a000048 	bls	5998 <__udivdi3+0x154>
    5874:	e1a00002 	mov	r0, r2
    5878:	eb000158 	bl	5de0 <__clzsi2>
    587c:	e3500000 	cmp	r0, #0
    5880:	12603020 	rsbne	r3, r0, #32
    5884:	11a03336 	lsrne	r3, r6, r3
    5888:	11a04017 	lslne	r4, r7, r0
    588c:	11839015 	orrne	r9, r3, r5, lsl r0
    5890:	e1a05824 	lsr	r5, r4, #16
    5894:	11a08016 	lslne	r8, r6, r0
    5898:	e1a01005 	mov	r1, r5
    589c:	e1a00009 	mov	r0, r9
    58a0:	eb000109 	bl	5ccc <__aeabi_uidiv>
    58a4:	e1a01005 	mov	r1, r5
    58a8:	e1a07000 	mov	r7, r0
    58ac:	e1a00009 	mov	r0, r9
    58b0:	eb000142 	bl	5dc0 <__aeabi_uidivmod>
    58b4:	e1a0a804 	lsl	r10, r4, #16
    58b8:	e1a0a82a 	lsr	r10, r10, #16
    58bc:	e000079a 	mul	r0, r10, r7
    58c0:	e1a03828 	lsr	r3, r8, #16
    58c4:	e1831801 	orr	r1, r3, r1, lsl #16
    58c8:	e1500001 	cmp	r0, r1
    58cc:	9a000007 	bls	58f0 <__udivdi3+0xac>
    58d0:	e0911004 	adds	r1, r1, r4
    58d4:	e2472001 	sub	r2, r7, #1
    58d8:	2a000003 	bcs	58ec <__udivdi3+0xa8>
    58dc:	e1500001 	cmp	r0, r1
    58e0:	82477002 	subhi	r7, r7, #2
    58e4:	80811004 	addhi	r1, r1, r4
    58e8:	8a000000 	bhi	58f0 <__udivdi3+0xac>
    58ec:	e1a07002 	mov	r7, r2
    58f0:	e0609001 	rsb	r9, r0, r1
    58f4:	e1a00009 	mov	r0, r9
    58f8:	e1a01005 	mov	r1, r5
    58fc:	eb0000f2 	bl	5ccc <__aeabi_uidiv>
    5900:	e1a01005 	mov	r1, r5
    5904:	e1a06000 	mov	r6, r0
    5908:	e1a00009 	mov	r0, r9
    590c:	eb00012b 	bl	5dc0 <__aeabi_uidivmod>
    5910:	e00a0a96 	mul	r10, r6, r10
    5914:	e1a08808 	lsl	r8, r8, #16
    5918:	e1a08828 	lsr	r8, r8, #16
    591c:	e1881801 	orr	r1, r8, r1, lsl #16
    5920:	e15a0001 	cmp	r10, r1
    5924:	9a000005 	bls	5940 <__udivdi3+0xfc>
    5928:	e0914004 	adds	r4, r1, r4
    592c:	e2463001 	sub	r3, r6, #1
    5930:	2a0000d3 	bcs	5c84 <__udivdi3+0x440>
    5934:	e15a0004 	cmp	r10, r4
    5938:	82466002 	subhi	r6, r6, #2
    593c:	9a0000d0 	bls	5c84 <__udivdi3+0x440>
    5940:	e1860807 	orr	r0, r6, r7, lsl #16
    5944:	e3a06000 	mov	r6, #0
    5948:	e1a01006 	mov	r1, r6
    594c:	e28dd00c 	add	sp, sp, #12
    5950:	e8bd4ff0 	pop	{r4, r5, r6, r7, r8, r9, r10, r11, lr}
    5954:	e12fff1e 	bx	lr
    5958:	e15a0001 	cmp	r10, r1
    595c:	83a06000 	movhi	r6, #0
    5960:	81a00006 	movhi	r0, r6
    5964:	8afffff7 	bhi	5948 <__udivdi3+0x104>
    5968:	e1a0000a 	mov	r0, r10
    596c:	eb00011b 	bl	5de0 <__clzsi2>
    5970:	e2504000 	subs	r4, r0, #0
    5974:	1a00003f 	bne	5a78 <__udivdi3+0x234>
    5978:	e15a0005 	cmp	r10, r5
    597c:	21570006 	cmpcs	r7, r6
    5980:	83a06000 	movhi	r6, #0
    5984:	93a06001 	movls	r6, #1
    5988:	93a00001 	movls	r0, #1
    598c:	91a06004 	movls	r6, r4
    5990:	81a00006 	movhi	r0, r6
    5994:	eaffffeb 	b	5948 <__udivdi3+0x104>
    5998:	e3520000 	cmp	r2, #0
    599c:	1a000003 	bne	59b0 <__udivdi3+0x16c>
    59a0:	e3a00001 	mov	r0, #1
    59a4:	e1a01002 	mov	r1, r2
    59a8:	eb0000c7 	bl	5ccc <__aeabi_uidiv>
    59ac:	e1a04000 	mov	r4, r0
    59b0:	e1a00004 	mov	r0, r4
    59b4:	eb000109 	bl	5de0 <__clzsi2>
    59b8:	e2503000 	subs	r3, r0, #0
    59bc:	1a000079 	bne	5ba8 <__udivdi3+0x364>
    59c0:	e1a09804 	lsl	r9, r4, #16
    59c4:	e0645005 	rsb	r5, r4, r5
    59c8:	e1a0a824 	lsr	r10, r4, #16
    59cc:	e1a09829 	lsr	r9, r9, #16
    59d0:	e3a06001 	mov	r6, #1
    59d4:	e1a0100a 	mov	r1, r10
    59d8:	e1a00005 	mov	r0, r5
    59dc:	eb0000ba 	bl	5ccc <__aeabi_uidiv>
    59e0:	e1a0100a 	mov	r1, r10
    59e4:	e1a07000 	mov	r7, r0
    59e8:	e1a00005 	mov	r0, r5
    59ec:	eb0000f3 	bl	5dc0 <__aeabi_uidivmod>
    59f0:	e0000799 	mul	r0, r9, r7
    59f4:	e1a03828 	lsr	r3, r8, #16
    59f8:	e1831801 	orr	r1, r3, r1, lsl #16
    59fc:	e1500001 	cmp	r0, r1
    5a00:	9a000006 	bls	5a20 <__udivdi3+0x1dc>
    5a04:	e0911004 	adds	r1, r1, r4
    5a08:	e2473001 	sub	r3, r7, #1
    5a0c:	2a00009e 	bcs	5c8c <__udivdi3+0x448>
    5a10:	e1500001 	cmp	r0, r1
    5a14:	82477002 	subhi	r7, r7, #2
    5a18:	80811004 	addhi	r1, r1, r4
    5a1c:	9a00009a 	bls	5c8c <__udivdi3+0x448>
    5a20:	e060b001 	rsb	r11, r0, r1
    5a24:	e1a0000b 	mov	r0, r11
    5a28:	e1a0100a 	mov	r1, r10
    5a2c:	eb0000a6 	bl	5ccc <__aeabi_uidiv>
    5a30:	e1a0100a 	mov	r1, r10
    5a34:	e1a05000 	mov	r5, r0
    5a38:	e1a0000b 	mov	r0, r11
    5a3c:	eb0000df 	bl	5dc0 <__aeabi_uidivmod>
    5a40:	e0090995 	mul	r9, r5, r9
    5a44:	e1a08808 	lsl	r8, r8, #16
    5a48:	e1a08828 	lsr	r8, r8, #16
    5a4c:	e1881801 	orr	r1, r8, r1, lsl #16
    5a50:	e1590001 	cmp	r9, r1
    5a54:	9a000005 	bls	5a70 <__udivdi3+0x22c>
    5a58:	e0914004 	adds	r4, r1, r4
    5a5c:	e2453001 	sub	r3, r5, #1
    5a60:	2a00008b 	bcs	5c94 <__udivdi3+0x450>
    5a64:	e1590004 	cmp	r9, r4
    5a68:	82455002 	subhi	r5, r5, #2
    5a6c:	9a000088 	bls	5c94 <__udivdi3+0x450>
    5a70:	e1850807 	orr	r0, r5, r7, lsl #16
    5a74:	eaffffb3 	b	5948 <__udivdi3+0x104>
    5a78:	e2643020 	rsb	r3, r4, #32
    5a7c:	e1a02337 	lsr	r2, r7, r3
    5a80:	e182a41a 	orr	r10, r2, r10, lsl r4
    5a84:	e1a02335 	lsr	r2, r5, r3
    5a88:	e1a03336 	lsr	r3, r6, r3
    5a8c:	e1a0882a 	lsr	r8, r10, #16
    5a90:	e1a01008 	mov	r1, r8
    5a94:	e1a00002 	mov	r0, r2
    5a98:	e1835415 	orr	r5, r3, r5, lsl r4
    5a9c:	e58d2004 	str	r2, [sp, #4]
    5aa0:	eb000089 	bl	5ccc <__aeabi_uidiv>
    5aa4:	e59d2004 	ldr	r2, [sp, #4]
    5aa8:	e1a0b000 	mov	r11, r0
    5aac:	e1a01008 	mov	r1, r8
    5ab0:	e1a00002 	mov	r0, r2
    5ab4:	eb0000c1 	bl	5dc0 <__aeabi_uidivmod>
    5ab8:	e1a0980a 	lsl	r9, r10, #16
    5abc:	e1a09829 	lsr	r9, r9, #16
    5ac0:	e0000b99 	mul	r0, r9, r11
    5ac4:	e1a03825 	lsr	r3, r5, #16
    5ac8:	e1831801 	orr	r1, r3, r1, lsl #16
    5acc:	e1500001 	cmp	r0, r1
    5ad0:	e1a07417 	lsl	r7, r7, r4
    5ad4:	9a000003 	bls	5ae8 <__udivdi3+0x2a4>
    5ad8:	e091100a 	adds	r1, r1, r10
    5adc:	e24b2001 	sub	r2, r11, #1
    5ae0:	3a000072 	bcc	5cb0 <__udivdi3+0x46c>
    5ae4:	e1a0b002 	mov	r11, r2
    5ae8:	e0603001 	rsb	r3, r0, r1
    5aec:	e1a00003 	mov	r0, r3
    5af0:	e1a01008 	mov	r1, r8
    5af4:	e58d3004 	str	r3, [sp, #4]
    5af8:	eb000073 	bl	5ccc <__aeabi_uidiv>
    5afc:	e59d3004 	ldr	r3, [sp, #4]
    5b00:	e1a02000 	mov	r2, r0
    5b04:	e1a01008 	mov	r1, r8
    5b08:	e1a00003 	mov	r0, r3
    5b0c:	e58d2004 	str	r2, [sp, #4]
    5b10:	eb0000aa 	bl	5dc0 <__aeabi_uidivmod>
    5b14:	e59d2004 	ldr	r2, [sp, #4]
    5b18:	e0090992 	mul	r9, r2, r9
    5b1c:	e1a05805 	lsl	r5, r5, #16
    5b20:	e1a05825 	lsr	r5, r5, #16
    5b24:	e1851801 	orr	r1, r5, r1, lsl #16
    5b28:	e1590001 	cmp	r9, r1
    5b2c:	9a000003 	bls	5b40 <__udivdi3+0x2fc>
    5b30:	e091100a 	adds	r1, r1, r10
    5b34:	e2423001 	sub	r3, r2, #1
    5b38:	3a000057 	bcc	5c9c <__udivdi3+0x458>
    5b3c:	e1a02003 	mov	r2, r3
    5b40:	e0699001 	rsb	r9, r9, r1
    5b44:	e182080b 	orr	r0, r2, r11, lsl #16
    5b48:	e1a01820 	lsr	r1, r0, #16
    5b4c:	e1a03827 	lsr	r3, r7, #16
    5b50:	e1c0c801 	bic	r12, r0, r1, lsl #16
    5b54:	e1c77803 	bic	r7, r7, r3, lsl #16
    5b58:	e002079c 	mul	r2, r12, r7
    5b5c:	e0070791 	mul	r7, r1, r7
    5b60:	e00c0c93 	mul	r12, r3, r12
    5b64:	e0030391 	mul	r3, r1, r3
    5b68:	e097c00c 	adds	r12, r7, r12
    5b6c:	22833801 	addcs	r3, r3, #65536	; 0x10000
    5b70:	e092280c 	adds	r2, r2, r12, lsl #16
    5b74:	e0a3382c 	adc	r3, r3, r12, lsr #16
    5b78:	e1590003 	cmp	r9, r3
    5b7c:	3a000006 	bcc	5b9c <__udivdi3+0x358>
    5b80:	13a03000 	movne	r3, #0
    5b84:	03a03001 	moveq	r3, #1
    5b88:	e1520416 	cmp	r2, r6, lsl r4
    5b8c:	93a06000 	movls	r6, #0
    5b90:	82036001 	andhi	r6, r3, #1
    5b94:	e3560000 	cmp	r6, #0
    5b98:	0affff6a 	beq	5948 <__udivdi3+0x104>
    5b9c:	e2400001 	sub	r0, r0, #1
    5ba0:	e3a06000 	mov	r6, #0
    5ba4:	eaffff67 	b	5948 <__udivdi3+0x104>
    5ba8:	e1a04314 	lsl	r4, r4, r3
    5bac:	e263b020 	rsb	r11, r3, #32
    5bb0:	e1a02b35 	lsr	r2, r5, r11
    5bb4:	e1a0bb36 	lsr	r11, r6, r11
    5bb8:	e1a0a824 	lsr	r10, r4, #16
    5bbc:	e1a0100a 	mov	r1, r10
    5bc0:	e1a00002 	mov	r0, r2
    5bc4:	e18bb315 	orr	r11, r11, r5, lsl r3
    5bc8:	e1a08316 	lsl	r8, r6, r3
    5bcc:	e58d2004 	str	r2, [sp, #4]
    5bd0:	eb00003d 	bl	5ccc <__aeabi_uidiv>
    5bd4:	e59d2004 	ldr	r2, [sp, #4]
    5bd8:	e1a07000 	mov	r7, r0
    5bdc:	e1a0100a 	mov	r1, r10
    5be0:	e1a00002 	mov	r0, r2
    5be4:	eb000075 	bl	5dc0 <__aeabi_uidivmod>
    5be8:	e1a09804 	lsl	r9, r4, #16
    5bec:	e1a09829 	lsr	r9, r9, #16
    5bf0:	e0000799 	mul	r0, r9, r7
    5bf4:	e1a0382b 	lsr	r3, r11, #16
    5bf8:	e1831801 	orr	r1, r3, r1, lsl #16
    5bfc:	e1500001 	cmp	r0, r1
    5c00:	9a000006 	bls	5c20 <__udivdi3+0x3dc>
    5c04:	e0911004 	adds	r1, r1, r4
    5c08:	e2473001 	sub	r3, r7, #1
    5c0c:	2a00002c 	bcs	5cc4 <__udivdi3+0x480>
    5c10:	e1500001 	cmp	r0, r1
    5c14:	82477002 	subhi	r7, r7, #2
    5c18:	80811004 	addhi	r1, r1, r4
