
audio_demo.axf:     file format elf32-littlearm


Disassembly of section .vectors:

00000000 <__cs3_interrupt_vector>:
   0:	18 f0 9f e5 18 f0 9f e5 18 f0 9f e5 18 f0 9f e5     ................
  10:	18 f0 9f e5 18 f0 9f e5 18 f0 9f e5 18 f0 9f e5     ................
  20:	94 08 00 00 98 08 00 00 9c 08 00 00 a0 08 00 00     ................
  30:	a4 08 00 00 44 66 00 00 a8 08 00 00 fc 08 00 00     ....Df..........

Disassembly of section .text:

00000040 <__cs3_reset_generic>:
      40:	ea000026 	b	e0 <__cs3_start_asm_sim>

00000044 <__cs3_start_c>:
      44:	e59f608c 	ldr	r6, [pc, #140]	; d8 <__cs3_start_c+0x94>
      48:	e3560000 	cmp	r6, #0
      4c:	e92d4080 	push	{r7, lr}
      50:	e2466001 	sub	r6, r6, #1
      54:	0a00001e 	beq	d4 <__cs3_start_c+0x90>
      58:	e59f507c 	ldr	r5, [pc, #124]	; dc <__cs3_start_c+0x98>
      5c:	e3a00000 	mov	r0, #0
      60:	e3a01000 	mov	r1, #0
      64:	e515200c 	ldr	r2, [r5, #-12]
      68:	e515e010 	ldr	lr, [r5, #-16]
      6c:	e5154008 	ldr	r4, [r5, #-8]
      70:	e15e0002 	cmp	lr, r2
      74:	00822004 	addeq	r2, r2, r4
      78:	0a000009 	beq	a4 <__cs3_start_c+0x60>
      7c:	e3540000 	cmp	r4, #0
      80:	0a000007 	beq	a4 <__cs3_start_c+0x60>
      84:	e1a07002 	mov	r7, r2
      88:	e1a0c002 	mov	r12, r2
      8c:	e8be000c 	ldm	lr!, {r2, r3}
      90:	e8ac000c 	stmia	r12!, {r2, r3}
      94:	e067300c 	rsb	r3, r7, r12
      98:	e1540003 	cmp	r4, r3
      9c:	e1a0200c 	mov	r2, r12
      a0:	1afffff9 	bne	8c <__cs3_start_c+0x48>
      a4:	e515e004 	ldr	lr, [r5, #-4]
      a8:	e35e0000 	cmp	lr, #0
      ac:	11a03002 	movne	r3, r2
      b0:	0a000003 	beq	c4 <__cs3_start_c+0x80>
      b4:	e8a30003 	stmia	r3!, {r0, r1}
      b8:	e062c003 	rsb	r12, r2, r3
      bc:	e15e000c 	cmp	lr, r12
      c0:	1afffffb 	bne	b4 <__cs3_start_c+0x70>
      c4:	e2466001 	sub	r6, r6, #1
      c8:	e3760001 	cmn	r6, #1
      cc:	e2855014 	add	r5, r5, #20
      d0:	1affffe3 	bne	64 <__cs3_start_c+0x20>
      d4:	eb0017ab 	bl	5f88 <__cs3_premain>
      d8:	00000001 	.word	0x00000001
      dc:	0000e548 	.word	0x0000e548

000000e0 <__cs3_start_asm_sim>:
      e0:	e28f103c 	add	r1, pc, #60	; 0x3c
      e4:	e3a00016 	mov	r0, #22
      e8:	ef123456 	svc	0x00123456
      ec:	e3500000 	cmp	r0, #0
      f0:	ba000008 	blt	118 <__cs3_start_asm_sim+0x38>
      f4:	e59f2028 	ldr	r2, [pc, #40]	; 124 <__cs3_heap_start_ptr>
      f8:	e59fd01c 	ldr	sp, [pc, #28]	; 11c <__cs3_start_asm_sim+0x3c>
      fc:	e5920008 	ldr	r0, [r2, #8]
     100:	e3500000 	cmp	r0, #0
     104:	11a0d000 	movne	sp, r0
     108:	e59f1010 	ldr	r1, [pc, #16]	; 120 <__cs3_start_asm_sim+0x40>
     10c:	e5920004 	ldr	r0, [r2, #4]
     110:	e3500000 	cmp	r0, #0
     114:	15810000 	strne	r0, [r1]
     118:	eaffffc9 	b	44 <__cs3_start_c>
     11c:	3ffffff8 	.word	0x3ffffff8
     120:	0000ee10 	.word	0x0000ee10

00000124 <__cs3_heap_start_ptr>:
     124:	00044098 	.word	0x00044098

00000128 <_start>:
     128:	e51fd000 	ldr	sp, [pc, #-0]	; 130 <_start+0x8>
     12c:	eaffffc4 	b	44 <__cs3_start_c>
     130:	3ffffff8 	.word	0x3ffffff8

00000134 <deregister_tm_clones>:
     134:	e92d4008 	push	{r3, lr}
     138:	e59f002c 	ldr	r0, [pc, #44]	; 16c <deregister_tm_clones+0x38>
     13c:	e59f302c 	ldr	r3, [pc, #44]	; 170 <deregister_tm_clones+0x3c>
     140:	e0603003 	rsb	r3, r0, r3
     144:	e3530006 	cmp	r3, #6
     148:	8a000001 	bhi	154 <deregister_tm_clones+0x20>
     14c:	e8bd4008 	pop	{r3, lr}
     150:	e12fff1e 	bx	lr
     154:	e59f3018 	ldr	r3, [pc, #24]	; 174 <deregister_tm_clones+0x40>
     158:	e3530000 	cmp	r3, #0
     15c:	0afffffa 	beq	14c <deregister_tm_clones+0x18>
     160:	e1a0e00f 	mov	lr, pc
     164:	e12fff13 	bx	r3
     168:	eafffff7 	b	14c <deregister_tm_clones+0x18>
     16c:	0000ee18 	.word	0x0000ee18
     170:	0000ee1b 	.word	0x0000ee1b
     174:	00000000 	.word	0x00000000

00000178 <register_tm_clones>:
     178:	e92d4008 	push	{r3, lr}
     17c:	e59f0034 	ldr	r0, [pc, #52]	; 1b8 <register_tm_clones+0x40>
     180:	e59f3034 	ldr	r3, [pc, #52]	; 1bc <register_tm_clones+0x44>
     184:	e0603003 	rsb	r3, r0, r3
     188:	e1a03143 	asr	r3, r3, #2
     18c:	e0833fa3 	add	r3, r3, r3, lsr #31
     190:	e1b010c3 	asrs	r1, r3, #1
     194:	1a000001 	bne	1a0 <register_tm_clones+0x28>
     198:	e8bd4008 	pop	{r3, lr}
     19c:	e12fff1e 	bx	lr
     1a0:	e59f2018 	ldr	r2, [pc, #24]	; 1c0 <register_tm_clones+0x48>
     1a4:	e3520000 	cmp	r2, #0
     1a8:	0afffffa 	beq	198 <register_tm_clones+0x20>
     1ac:	e1a0e00f 	mov	lr, pc
     1b0:	e12fff12 	bx	r2
     1b4:	eafffff7 	b	198 <register_tm_clones+0x20>
     1b8:	0000ee18 	.word	0x0000ee18
     1bc:	0000ee18 	.word	0x0000ee18
     1c0:	00000000 	.word	0x00000000

000001c4 <__do_global_dtors_aux>:
     1c4:	e92d4010 	push	{r4, lr}
     1c8:	e59f402c 	ldr	r4, [pc, #44]	; 1fc <__do_global_dtors_aux+0x38>
     1cc:	e5d43000 	ldrb	r3, [r4]
     1d0:	e3530000 	cmp	r3, #0
     1d4:	1a000006 	bne	1f4 <__do_global_dtors_aux+0x30>
     1d8:	ebffffd5 	bl	134 <deregister_tm_clones>
     1dc:	e59f301c 	ldr	r3, [pc, #28]	; 200 <__do_global_dtors_aux+0x3c>
     1e0:	e3530000 	cmp	r3, #0
     1e4:	159f0018 	ldrne	r0, [pc, #24]	; 204 <__do_global_dtors_aux+0x40>
     1e8:	1320f000 	nopne	{0}
     1ec:	e3a03001 	mov	r3, #1
     1f0:	e5c43000 	strb	r3, [r4]
     1f4:	e8bd4010 	pop	{r4, lr}
     1f8:	e12fff1e 	bx	lr
     1fc:	0000ee18 	.word	0x0000ee18
     200:	00000000 	.word	0x00000000
     204:	000066e0 	.word	0x000066e0

00000208 <frame_dummy>:
     208:	e92d4008 	push	{r3, lr}
     20c:	e59f3034 	ldr	r3, [pc, #52]	; 248 <frame_dummy+0x40>
     210:	e3530000 	cmp	r3, #0
     214:	159f0030 	ldrne	r0, [pc, #48]	; 24c <frame_dummy+0x44>
     218:	159f1030 	ldrne	r1, [pc, #48]	; 250 <frame_dummy+0x48>
     21c:	1320f000 	nopne	{0}
     220:	e59f002c 	ldr	r0, [pc, #44]	; 254 <frame_dummy+0x4c>
     224:	e5903000 	ldr	r3, [r0]
     228:	e3530000 	cmp	r3, #0
     22c:	0a000003 	beq	240 <frame_dummy+0x38>
     230:	e59f3020 	ldr	r3, [pc, #32]	; 258 <frame_dummy+0x50>
     234:	e3530000 	cmp	r3, #0
     238:	11a0e00f 	movne	lr, pc
     23c:	112fff13 	bxne	r3
     240:	e8bd4008 	pop	{r3, lr}
     244:	eaffffcb 	b	178 <register_tm_clones>
     248:	00000000 	.word	0x00000000
     24c:	000066e0 	.word	0x000066e0
     250:	0000ee1c 	.word	0x0000ee1c
     254:	0000e548 	.word	0x0000e548
     258:	00000000 	.word	0x00000000

0000025c <lowpass>:
#endif

int lowpass(int input)
{
    static int last_sample = 0;
    signed int retvalue = (input + (last_sample * 7)) >> 3;
     25c:	e30e3e34 	movw	r3, #60980	; 0xee34
     260:	e3403000 	movt	r3, #0
     264:	e5932000 	ldr	r2, [r3]
     268:	e0622182 	rsb	r2, r2, r2, lsl #3
     26c:	e0820000 	add	r0, r2, r0
     270:	e1a001c0 	asr	r0, r0, #3
    last_sample = retvalue;
     274:	e5830000 	str	r0, [r3]
    return retvalue;
}
     278:	e12fff1e 	bx	lr

0000027c <config_audio_demo>:
static volatile int right_loop_buffer[SAMPLE_RATE*3] = {0};
static volatile int length_of_recording;


void config_audio_demo(void)
{
     27c:	e92d4010 	push	{r4, lr}
    volatile int* KEY_ptr = (int*)KEY_BASE;

    volatile int* hex30_ptr = (int*)HEX3_HEX0_BASE;
    volatile int* hex54_ptr = (int*)HEX5_HEX4_BASE;
    
    config_interrupt(CPU0, KEYS_IRQ, 0);
     280:	e3a00001 	mov	r0, #1
     284:	e3a01049 	mov	r1, #73	; 0x49
     288:	e3a02000 	mov	r2, #0
    config_interrupt(CPU0, AUDIO_IRQ, 0);

    // enable audio interrupts
    *audio_ptr = 0x3;
     28c:	e3a04003 	mov	r4, #3
    volatile int* KEY_ptr = (int*)KEY_BASE;

    volatile int* hex30_ptr = (int*)HEX3_HEX0_BASE;
    volatile int* hex54_ptr = (int*)HEX5_HEX4_BASE;
    
    config_interrupt(CPU0, KEYS_IRQ, 0);
     290:	eb0001a2 	bl	920 <config_interrupt>
    config_interrupt(CPU0, AUDIO_IRQ, 0);
     294:	e3a00001 	mov	r0, #1
     298:	e3a0104e 	mov	r1, #78	; 0x4e
     29c:	e3a02000 	mov	r2, #0
     2a0:	eb00019e 	bl	920 <config_interrupt>

    // enable audio interrupts
    *audio_ptr = 0x3;
     2a4:	e303cfff 	movw	r12, #16383	; 0x3fff
    // enable all KEY interrupts
    *(KEY_ptr + 2) = 0xF;
     2a8:	e3a01000 	mov	r1, #0
    
    config_interrupt(CPU0, KEYS_IRQ, 0);
    config_interrupt(CPU0, AUDIO_IRQ, 0);

    // enable audio interrupts
    *audio_ptr = 0x3;
     2ac:	e34fcf20 	movt	r12, #65312	; 0xff20
    // enable all KEY interrupts
    *(KEY_ptr + 2) = 0xF;

    iaudiobuf = 0;
     2b0:	e30e3e34 	movw	r3, #60980	; 0xee34
    
    config_interrupt(CPU0, KEYS_IRQ, 0);
    config_interrupt(CPU0, AUDIO_IRQ, 0);

    // enable audio interrupts
    *audio_ptr = 0x3;
     2b4:	e50c4fbf 	str	r4, [r12, #-4031]	; 0xfffff041
    // enable all KEY interrupts
    *(KEY_ptr + 2) = 0xF;

    iaudiobuf = 0;
     2b8:	e3403000 	movt	r3, #0
     2bc:	e1a02001 	mov	r2, r1
    idelaybuf = 0;
    iloopbuf = 0;
    freq_mult = 1;
     2c0:	e3a00001 	mov	r0, #1
    config_interrupt(CPU0, AUDIO_IRQ, 0);

    // enable audio interrupts
    *audio_ptr = 0x3;
    // enable all KEY interrupts
    *(KEY_ptr + 2) = 0xF;
     2c4:	e34f1f20 	movt	r1, #65312	; 0xff20
     2c8:	e3a0c00f 	mov	r12, #15
     2cc:	e581c058 	str	r12, [r1, #88]	; 0x58

    iaudiobuf = 0;
     2d0:	e5832004 	str	r2, [r3, #4]
    idelaybuf = 0;
     2d4:	e5832008 	str	r2, [r3, #8]
    iloopbuf = 0;
     2d8:	e583200c 	str	r2, [r3, #12]
    freq_mult = 1;
     2dc:	e5830010 	str	r0, [r3, #16]
    lut_counter = 0;
     2e0:	e5832014 	str	r2, [r3, #20]
    effect = EFF_DEFAULT;
     2e4:	e5830018 	str	r0, [r3, #24]

    // dEF
    *hex54_ptr = 0x00005E79;
     2e8:	e3050e79 	movw	r0, #24185	; 0x5e79
     2ec:	e5810030 	str	r0, [r1, #48]	; 0x30
    *hex30_ptr = 0x71000000;
     2f0:	e3a00471 	mov	r0, #1895825408	; 0x71000000
     2f4:	e5810020 	str	r0, [r1, #32]

    loop_var = 0;
     2f8:	e583201c 	str	r2, [r3, #28]
    length_of_recording = 0;
     2fc:	e5832020 	str	r2, [r3, #32]
     300:	e8bd8010 	pop	{r4, pc}

00000304 <keys_ISR>:
{
    volatile int* key_ptr = (int*)KEY_BASE;
    volatile int* hex30_ptr = (int*)HEX3_HEX0_BASE;
    volatile int* hex54_ptr = (int*)HEX5_HEX4_BASE;

    int press = *(key_ptr + 3);
     304:	e3a02000 	mov	r2, #0
     308:	e34f2f20 	movt	r2, #65312	; 0xff20
     30c:	e592105c 	ldr	r1, [r2, #92]	; 0x5c
    *(key_ptr + 3) = press;

    if ((press & 0x1) && effect != EFF_DEFAULT)
     310:	e3110001 	tst	r1, #1
    volatile int* key_ptr = (int*)KEY_BASE;
    volatile int* hex30_ptr = (int*)HEX3_HEX0_BASE;
    volatile int* hex54_ptr = (int*)HEX5_HEX4_BASE;

    int press = *(key_ptr + 3);
    *(key_ptr + 3) = press;
     314:	e582105c 	str	r1, [r2, #92]	; 0x5c

    if ((press & 0x1) && effect != EFF_DEFAULT)
     318:	0a00001d 	beq	394 <keys_ISR+0x90>
     31c:	e30e3e34 	movw	r3, #60980	; 0xee34
     320:	e3403000 	movt	r3, #0
     324:	e5930018 	ldr	r0, [r3, #24]
     328:	e3500001 	cmp	r0, #1
     32c:	0a000018 	beq	394 <keys_ISR+0x90>
    {
        const int max_freq_mult = effect == EFF_PITCH ?
     330:	e5930018 	ldr	r0, [r3, #24]
            PITCH_MAX_FREQ_MULT : TREMELO_MAX_FREQ_MULT;

        if (freq_mult < max_freq_mult)
     334:	e5931010 	ldr	r1, [r3, #16]
    *(key_ptr + 3) = press;

    if ((press & 0x1) && effect != EFF_DEFAULT)
    {
        const int max_freq_mult = effect == EFF_PITCH ?
            PITCH_MAX_FREQ_MULT : TREMELO_MAX_FREQ_MULT;
     338:	e3500002 	cmp	r0, #2
     33c:	13a00005 	movne	r0, #5
     340:	03a00003 	moveq	r0, #3

        if (freq_mult < max_freq_mult)
     344:	e1500001 	cmp	r0, r1
     348:	da00000a 	ble	378 <keys_ISR+0x74>
        {
            *hex30_ptr &= 0xFFFF0000; // clear 
     34c:	e5921020 	ldr	r1, [r2, #32]
     350:	e1a01821 	lsr	r1, r1, #16
     354:	e1a01801 	lsl	r1, r1, #16
     358:	e5821020 	str	r1, [r2, #32]
            *hex30_ptr |= 0x00007606; // HI
     35c:	e5921020 	ldr	r1, [r2, #32]
     360:	e3811c76 	orr	r1, r1, #30208	; 0x7600
     364:	e3811006 	orr	r1, r1, #6
     368:	e5821020 	str	r1, [r2, #32]
            ++freq_mult;
     36c:	e5932010 	ldr	r2, [r3, #16]
     370:	e2822001 	add	r2, r2, #1
     374:	e5832010 	str	r2, [r3, #16]
        }
        if(effect == EFF_LOOP){
     378:	e5932018 	ldr	r2, [r3, #24]
     37c:	e30e3e34 	movw	r3, #60980	; 0xee34
     380:	e3403000 	movt	r3, #0
     384:	e3520010 	cmp	r2, #16
            loop_var = 1;
     388:	03a02001 	moveq	r2, #1
     38c:	0583201c 	streq	r2, [r3, #28]
     390:	e12fff1e 	bx	lr
        }
    }
    else if ((press & 0x2) && effect != EFF_DEFAULT)
     394:	e3110002 	tst	r1, #2
     398:	0a000016 	beq	3f8 <keys_ISR+0xf4>
     39c:	e30e3e34 	movw	r3, #60980	; 0xee34
     3a0:	e3403000 	movt	r3, #0
     3a4:	e5932018 	ldr	r2, [r3, #24]
     3a8:	e3520001 	cmp	r2, #1
     3ac:	0a000011 	beq	3f8 <keys_ISR+0xf4>
    {
        *hex30_ptr &= 0xFFFF0000; // clear 
     3b0:	e3a02000 	mov	r2, #0
     3b4:	e34f2f20 	movt	r2, #65312	; 0xff20
     3b8:	e5921020 	ldr	r1, [r2, #32]
     3bc:	e1a01821 	lsr	r1, r1, #16
     3c0:	e1a01801 	lsl	r1, r1, #16
     3c4:	e5821020 	str	r1, [r2, #32]
        *hex30_ptr |= 0x0000383F; // LO
     3c8:	e5921020 	ldr	r1, [r2, #32]
     3cc:	e3811b0e 	orr	r1, r1, #14336	; 0x3800
     3d0:	e381103f 	orr	r1, r1, #63	; 0x3f
     3d4:	e5821020 	str	r1, [r2, #32]
        --freq_mult;
     3d8:	e5932010 	ldr	r2, [r3, #16]
     3dc:	e2422001 	sub	r2, r2, #1
     3e0:	e5832010 	str	r2, [r3, #16]

        if(effect == EFF_LOOP){
     3e4:	e5932018 	ldr	r2, [r3, #24]
     3e8:	e3520010 	cmp	r2, #16
            loop_var = 2;
     3ec:	03a02002 	moveq	r2, #2
     3f0:	0583201c 	streq	r2, [r3, #28]
     3f4:	e12fff1e 	bx	lr
        }
    }
    else if (press & 0x4) {
     3f8:	e3110004 	tst	r1, #4
     3fc:	112fff1e 	bxne	lr
      

    }
    else{
        if (effect == EFF_LOOP)
     400:	e30e3e34 	movw	r3, #60980	; 0xee34
            effect = EFF_DEFAULT;
        else effect <<= 1;

        freq_mult = 1;
     404:	e3a01001 	mov	r1, #1
    else if (press & 0x4) {
      

    }
    else{
        if (effect == EFF_LOOP)
     408:	e3403000 	movt	r3, #0
     40c:	e5932018 	ldr	r2, [r3, #24]
     410:	e3520010 	cmp	r2, #16
            effect = EFF_DEFAULT;
        else effect <<= 1;
     414:	15932018 	ldrne	r2, [r3, #24]
      

    }
    else{
        if (effect == EFF_LOOP)
            effect = EFF_DEFAULT;
     418:	03a02001 	moveq	r2, #1
        else effect <<= 1;
     41c:	11a02082 	lslne	r2, r2, #1
     420:	e5832018 	str	r2, [r3, #24]

        freq_mult = 1;
        lut_counter = 0;
     424:	e3a02000 	mov	r2, #0
    else{
        if (effect == EFF_LOOP)
            effect = EFF_DEFAULT;
        else effect <<= 1;

        freq_mult = 1;
     428:	e5831010 	str	r1, [r3, #16]
        lut_counter = 0;
     42c:	e5832014 	str	r2, [r3, #20]
        loop_var = 0;
     430:	e583201c 	str	r2, [r3, #28]

        switch (effect)
     434:	e5933018 	ldr	r3, [r3, #24]
     438:	e2433001 	sub	r3, r3, #1
     43c:	e353000f 	cmp	r3, #15
     440:	979ff103 	ldrls	pc, [pc, r3, lsl #2]
     444:	ea000016 	b	4a4 <keys_ISR+0x1a0>
     448:	000004a8 	.word	0x000004a8
     44c:	000004c4 	.word	0x000004c4
     450:	000004a4 	.word	0x000004a4
     454:	000004e0 	.word	0x000004e0
     458:	000004a4 	.word	0x000004a4
     45c:	000004a4 	.word	0x000004a4
     460:	000004a4 	.word	0x000004a4
     464:	000004fc 	.word	0x000004fc
     468:	000004a4 	.word	0x000004a4
     46c:	000004a4 	.word	0x000004a4
     470:	000004a4 	.word	0x000004a4
     474:	000004a4 	.word	0x000004a4
     478:	000004a4 	.word	0x000004a4
     47c:	000004a4 	.word	0x000004a4
     480:	000004a4 	.word	0x000004a4
     484:	00000488 	.word	0x00000488
            *hex54_ptr = 0x00007939;
            *hex30_ptr = 0x763F0000;
            break;

        case EFF_LOOP: // LOOP
            *hex54_ptr = 0x0000383F;
     488:	e3a03000 	mov	r3, #0
     48c:	e303183f 	movw	r1, #14399	; 0x383f
            *hex30_ptr = 0x3F730000;
     490:	e1a02003 	mov	r2, r3
            *hex54_ptr = 0x00007939;
            *hex30_ptr = 0x763F0000;
            break;

        case EFF_LOOP: // LOOP
            *hex54_ptr = 0x0000383F;
     494:	e34f3f20 	movt	r3, #65312	; 0xff20
            *hex30_ptr = 0x3F730000;
     498:	e3432f73 	movt	r2, #16243	; 0x3f73
            *hex54_ptr = 0x00007939;
            *hex30_ptr = 0x763F0000;
            break;

        case EFF_LOOP: // LOOP
            *hex54_ptr = 0x0000383F;
     49c:	e5831030 	str	r1, [r3, #48]	; 0x30
            *hex30_ptr = 0x3F730000;
     4a0:	e5832020 	str	r2, [r3, #32]
     4a4:	e12fff1e 	bx	lr
        loop_var = 0;

        switch (effect)
        {
        case EFF_DEFAULT: // dEF
            *hex54_ptr = 0x00005E79;
     4a8:	e3a03000 	mov	r3, #0
     4ac:	e3052e79 	movw	r2, #24185	; 0x5e79
     4b0:	e34f3f20 	movt	r3, #65312	; 0xff20
     4b4:	e5832030 	str	r2, [r3, #48]	; 0x30
            *hex30_ptr = 0x71000000;
     4b8:	e3a02471 	mov	r2, #1895825408	; 0x71000000
     4bc:	e5832020 	str	r2, [r3, #32]
            break;
     4c0:	e12fff1e 	bx	lr

        case EFF_PITCH: // PCH
            *hex54_ptr = 0x00007339;
     4c4:	e3a03000 	mov	r3, #0
     4c8:	e3072339 	movw	r2, #29497	; 0x7339
     4cc:	e34f3f20 	movt	r3, #65312	; 0xff20
     4d0:	e5832030 	str	r2, [r3, #48]	; 0x30
            *hex30_ptr = 0x76000000;
     4d4:	e3a02476 	mov	r2, #1979711488	; 0x76000000
     4d8:	e5832020 	str	r2, [r3, #32]
            break;
     4dc:	e12fff1e 	bx	lr

        case EFF_TREMELO: // trE
            *hex54_ptr = 0x00007850;
     4e0:	e3a03000 	mov	r3, #0
     4e4:	e3072850 	movw	r2, #30800	; 0x7850
     4e8:	e34f3f20 	movt	r3, #65312	; 0xff20
     4ec:	e5832030 	str	r2, [r3, #48]	; 0x30
            *hex30_ptr = 0x79000000;
     4f0:	e3a02479 	mov	r2, #2030043136	; 0x79000000
     4f4:	e5832020 	str	r2, [r3, #32]
            break;
     4f8:	e12fff1e 	bx	lr

        case EFF_DELAY: // ECHO
            *hex54_ptr = 0x00007939;
     4fc:	e3a03000 	mov	r3, #0
     500:	e3071939 	movw	r1, #31033	; 0x7939
            *hex30_ptr = 0x763F0000;
     504:	e1a02003 	mov	r2, r3
            *hex54_ptr = 0x00007850;
            *hex30_ptr = 0x79000000;
            break;

        case EFF_DELAY: // ECHO
            *hex54_ptr = 0x00007939;
     508:	e34f3f20 	movt	r3, #65312	; 0xff20
            *hex30_ptr = 0x763F0000;
     50c:	e347263f 	movt	r2, #30271	; 0x763f
            *hex54_ptr = 0x00007850;
            *hex30_ptr = 0x79000000;
            break;

        case EFF_DELAY: // ECHO
            *hex54_ptr = 0x00007939;
     510:	e5831030 	str	r1, [r3, #48]	; 0x30
            *hex30_ptr = 0x763F0000;
     514:	e5832020 	str	r2, [r3, #32]
            break;
     518:	e12fff1e 	bx	lr

0000051c <audio_ISR>:
    }
}


void audio_ISR(void)
{
     51c:	e92d0ff0 	push	{r4, r5, r6, r7, r8, r9, r10, r11}
	volatile int* audio_ptr = (int *)AUDIO_BASE;

	int fifospace;

	if (*(audio_ptr) & 0x100) // check read interrupt
     520:	e3034fff 	movw	r4, #16383	; 0x3fff
     524:	e34f4f20 	movt	r4, #65312	; 0xff20
     528:	e5143fbf 	ldr	r3, [r4, #-4031]	; 0xfffff041
     52c:	e3130c01 	tst	r3, #256	; 0x100
     530:	0a00004a 	beq	660 <audio_ISR+0x144>
	{  
		fifospace = *(audio_ptr + 1);
     534:	e5143fbb 	ldr	r3, [r4, #-4027]	; 0xfffff045

		// read until buffer is full or audio-in FIFO is empty
        while ((fifospace & 0x000000FF) && (iaudiobuf < AUDIO_BUF_SIZE))
     538:	e31300ff 	tst	r3, #255	; 0xff
     53c:	0a000047 	beq	660 <audio_ISR+0x144>
     540:	e30ece34 	movw	r12, #60980	; 0xee34
     544:	e30051ff 	movw	r5, #511	; 0x1ff
     548:	e340c000 	movt	r12, #0
     54c:	e59c3004 	ldr	r3, [r12, #4]
     550:	e1530005 	cmp	r3, r5
     554:	ca000041 	bgt	660 <audio_ISR+0x144>

            case EFF_DELAY:
                if (idelaybuf == DELAY_BUF_SIZE)
                    idelaybuf = 0;

                left_buffer[iaudiobuf] = (left >> 1) + (left_delay_buffer[idelaybuf] >> 1);
     558:	e3008e2c 	movw	r8, #3628	; 0xe2c
                right_buffer[iaudiobuf] = (right >> 1) + (right_delay_buffer[idelaybuf] >> 1);
     55c:	e3027e24 	movw	r7, #11812	; 0x2e24
                ++idelaybuf;
                ++iaudiobuf;
                break;

            case EFF_TREMELO:
                left_buffer[iaudiobuf] = mul_int_fixedpt(left, sin_LUT[lut_counter]);
     560:	e30666ec 	movw	r6, #26348	; 0x66ec
                    iloopbuf = 0;
                
                if(loop_var == 1){
                    length_of_recording = 0;

                    left_loop_buffer[iloopbuf] = left;
     564:	e304be1c 	movw	r11, #19996	; 0x4e1c
                right_buffer[iaudiobuf] = right;
                ++iaudiobuf;
                break;

            case EFF_DELAY:
                if (idelaybuf == DELAY_BUF_SIZE)
     568:	e1a0a00c 	mov	r10, r12
     56c:	e3009a6a 	movw	r9, #2666	; 0xa6a
                    idelaybuf = 0;

                left_buffer[iaudiobuf] = (left >> 1) + (left_delay_buffer[idelaybuf] >> 1);
     570:	e3408001 	movt	r8, #1
                right_buffer[iaudiobuf] = (right >> 1) + (right_delay_buffer[idelaybuf] >> 1);
     574:	e3407001 	movt	r7, #1
                ++idelaybuf;
                ++iaudiobuf;
                break;

            case EFF_TREMELO:
                left_buffer[iaudiobuf] = mul_int_fixedpt(left, sin_LUT[lut_counter]);
     578:	e3406000 	movt	r6, #0
                    iloopbuf = 0;
                
                if(loop_var == 1){
                    length_of_recording = 0;

                    left_loop_buffer[iloopbuf] = left;
     57c:	e340b001 	movt	r11, #1
		fifospace = *(audio_ptr + 1);

		// read until buffer is full or audio-in FIFO is empty
        while ((fifospace & 0x000000FF) && (iaudiobuf < AUDIO_BUF_SIZE))
        {
            int left = *(audio_ptr + 2);
     580:	e5141fb7 	ldr	r1, [r4, #-4023]	; 0xfffff049
            int right = *(audio_ptr + 3);
     584:	e5142fb3 	ldr	r2, [r4, #-4019]	; 0xfffff04d

            switch (effect)
     588:	e59c3018 	ldr	r3, [r12, #24]
     58c:	e2433001 	sub	r3, r3, #1
     590:	e353000f 	cmp	r3, #15
     594:	979ff103 	ldrls	pc, [pc, r3, lsl #2]
     598:	ea00002a 	b	648 <audio_ISR+0x12c>
     59c:	0000086c 	.word	0x0000086c
     5a0:	0000086c 	.word	0x0000086c
     5a4:	00000648 	.word	0x00000648
     5a8:	000007f8 	.word	0x000007f8
     5ac:	00000648 	.word	0x00000648
     5b0:	00000648 	.word	0x00000648
     5b4:	00000648 	.word	0x00000648
     5b8:	00000774 	.word	0x00000774
     5bc:	00000648 	.word	0x00000648
     5c0:	00000648 	.word	0x00000648
     5c4:	00000648 	.word	0x00000648
     5c8:	00000648 	.word	0x00000648
     5cc:	00000648 	.word	0x00000648
     5d0:	00000648 	.word	0x00000648
     5d4:	00000648 	.word	0x00000648
     5d8:	000005dc 	.word	0x000005dc

                ++iaudiobuf;
                break;

            case EFF_LOOP:
                left_buffer[iaudiobuf] = left;
     5dc:	e59c3004 	ldr	r3, [r12, #4]
     5e0:	e08c3103 	add	r3, r12, r3, lsl #2
     5e4:	e5831024 	str	r1, [r3, #36]	; 0x24
                right_buffer[iaudiobuf] = right;
     5e8:	e59c3004 	ldr	r3, [r12, #4]
     5ec:	e08c3103 	add	r3, r12, r3, lsl #2
     5f0:	e5832824 	str	r2, [r3, #2084]	; 0x824

                ++iaudiobuf;
     5f4:	e59c3004 	ldr	r3, [r12, #4]
     5f8:	e2833001 	add	r3, r3, #1
     5fc:	e58c3004 	str	r3, [r12, #4]

                if (iloopbuf == DELAY_BUF_SIZE)
     600:	e59c300c 	ldr	r3, [r12, #12]
     604:	e1530009 	cmp	r3, r9
                    iloopbuf = 0;
     608:	03a03000 	moveq	r3, #0
     60c:	058a300c 	streq	r3, [r10, #12]
                
                if(loop_var == 1){
     610:	e59c301c 	ldr	r3, [r12, #28]
     614:	e3530001 	cmp	r3, #1
     618:	1a00000a 	bne	648 <audio_ISR+0x12c>
                    length_of_recording = 0;
     61c:	e3a03000 	mov	r3, #0
     620:	e58a3020 	str	r3, [r10, #32]

                    left_loop_buffer[iloopbuf] = left;
     624:	e59a300c 	ldr	r3, [r10, #12]
     628:	e08b3103 	add	r3, r11, r3, lsl #2
     62c:	e583138c 	str	r1, [r3, #908]	; 0x38c
                    left_loop_buffer[iloopbuf] = right;
     630:	e59a300c 	ldr	r3, [r10, #12]
     634:	e08b3103 	add	r3, r11, r3, lsl #2
     638:	e583238c 	str	r2, [r3, #908]	; 0x38c
                    ++iloopbuf;
     63c:	e59a300c 	ldr	r3, [r10, #12]
     640:	e2833001 	add	r3, r3, #1
     644:	e58a300c 	str	r3, [r10, #12]
                
                
                break;
            }

            fifospace = *(audio_ptr + 1);
     648:	e5143fbb 	ldr	r3, [r4, #-4027]	; 0xfffff045
	if (*(audio_ptr) & 0x100) // check read interrupt
	{  
		fifospace = *(audio_ptr + 1);

		// read until buffer is full or audio-in FIFO is empty
        while ((fifospace & 0x000000FF) && (iaudiobuf < AUDIO_BUF_SIZE))
     64c:	e31300ff 	tst	r3, #255	; 0xff
     650:	0a000002 	beq	660 <audio_ISR+0x144>
     654:	e59c3004 	ldr	r3, [r12, #4]
     658:	e1530005 	cmp	r3, r5
     65c:	daffffc7 	ble	580 <audio_ISR+0x64>
            }

            fifospace = *(audio_ptr + 1);
        }
    }
	if (*(audio_ptr) & 0x200) // check write interrupt
     660:	e3032fff 	movw	r2, #16383	; 0x3fff
     664:	e34f2f20 	movt	r2, #65312	; 0xff20
     668:	e5123fbf 	ldr	r3, [r2, #-4031]	; 0xfffff041
     66c:	e3130c02 	tst	r3, #512	; 0x200
     670:	0a00003d 	beq	76c <audio_ISR+0x250>
	{
		fifospace = *(audio_ptr + 1);
     674:	e5123fbb 	ldr	r3, [r2, #-4027]	; 0xfffff045
		// write until buffer is empty or audio-out FIFO is full
		while ((fifospace & 0x00FF0000) && (iaudiobuf > 0))
     678:	e31308ff 	tst	r3, #16711680	; 0xff0000
     67c:	0a00003a 	beq	76c <audio_ISR+0x250>
     680:	e30ece34 	movw	r12, #60980	; 0xee34
     684:	e340c000 	movt	r12, #0
     688:	e59c3004 	ldr	r3, [r12, #4]
     68c:	e3530000 	cmp	r3, #0
     690:	da000035 	ble	76c <audio_ISR+0x250>
                }
                
                if(iloopbuf == 0){
                    iloopbuf = length_of_recording;
                }
                *(audio_ptr + 2) = left_loop_buffer[iloopbuf];
     694:	e3044e1c 	movw	r4, #19996	; 0x4e1c
                *(audio_ptr + 3) = right_loop_buffer[iloopbuf];
     698:	e30c0dbc 	movw	r0, #52668	; 0xcdbc
	{
		fifospace = *(audio_ptr + 1);
		// write until buffer is empty or audio-out FIFO is full
		while ((fifospace & 0x00FF0000) && (iaudiobuf > 0))
		{
            if(loop_var == 2){
     69c:	e1a0300c 	mov	r3, r12
                }
                
                if(iloopbuf == 0){
                    iloopbuf = length_of_recording;
                }
                *(audio_ptr + 2) = left_loop_buffer[iloopbuf];
     6a0:	e3404001 	movt	r4, #1
                *(audio_ptr + 3) = right_loop_buffer[iloopbuf];
     6a4:	e3400002 	movt	r0, #2
     6a8:	ea000015 	b	704 <audio_ISR+0x1e8>
                --iloopbuf;
                //--iaudiobuf;
            }
            else{
                *(audio_ptr + 2) = left_buffer[iaudiobuf];
     6ac:	e5931004 	ldr	r1, [r3, #4]
     6b0:	e0831101 	add	r1, r3, r1, lsl #2
     6b4:	e5911024 	ldr	r1, [r1, #36]	; 0x24
     6b8:	e5021fb7 	str	r1, [r2, #-4023]	; 0xfffff049
                *(audio_ptr + 3) = right_buffer[iaudiobuf];
     6bc:	e5931004 	ldr	r1, [r3, #4]
     6c0:	e0831101 	add	r1, r3, r1, lsl #2
     6c4:	e5911824 	ldr	r1, [r1, #2084]	; 0x824
     6c8:	e5021fb3 	str	r1, [r2, #-4019]	; 0xfffff04d

                if (effect == EFF_PITCH)
     6cc:	e5931018 	ldr	r1, [r3, #24]
     6d0:	e3510002 	cmp	r1, #2
                    iaudiobuf -= freq_mult;
     6d4:	05935004 	ldreq	r5, [r3, #4]
                else --iaudiobuf;
     6d8:	15931004 	ldrne	r1, [r3, #4]
            else{
                *(audio_ptr + 2) = left_buffer[iaudiobuf];
                *(audio_ptr + 3) = right_buffer[iaudiobuf];

                if (effect == EFF_PITCH)
                    iaudiobuf -= freq_mult;
     6dc:	05931010 	ldreq	r1, [r3, #16]
                else --iaudiobuf;
     6e0:	12411001 	subne	r1, r1, #1
            else{
                *(audio_ptr + 2) = left_buffer[iaudiobuf];
                *(audio_ptr + 3) = right_buffer[iaudiobuf];

                if (effect == EFF_PITCH)
                    iaudiobuf -= freq_mult;
     6e4:	00611005 	rsbeq	r1, r1, r5
                else --iaudiobuf;
     6e8:	e5831004 	str	r1, [r3, #4]
            }
            

			fifospace = *(audio_ptr + 1);
     6ec:	e5121fbb 	ldr	r1, [r2, #-4027]	; 0xfffff045
    }
	if (*(audio_ptr) & 0x200) // check write interrupt
	{
		fifospace = *(audio_ptr + 1);
		// write until buffer is empty or audio-out FIFO is full
		while ((fifospace & 0x00FF0000) && (iaudiobuf > 0))
     6f0:	e31108ff 	tst	r1, #16711680	; 0xff0000
     6f4:	0a00001c 	beq	76c <audio_ISR+0x250>
     6f8:	e59c1004 	ldr	r1, [r12, #4]
     6fc:	e3510000 	cmp	r1, #0
     700:	da000019 	ble	76c <audio_ISR+0x250>
		{
            if(loop_var == 2){
     704:	e59c101c 	ldr	r1, [r12, #28]
     708:	e3510002 	cmp	r1, #2
     70c:	1affffe6 	bne	6ac <audio_ISR+0x190>

                if(iloopbuf > length_of_recording){
     710:	e593500c 	ldr	r5, [r3, #12]
     714:	e5931020 	ldr	r1, [r3, #32]
     718:	e1550001 	cmp	r5, r1
                    length_of_recording = iloopbuf;
     71c:	c593100c 	ldrgt	r1, [r3, #12]
     720:	c5831020 	strgt	r1, [r3, #32]
                }
                
                if(iloopbuf == 0){
     724:	e59c100c 	ldr	r1, [r12, #12]
     728:	e3510000 	cmp	r1, #0
                    iloopbuf = length_of_recording;
     72c:	05931020 	ldreq	r1, [r3, #32]
     730:	0583100c 	streq	r1, [r3, #12]
                }
                *(audio_ptr + 2) = left_loop_buffer[iloopbuf];
     734:	e59c100c 	ldr	r1, [r12, #12]
     738:	e0841101 	add	r1, r4, r1, lsl #2
     73c:	e591138c 	ldr	r1, [r1, #908]	; 0x38c
     740:	e5021fb7 	str	r1, [r2, #-4023]	; 0xfffff049
                *(audio_ptr + 3) = right_loop_buffer[iloopbuf];
     744:	e59c100c 	ldr	r1, [r12, #12]
     748:	e0801101 	add	r1, r0, r1, lsl #2
     74c:	e5111514 	ldr	r1, [r1, #-1300]	; 0xfffffaec
     750:	e5021fb3 	str	r1, [r2, #-4019]	; 0xfffff04d
                --iloopbuf;
     754:	e59c100c 	ldr	r1, [r12, #12]
     758:	e2411001 	sub	r1, r1, #1
     75c:	e58c100c 	str	r1, [r12, #12]
                    iaudiobuf -= freq_mult;
                else --iaudiobuf;
            }
            

			fifospace = *(audio_ptr + 1);
     760:	e5121fbb 	ldr	r1, [r2, #-4027]	; 0xfffff045
    }
	if (*(audio_ptr) & 0x200) // check write interrupt
	{
		fifospace = *(audio_ptr + 1);
		// write until buffer is empty or audio-out FIFO is full
		while ((fifospace & 0x00FF0000) && (iaudiobuf > 0))
     764:	e31108ff 	tst	r1, #16711680	; 0xff0000
     768:	1affffe2 	bne	6f8 <audio_ISR+0x1dc>
			fifospace = *(audio_ptr + 1);
		}
	}

	return;
}
     76c:	e8bd0ff0 	pop	{r4, r5, r6, r7, r8, r9, r10, r11}
     770:	e12fff1e 	bx	lr
                right_buffer[iaudiobuf] = right;
                ++iaudiobuf;
                break;

            case EFF_DELAY:
                if (idelaybuf == DELAY_BUF_SIZE)
     774:	e59c3008 	ldr	r3, [r12, #8]
     778:	e1530009 	cmp	r3, r9
                    idelaybuf = 0;
     77c:	03a03000 	moveq	r3, #0
     780:	058a3008 	streq	r3, [r10, #8]

                left_buffer[iaudiobuf] = (left >> 1) + (left_delay_buffer[idelaybuf] >> 1);
     784:	e59c3004 	ldr	r3, [r12, #4]
     788:	e59c0008 	ldr	r0, [r12, #8]
     78c:	e08c3103 	add	r3, r12, r3, lsl #2
     790:	e0880100 	add	r0, r8, r0, lsl #2
     794:	e5100fd4 	ldr	r0, [r0, #-4052]	; 0xfffff02c
     798:	e1a000c0 	asr	r0, r0, #1
     79c:	e08000c1 	add	r0, r0, r1, asr #1
     7a0:	e5830024 	str	r0, [r3, #36]	; 0x24
                right_buffer[iaudiobuf] = (right >> 1) + (right_delay_buffer[idelaybuf] >> 1);
     7a4:	e59c3004 	ldr	r3, [r12, #4]
     7a8:	e59c0008 	ldr	r0, [r12, #8]
     7ac:	e08c3103 	add	r3, r12, r3, lsl #2
     7b0:	e0870100 	add	r0, r7, r0, lsl #2
     7b4:	e5100624 	ldr	r0, [r0, #-1572]	; 0xfffff9dc
     7b8:	e1a000c0 	asr	r0, r0, #1
     7bc:	e08000c2 	add	r0, r0, r2, asr #1
     7c0:	e5830824 	str	r0, [r3, #2084]	; 0x824

                // buffer some samples for next cycle
                left_delay_buffer[idelaybuf] = left;
     7c4:	e59c3008 	ldr	r3, [r12, #8]
     7c8:	e0883103 	add	r3, r8, r3, lsl #2
     7cc:	e5031fd4 	str	r1, [r3, #-4052]	; 0xfffff02c
                right_delay_buffer[idelaybuf] = right;
     7d0:	e59c3008 	ldr	r3, [r12, #8]
     7d4:	e0873103 	add	r3, r7, r3, lsl #2
     7d8:	e5032624 	str	r2, [r3, #-1572]	; 0xfffff9dc

                ++idelaybuf;
     7dc:	e59c3008 	ldr	r3, [r12, #8]
     7e0:	e2833001 	add	r3, r3, #1
     7e4:	e58c3008 	str	r3, [r12, #8]
                ++iaudiobuf;
     7e8:	e59c3004 	ldr	r3, [r12, #4]
     7ec:	e2833001 	add	r3, r3, #1
     7f0:	e58c3004 	str	r3, [r12, #4]
                break;
     7f4:	eaffff93 	b	648 <audio_ISR+0x12c>

            case EFF_TREMELO:
                left_buffer[iaudiobuf] = mul_int_fixedpt(left, sin_LUT[lut_counter]);
     7f8:	e59c3004 	ldr	r3, [r12, #4]
     7fc:	e59c0014 	ldr	r0, [r12, #20]
     800:	e7960100 	ldr	r0, [r6, r0, lsl #2]
     804:	e08c3103 	add	r3, r12, r3, lsl #2
    return retvalue;
}

static inline int32_t mul_int_fixedpt(int32_t intv, int32_t fixedv)
{
    return (int32_t)((intv * (int64_t)fixedv) >> FIXEDPT_FRAC_BITS);
     808:	e0c10091 	smull	r0, r1, r1, r0
     80c:	e1a00f20 	lsr	r0, r0, #30
     810:	e1800101 	orr	r0, r0, r1, lsl #2
                ++idelaybuf;
                ++iaudiobuf;
                break;

            case EFF_TREMELO:
                left_buffer[iaudiobuf] = mul_int_fixedpt(left, sin_LUT[lut_counter]);
     814:	e5830024 	str	r0, [r3, #36]	; 0x24
                right_buffer[iaudiobuf] = mul_int_fixedpt(right, sin_LUT[lut_counter]);
     818:	e59c1004 	ldr	r1, [r12, #4]
     81c:	e59c3014 	ldr	r3, [r12, #20]
     820:	e7963103 	ldr	r3, [r6, r3, lsl #2]
     824:	e08c1101 	add	r1, r12, r1, lsl #2
    return retvalue;
}

static inline int32_t mul_int_fixedpt(int32_t intv, int32_t fixedv)
{
    return (int32_t)((intv * (int64_t)fixedv) >> FIXEDPT_FRAC_BITS);
     828:	e0c32392 	smull	r2, r3, r2, r3
     82c:	e1a02f22 	lsr	r2, r2, #30
     830:	e1822103 	orr	r2, r2, r3, lsl #2
                ++iaudiobuf;
                break;

            case EFF_TREMELO:
                left_buffer[iaudiobuf] = mul_int_fixedpt(left, sin_LUT[lut_counter]);
                right_buffer[iaudiobuf] = mul_int_fixedpt(right, sin_LUT[lut_counter]);
     834:	e5812824 	str	r2, [r1, #2084]	; 0x824

                lut_counter += freq_mult;
     838:	e59c2014 	ldr	r2, [r12, #20]
     83c:	e59c3010 	ldr	r3, [r12, #16]
     840:	e0823003 	add	r3, r2, r3
                if (lut_counter >= SAMPLE_RATE)
     844:	e3012f3f 	movw	r2, #7999	; 0x1f3f

            case EFF_TREMELO:
                left_buffer[iaudiobuf] = mul_int_fixedpt(left, sin_LUT[lut_counter]);
                right_buffer[iaudiobuf] = mul_int_fixedpt(right, sin_LUT[lut_counter]);

                lut_counter += freq_mult;
     848:	e58c3014 	str	r3, [r12, #20]
                if (lut_counter >= SAMPLE_RATE)
     84c:	e59c3014 	ldr	r3, [r12, #20]
     850:	e1530002 	cmp	r3, r2
                    lut_counter = 0;
     854:	c3a03000 	movgt	r3, #0
     858:	c58a3014 	strgt	r3, [r10, #20]

                ++iaudiobuf;
     85c:	e59c3004 	ldr	r3, [r12, #4]
     860:	e2833001 	add	r3, r3, #1
     864:	e58c3004 	str	r3, [r12, #4]
                break;
     868:	eaffff76 	b	648 <audio_ISR+0x12c>

            switch (effect)
            {
            case EFF_DEFAULT:
            case EFF_PITCH:
                left_buffer[iaudiobuf] = left;
     86c:	e59c3004 	ldr	r3, [r12, #4]
     870:	e08c3103 	add	r3, r12, r3, lsl #2
     874:	e5831024 	str	r1, [r3, #36]	; 0x24
                right_buffer[iaudiobuf] = right;
     878:	e59c3004 	ldr	r3, [r12, #4]
     87c:	e08c3103 	add	r3, r12, r3, lsl #2
     880:	e5832824 	str	r2, [r3, #2084]	; 0x824
                ++iaudiobuf;
     884:	e59c3004 	ldr	r3, [r12, #4]
     888:	e2833001 	add	r3, r3, #1
     88c:	e58c3004 	str	r3, [r12, #4]
                break;
     890:	eaffff6c 	b	648 <audio_ISR+0x12c>

00000894 <__cs3_reset>:
#include "defines.h"
#include "address_map_arm.h"


void __attribute__((interrupt)) __cs3_reset(void)
{
     894:	eafffffe 	b	894 <__cs3_reset>

00000898 <__cs3_isr_undef>:
    while (1);
}

void __attribute__((interrupt)) __cs3_isr_undef(void)
{
     898:	eafffffe 	b	898 <__cs3_isr_undef>

0000089c <__cs3_isr_swi>:
    while (1);
}

void __attribute__((interrupt)) __cs3_isr_swi(void)
{
     89c:	eafffffe 	b	89c <__cs3_isr_swi>

000008a0 <__cs3_isr_pabort>:
    while (1);
}

void __attribute__((interrupt)) __cs3_isr_pabort(void)
{
     8a0:	eafffffe 	b	8a0 <__cs3_isr_pabort>

000008a4 <__cs3_isr_dabort>:
    while (1);
}

void __attribute__((interrupt)) __cs3_isr_dabort(void)
{
     8a4:	eafffffe 	b	8a4 <__cs3_isr_dabort>

000008a8 <__cs3_isr_irq>:
    while (1);
}

// using_gic.pdf
void __attribute__((interrupt)) __cs3_isr_irq(void)
{
     8a8:	e24ee004 	sub	lr, lr, #4
     8ac:	e92d503f 	push	{r0, r1, r2, r3, r4, r5, r12, lr}
}

void disable_irq(void)
{
    int status;
    asm("mrs %[ps], cpsr" : [ps] "=r"(status) :);
     8b0:	e10f3000 	mrs	r3, CPSR
    write_bits(&status, ~CPSR_IRQ_MASK, CPSR_IRQ_MASK);
     8b4:	e3833080 	orr	r3, r3, #128	; 0x80
    asm("msr cpsr, %[ps]" : : [ps] "r"(status));
     8b8:	e129f003 	msr	CPSR_fc, r3
{
    disable_irq();

    // acknowledge interrupt
    int address = MPCORE_GIC_CPUIF + ICCIAR;
    int int_ID = *((int*)address);
     8bc:	e3e03a13 	mvn	r3, #77824	; 0x13000
     8c0:	e5134ef3 	ldr	r4, [r3, #-3827]	; 0xfffff10d

    if (int_ID == AUDIO_IRQ)
     8c4:	e354004e 	cmp	r4, #78	; 0x4e
     8c8:	0a000009 	beq	8f4 <__cs3_isr_irq+0x4c>
        audio_ISR();
    else if (int_ID == KEYS_IRQ)
     8cc:	e3540049 	cmp	r4, #73	; 0x49
     8d0:	0a000000 	beq	8d8 <__cs3_isr_irq+0x30>
     8d4:	eafffffe 	b	8d4 <__cs3_isr_irq+0x2c>
        keys_ISR();
     8d8:	ebfffe89 	bl	304 <keys_ISR>
    else
        while (1);

    // clear interrupt
    address = MPCORE_GIC_CPUIF + ICCEOIR;
    *((int*)address) = int_ID;
     8dc:	e3e02a13 	mvn	r2, #77824	; 0x13000


void enable_irq(void)
{
    int status;
    asm("mrs %[ps], cpsr" : [ps] "=r"(status) :);
     8e0:	e10f3000 	mrs	r3, CPSR
    else
        while (1);

    // clear interrupt
    address = MPCORE_GIC_CPUIF + ICCEOIR;
    *((int*)address) = int_ID;
     8e4:	e5024eef 	str	r4, [r2, #-3823]	; 0xfffff111

void enable_irq(void)
{
    int status;
    asm("mrs %[ps], cpsr" : [ps] "=r"(status) :);
    write_bits(&status, ~CPSR_IRQ_MASK, 0);
     8e8:	e3c33080 	bic	r3, r3, #128	; 0x80
    asm("msr cpsr, %[ps]" : : [ps] "r"(status));
     8ec:	e129f003 	msr	CPSR_fc, r3
     8f0:	e8fd903f 	ldm	sp!, {r0, r1, r2, r3, r4, r5, r12, pc}^
    // acknowledge interrupt
    int address = MPCORE_GIC_CPUIF + ICCIAR;
    int int_ID = *((int*)address);

    if (int_ID == AUDIO_IRQ)
        audio_ISR();
     8f4:	ebffff08 	bl	51c <audio_ISR>
     8f8:	eafffff7 	b	8dc <__cs3_isr_irq+0x34>

000008fc <__cs3_isr_fiq>:
    enable_irq();
    return;
}

void __attribute__((interrupt)) __cs3_isr_fiq(void)
{
     8fc:	eafffffe 	b	8fc <__cs3_isr_fiq>

00000900 <enable_irq>:


void enable_irq(void)
{
    int status;
    asm("mrs %[ps], cpsr" : [ps] "=r"(status) :);
     900:	e10f3000 	mrs	r3, CPSR
    write_bits(&status, ~CPSR_IRQ_MASK, 0);
     904:	e3c33080 	bic	r3, r3, #128	; 0x80
    asm("msr cpsr, %[ps]" : : [ps] "r"(status));
     908:	e129f003 	msr	CPSR_fc, r3
     90c:	e12fff1e 	bx	lr

00000910 <disable_irq>:
}

void disable_irq(void)
{
    int status;
    asm("mrs %[ps], cpsr" : [ps] "=r"(status) :);
     910:	e10f3000 	mrs	r3, CPSR
    write_bits(&status, ~CPSR_IRQ_MASK, CPSR_IRQ_MASK);
     914:	e3833080 	orr	r3, r3, #128	; 0x80
    asm("msr cpsr, %[ps]" : : [ps] "r"(status));
     918:	e129f003 	msr	CPSR_fc, r3
     91c:	e12fff1e 	bx	lr

00000920 <config_interrupt>:
// using_gic.pdf
void config_interrupt(int CPU_targets, int int_ID, int int_priority)
{
    int intr_bit, reg_offset, addr;

    assert(int_ID < 1024 && CPU_targets < 256 && int_priority < 256);
     920:	e35000ff 	cmp	r0, #255	; 0xff
     924:	d3510b01 	cmple	r1, #1024	; 0x400
}


// using_gic.pdf
void config_interrupt(int CPU_targets, int int_ID, int int_priority)
{
     928:	e92d40f8 	push	{r3, r4, r5, r6, r7, lr}
    int intr_bit, reg_offset, addr;

    assert(int_ID < 1024 && CPU_targets < 256 && int_priority < 256);
     92c:	aa00001b 	bge	9a0 <config_interrupt+0x80>
     930:	e35200ff 	cmp	r2, #255	; 0xff
     934:	ca000019 	bgt	9a0 <config_interrupt+0x80>

    // Set interrupt CPU targets (ICDIPTRn).
    // reg offset = ICPIPTR + integer_div(N, 4) * 4
    // interrupt bit = (N mod 4) * 8
    intr_bit = (int_ID & 0x3) << 3;
    reg_offset = ((int_ID >> 2) << 2);
     938:	e3c1c003 	bic	r12, r1, #3
    assert(int_ID < 1024 && CPU_targets < 256 && int_priority < 256);

    // Set interrupt CPU targets (ICDIPTRn).
    // reg offset = ICPIPTR + integer_div(N, 4) * 4
    // interrupt bit = (N mod 4) * 8
    intr_bit = (int_ID & 0x3) << 3;
     93c:	e2013003 	and	r3, r1, #3
    reg_offset = ((int_ID >> 2) << 2);
    addr = MPCORE_GIC_DIST + ICDIPTR + reg_offset;
     940:	e24c5b4a 	sub	r5, r12, #75776	; 0x12800
    assert(int_ID < 1024 && CPU_targets < 256 && int_priority < 256);

    // Set interrupt CPU targets (ICDIPTRn).
    // reg offset = ICPIPTR + integer_div(N, 4) * 4
    // interrupt bit = (N mod 4) * 8
    intr_bit = (int_ID & 0x3) << 3;
     944:	e1a03183 	lsl	r3, r3, #3
    reg_offset = ((int_ID >> 2) << 2);
    addr = MPCORE_GIC_DIST + ICDIPTR + reg_offset;
    write_bits((volatile int*)addr, ~(0xff << intr_bit), CPU_targets << intr_bit);
     948:	e5957000 	ldr	r7, [r5]
     94c:	e3a040ff 	mov	r4, #255	; 0xff
     950:	e1e04314 	mvn	r4, r4, lsl r3

    // Set interrupt priority (ICDIPRn).
    // reg offset, interrupt bit same as ICDIPTRn
    addr = MPCORE_GIC_DIST + ICDIPR + reg_offset;
     954:	e24ccb4b 	sub	r12, r12, #76800	; 0x12c00

    // Set interrupt enable (ICDISERn).
    // reg offset = ICDISER + integer_div(N, 32) * 4
    // interrupt bit = N mod 32
    intr_bit = int_ID & 0x1f;
    addr = MPCORE_GIC_DIST + ICDISER + ((int_ID >> 5) << 2);
     958:	e1a062c1 	asr	r6, r1, #5
    write_bits((volatile int*)addr, ~(0xff << intr_bit), int_priority << intr_bit);

    // Set interrupt enable (ICDISERn).
    // reg offset = ICDISER + integer_div(N, 32) * 4
    // interrupt bit = N mod 32
    intr_bit = int_ID & 0x1f;
     95c:	e201101f 	and	r1, r1, #31
    // reg offset = ICPIPTR + integer_div(N, 4) * 4
    // interrupt bit = (N mod 4) * 8
    intr_bit = (int_ID & 0x3) << 3;
    reg_offset = ((int_ID >> 2) << 2);
    addr = MPCORE_GIC_DIST + ICDIPTR + reg_offset;
    write_bits((volatile int*)addr, ~(0xff << intr_bit), CPU_targets << intr_bit);
     960:	e0077004 	and	r7, r7, r4
     964:	e1870310 	orr	r0, r7, r0, lsl r3

    // Set interrupt enable (ICDISERn).
    // reg offset = ICDISER + integer_div(N, 32) * 4
    // interrupt bit = N mod 32
    intr_bit = int_ID & 0x1f;
    addr = MPCORE_GIC_DIST + ICDISER + ((int_ID >> 5) << 2);
     968:	e1a06106 	lsl	r6, r6, #2
    // reg offset = ICPIPTR + integer_div(N, 4) * 4
    // interrupt bit = (N mod 4) * 8
    intr_bit = (int_ID & 0x3) << 3;
    reg_offset = ((int_ID >> 2) << 2);
    addr = MPCORE_GIC_DIST + ICDIPTR + reg_offset;
    write_bits((volatile int*)addr, ~(0xff << intr_bit), CPU_targets << intr_bit);
     96c:	e5850000 	str	r0, [r5]

    // Set interrupt enable (ICDISERn).
    // reg offset = ICDISER + integer_div(N, 32) * 4
    // interrupt bit = N mod 32
    intr_bit = int_ID & 0x1f;
    addr = MPCORE_GIC_DIST + ICDISER + ((int_ID >> 5) << 2);
     970:	e2460b4b 	sub	r0, r6, #76800	; 0x12c00
    write_bits((volatile int*)addr, ~(0xff << intr_bit), CPU_targets << intr_bit);

    // Set interrupt priority (ICDIPRn).
    // reg offset, interrupt bit same as ICDIPTRn
    addr = MPCORE_GIC_DIST + ICDIPR + reg_offset;
    write_bits((volatile int*)addr, ~(0xff << intr_bit), int_priority << intr_bit);
     974:	e59c5000 	ldr	r5, [r12]
    // Set interrupt enable (ICDISERn).
    // reg offset = ICDISER + integer_div(N, 32) * 4
    // interrupt bit = N mod 32
    intr_bit = int_ID & 0x1f;
    addr = MPCORE_GIC_DIST + ICDISER + ((int_ID >> 5) << 2);
    write_bits((volatile int*)addr, ~(0x1 << intr_bit), 0x1 << intr_bit);
     978:	e3a06001 	mov	r6, #1
     97c:	e1a01116 	lsl	r1, r6, r1
    write_bits((volatile int*)addr, ~(0xff << intr_bit), CPU_targets << intr_bit);

    // Set interrupt priority (ICDIPRn).
    // reg offset, interrupt bit same as ICDIPTRn
    addr = MPCORE_GIC_DIST + ICDIPR + reg_offset;
    write_bits((volatile int*)addr, ~(0xff << intr_bit), int_priority << intr_bit);
     980:	e0054004 	and	r4, r5, r4
     984:	e1843312 	orr	r3, r4, r2, lsl r3
     988:	e58c3000 	str	r3, [r12]
    // Set interrupt enable (ICDISERn).
    // reg offset = ICDISER + integer_div(N, 32) * 4
    // interrupt bit = N mod 32
    intr_bit = int_ID & 0x1f;
    addr = MPCORE_GIC_DIST + ICDISER + ((int_ID >> 5) << 2);
    write_bits((volatile int*)addr, ~(0x1 << intr_bit), 0x1 << intr_bit);
     98c:	e5103300 	ldr	r3, [r0, #-768]	; 0xfffffd00
     990:	e1c33001 	bic	r3, r3, r1
     994:	e1831001 	orr	r1, r3, r1
     998:	e5001300 	str	r1, [r0, #-768]	; 0xfffffd00
     99c:	e8bd80f8 	pop	{r3, r4, r5, r6, r7, pc}
// using_gic.pdf
void config_interrupt(int CPU_targets, int int_ID, int int_priority)
{
    int intr_bit, reg_offset, addr;

    assert(int_ID < 1024 && CPU_targets < 256 && int_priority < 256);
     9a0:	e30e0400 	movw	r0, #58368	; 0xe400
     9a4:	e30e23ec 	movw	r2, #58348	; 0xe3ec
     9a8:	e30e3410 	movw	r3, #58384	; 0xe410
     9ac:	e3400000 	movt	r0, #0
     9b0:	e3a0105a 	mov	r1, #90	; 0x5a
     9b4:	e3402000 	movt	r2, #0
     9b8:	e3403000 	movt	r3, #0
     9bc:	eb000012 	bl	a0c <__assert_func>

000009c0 <init_interrupts>:
    int stack, mode, addr;

    // Initialize banked stack pointer for IRQ mode
    stack = A9_ONCHIP_END - 7;
    mode = CPSR_IRQ_DISABLE | IRQ_MODE;
    asm("msr cpsr, %[ps]" : : [ps] "r" (mode));
     9c0:	e3a030d2 	mov	r3, #210	; 0xd2
     9c4:	e129f003 	msr	CPSR_fc, r3
    asm("mov sp, %[ps]" : : [ps] "r" (stack));
     9c8:	e3e03007 	mvn	r3, #7
     9cc:	e1a0d003 	mov	sp, r3
    mode = CPSR_IRQ_DISABLE | SVC_MODE;
    asm("msr cpsr, %[ps]" : : [ps] "r" (mode));
     9d0:	e3a030d3 	mov	r3, #211	; 0xd3
     9d4:	e129f003 	msr	CPSR_fc, r3

    // enable interrupts for all priorities
    addr = MPCORE_GIC_CPUIF + ICCPMR;
    *((int*)addr) = 0xFFFF;
     9d8:	e3e02a13 	mvn	r2, #77824	; 0x13000

    // enable interrupt signalling from CPU interface
    addr = MPCORE_GIC_CPUIF + ICCICR;
    *((int*)addr) = ENABLE;
     9dc:	e3a03001 	mov	r3, #1
    mode = CPSR_IRQ_DISABLE | SVC_MODE;
    asm("msr cpsr, %[ps]" : : [ps] "r" (mode));

    // enable interrupts for all priorities
    addr = MPCORE_GIC_CPUIF + ICCPMR;
    *((int*)addr) = 0xFFFF;
     9e0:	e30f1fff 	movw	r1, #65535	; 0xffff

    // enable interrupt signalling from CPU interface
    addr = MPCORE_GIC_CPUIF + ICCICR;
    *((int*)addr) = ENABLE;
     9e4:	e5023eff 	str	r3, [r2, #-3839]	; 0xfffff101
    mode = CPSR_IRQ_DISABLE | SVC_MODE;
    asm("msr cpsr, %[ps]" : : [ps] "r" (mode));

    // enable interrupts for all priorities
    addr = MPCORE_GIC_CPUIF + ICCPMR;
    *((int*)addr) = 0xFFFF;
     9e8:	e5021efb 	str	r1, [r2, #-3835]	; 0xfffff105
    addr = MPCORE_GIC_CPUIF + ICCICR;
    *((int*)addr) = ENABLE;

    // enable interrupt distributor
    addr = MPCORE_GIC_DIST + ICDDCR;
    *((int*)addr) = ENABLE;
     9ec:	e3e02a12 	mvn	r2, #73728	; 0x12000
     9f0:	e5023fff 	str	r3, [r2, #-4095]	; 0xfffff001
     9f4:	e12fff1e 	bx	lr

000009f8 <main>:
#include "defines.h"

int main(void) 
{
     9f8:	e92d4008 	push	{r3, lr}
    init_interrupts();
     9fc:	ebffffef 	bl	9c0 <init_interrupts>
    config_audio_demo();
     a00:	ebfffe1d 	bl	27c <config_audio_demo>
    enable_irq();
     a04:	ebffffbd 	bl	900 <enable_irq>
     a08:	eafffffe 	b	a08 <main+0x10>

00000a0c <__assert_func>:
     a0c:	e59fc040 	ldr	r12, [pc, #64]	; a54 <__assert_func+0x48>
     a10:	e52de004 	push	{lr}		; (str lr, [sp, #-4]!)
     a14:	e59ce000 	ldr	lr, [r12]
     a18:	e252c000 	subs	r12, r2, #0
     a1c:	e1a05000 	mov	r5, r0
     a20:	e59e000c 	ldr	r0, [lr, #12]
     a24:	059fe02c 	ldreq	lr, [pc, #44]	; a58 <__assert_func+0x4c>
     a28:	159fe02c 	ldrne	lr, [pc, #44]	; a5c <__assert_func+0x50>
     a2c:	e24dd014 	sub	sp, sp, #20
     a30:	e1a04001 	mov	r4, r1
     a34:	01a0c00e 	moveq	r12, lr
     a38:	e1a02003 	mov	r2, r3
     a3c:	e59f101c 	ldr	r1, [pc, #28]	; a60 <__assert_func+0x54>
     a40:	e1a03005 	mov	r3, r5
     a44:	e88d4010 	stm	sp, {r4, lr}
     a48:	e58dc008 	str	r12, [sp, #8]
     a4c:	eb000029 	bl	af8 <fiprintf>
     a50:	eb0005dc 	bl	21c8 <abort>
     a54:	0000e550 	.word	0x0000e550
     a58:	0000e458 	.word	0x0000e458
     a5c:	0000e44c 	.word	0x0000e44c
     a60:	0000e45c 	.word	0x0000e45c

00000a64 <__assert>:
     a64:	e92d4008 	push	{r3, lr}
     a68:	e1a03002 	mov	r3, r2
     a6c:	e3a02000 	mov	r2, #0
     a70:	ebffffe5 	bl	a0c <__assert_func>

00000a74 <atexit>:
     a74:	e1a01000 	mov	r1, r0
     a78:	e3a00000 	mov	r0, #0
     a7c:	e92d4008 	push	{r3, lr}
     a80:	e1a02000 	mov	r2, r0
     a84:	e1a03000 	mov	r3, r0
     a88:	eb000529 	bl	1f34 <__register_exitproc>
     a8c:	e8bd4008 	pop	{r3, lr}
     a90:	e12fff1e 	bx	lr

00000a94 <exit>:
     a94:	e92d4008 	push	{r3, lr}
     a98:	e3a01000 	mov	r1, #0
     a9c:	e1a04000 	mov	r4, r0
     aa0:	eb000560 	bl	2028 <__call_exitprocs>
     aa4:	e59f3018 	ldr	r3, [pc, #24]	; ac4 <exit+0x30>
     aa8:	e5930000 	ldr	r0, [r3]
     aac:	e590303c 	ldr	r3, [r0, #60]	; 0x3c
     ab0:	e3530000 	cmp	r3, #0
     ab4:	11a0e00f 	movne	lr, pc
     ab8:	112fff13 	bxne	r3
     abc:	e1a00004 	mov	r0, r4
     ac0:	eb001561 	bl	604c <_exit>
     ac4:	0000e48c 	.word	0x0000e48c

00000ac8 <_fiprintf_r>:
     ac8:	e92d000c 	push	{r2, r3}
     acc:	e52de004 	push	{lr}		; (str lr, [sp, #-4]!)
     ad0:	e24dd00c 	sub	sp, sp, #12
     ad4:	e28dc014 	add	r12, sp, #20
     ad8:	e59d2010 	ldr	r2, [sp, #16]
     adc:	e1a0300c 	mov	r3, r12
     ae0:	e58dc004 	str	r12, [sp, #4]
     ae4:	eb000042 	bl	bf4 <_vfiprintf_r>
     ae8:	e28dd00c 	add	sp, sp, #12
     aec:	e49de004 	pop	{lr}		; (ldr lr, [sp], #4)
     af0:	e28dd008 	add	sp, sp, #8
     af4:	e12fff1e 	bx	lr

00000af8 <fiprintf>:
     af8:	e92d000e 	push	{r1, r2, r3}
     afc:	e52de004 	push	{lr}		; (str lr, [sp, #-4]!)
     b00:	e59f302c 	ldr	r3, [pc, #44]	; b34 <fiprintf+0x3c>
     b04:	e24dd008 	sub	sp, sp, #8
     b08:	e28dc010 	add	r12, sp, #16
     b0c:	e1a01000 	mov	r1, r0
     b10:	e59d200c 	ldr	r2, [sp, #12]
     b14:	e5930000 	ldr	r0, [r3]
     b18:	e1a0300c 	mov	r3, r12
     b1c:	e58dc004 	str	r12, [sp, #4]
     b20:	eb000033 	bl	bf4 <_vfiprintf_r>
     b24:	e28dd008 	add	sp, sp, #8
     b28:	e49de004 	pop	{lr}		; (ldr lr, [sp], #4)
     b2c:	e28dd00c 	add	sp, sp, #12
     b30:	e12fff1e 	bx	lr
     b34:	0000e550 	.word	0x0000e550

00000b38 <__sprint_r>:
     b38:	e5923008 	ldr	r3, [r2, #8]
     b3c:	e3530000 	cmp	r3, #0
     b40:	e92d47f0 	push	{r4, r5, r6, r7, r8, r9, r10, lr}
     b44:	e1a07000 	mov	r7, r0
     b48:	e1a0a002 	mov	r10, r2
     b4c:	e1a06001 	mov	r6, r1
     b50:	05823004 	streq	r3, [r2, #4]
     b54:	01a00003 	moveq	r0, r3
     b58:	0a000016 	beq	bb8 <__sprint_r+0x80>
     b5c:	e591c064 	ldr	r12, [r1, #100]	; 0x64
     b60:	e31c0a02 	tst	r12, #8192	; 0x2000
     b64:	0a00001d 	beq	be0 <__sprint_r+0xa8>
     b68:	e5929000 	ldr	r9, [r2]
     b6c:	e2899008 	add	r9, r9, #8
     b70:	e9190120 	ldmdb	r9, {r5, r8}
     b74:	e1b08128 	lsrs	r8, r8, #2
     b78:	12455004 	subne	r5, r5, #4
     b7c:	13a04000 	movne	r4, #0
     b80:	1a000002 	bne	b90 <__sprint_r+0x58>
     b84:	ea00000e 	b	bc4 <__sprint_r+0x8c>
     b88:	e1580004 	cmp	r8, r4
     b8c:	0a00000b 	beq	bc0 <__sprint_r+0x88>
     b90:	e1a00007 	mov	r0, r7
     b94:	e5b51004 	ldr	r1, [r5, #4]!
     b98:	e1a02006 	mov	r2, r6
     b9c:	eb0006eb 	bl	2750 <_fputwc_r>
     ba0:	e3700001 	cmn	r0, #1
     ba4:	e2844001 	add	r4, r4, #1
     ba8:	1afffff6 	bne	b88 <__sprint_r+0x50>
     bac:	e3a03000 	mov	r3, #0
     bb0:	e58a3008 	str	r3, [r10, #8]
     bb4:	e58a3004 	str	r3, [r10, #4]
     bb8:	e8bd47f0 	pop	{r4, r5, r6, r7, r8, r9, r10, lr}
     bbc:	e12fff1e 	bx	lr
     bc0:	e59a3008 	ldr	r3, [r10, #8]
     bc4:	e0433108 	sub	r3, r3, r8, lsl #2
     bc8:	e3530000 	cmp	r3, #0
     bcc:	e58a3008 	str	r3, [r10, #8]
     bd0:	e2899008 	add	r9, r9, #8
     bd4:	1affffe5 	bne	b70 <__sprint_r+0x38>
     bd8:	e1a00003 	mov	r0, r3
     bdc:	eafffff2 	b	bac <__sprint_r+0x74>
     be0:	eb00081b 	bl	2c54 <__sfvwrite_r>
     be4:	e3a03000 	mov	r3, #0
     be8:	e58a3008 	str	r3, [r10, #8]
     bec:	e58a3004 	str	r3, [r10, #4]
     bf0:	eafffff0 	b	bb8 <__sprint_r+0x80>

00000bf4 <_vfiprintf_r>:
     bf4:	e92d4ff0 	push	{r4, r5, r6, r7, r8, r9, r10, r11, lr}
     bf8:	e24dde4e 	sub	sp, sp, #1248	; 0x4e0
     bfc:	e24dd00c 	sub	sp, sp, #12
     c00:	e2504000 	subs	r4, r0, #0
     c04:	e58d4014 	str	r4, [sp, #20]
     c08:	e1a0a001 	mov	r10, r1
     c0c:	e1a04002 	mov	r4, r2
     c10:	e58d301c 	str	r3, [sp, #28]
     c14:	0a000003 	beq	c28 <_vfiprintf_r+0x34>
     c18:	e5903038 	ldr	r3, [r0, #56]	; 0x38
     c1c:	e3530000 	cmp	r3, #0
     c20:	e1a05000 	mov	r5, r0
     c24:	0a000393 	beq	1a78 <_vfiprintf_r+0xe84>
     c28:	e1da80bc 	ldrh	r8, [r10, #12]
     c2c:	e3180a02 	tst	r8, #8192	; 0x2000
     c30:	059a3064 	ldreq	r3, [r10, #100]	; 0x64
     c34:	03888a02 	orreq	r8, r8, #8192	; 0x2000
     c38:	03c33a02 	biceq	r3, r3, #8192	; 0x2000
     c3c:	01ca80bc 	strheq	r8, [r10, #12]
     c40:	058a3064 	streq	r3, [r10, #100]	; 0x64
     c44:	e3180008 	tst	r8, #8
     c48:	0a000332 	beq	1918 <_vfiprintf_r+0xd24>
     c4c:	e59a3010 	ldr	r3, [r10, #16]
     c50:	e3530000 	cmp	r3, #0
     c54:	0a00032f 	beq	1918 <_vfiprintf_r+0xd24>
     c58:	e208301a 	and	r3, r8, #26
     c5c:	e353000a 	cmp	r3, #10
     c60:	0a000335 	beq	193c <_vfiprintf_r+0xd48>
     c64:	e3a03000 	mov	r3, #0
     c68:	e28d5080 	add	r5, sp, #128	; 0x80
     c6c:	e28d607f 	add	r6, sp, #127	; 0x7f
     c70:	e28d70e8 	add	r7, sp, #232	; 0xe8
     c74:	e1a0b004 	mov	r11, r4
     c78:	e58d3034 	str	r3, [sp, #52]	; 0x34
     c7c:	e0664005 	rsb	r4, r6, r5
     c80:	e58d502c 	str	r5, [sp, #44]	; 0x2c
     c84:	e58d6030 	str	r6, [sp, #48]	; 0x30
     c88:	e58d704c 	str	r7, [sp, #76]	; 0x4c
     c8c:	e58d3054 	str	r3, [sp, #84]	; 0x54
     c90:	e58d3050 	str	r3, [sp, #80]	; 0x50
     c94:	e58d300c 	str	r3, [sp, #12]
     c98:	e58d403c 	str	r4, [sp, #60]	; 0x3c
     c9c:	e1a04007 	mov	r4, r7
     ca0:	e5db3000 	ldrb	r3, [r11]
     ca4:	e3530025 	cmp	r3, #37	; 0x25
     ca8:	13530000 	cmpne	r3, #0
     cac:	0a0002a0 	beq	1734 <_vfiprintf_r+0xb40>
     cb0:	e28b3001 	add	r3, r11, #1
     cb4:	e1a05003 	mov	r5, r3
     cb8:	e5d33000 	ldrb	r3, [r3]
     cbc:	e3530025 	cmp	r3, #37	; 0x25
     cc0:	13530000 	cmpne	r3, #0
     cc4:	e2853001 	add	r3, r5, #1
     cc8:	1afffff9 	bne	cb4 <_vfiprintf_r+0xc0>
     ccc:	e055600b 	subs	r6, r5, r11
     cd0:	0a00000d 	beq	d0c <_vfiprintf_r+0x118>
     cd4:	e59d2050 	ldr	r2, [sp, #80]	; 0x50
     cd8:	e59d1054 	ldr	r1, [sp, #84]	; 0x54
     cdc:	e2822001 	add	r2, r2, #1
     ce0:	e0811006 	add	r1, r1, r6
     ce4:	e3520007 	cmp	r2, #7
     ce8:	e584b000 	str	r11, [r4]
     cec:	e5846004 	str	r6, [r4, #4]
     cf0:	e58d1054 	str	r1, [sp, #84]	; 0x54
     cf4:	e58d2050 	str	r2, [sp, #80]	; 0x50
     cf8:	d2844008 	addle	r4, r4, #8
     cfc:	ca00033e 	bgt	19fc <_vfiprintf_r+0xe08>
     d00:	e59db00c 	ldr	r11, [sp, #12]
     d04:	e08bb006 	add	r11, r11, r6
     d08:	e58db00c 	str	r11, [sp, #12]
     d0c:	e5d53000 	ldrb	r3, [r5]
     d10:	e3530000 	cmp	r3, #0
     d14:	0a00029c 	beq	178c <_vfiprintf_r+0xb98>
     d18:	e3a03000 	mov	r3, #0
     d1c:	e1a01003 	mov	r1, r3
     d20:	e5cd3047 	strb	r3, [sp, #71]	; 0x47
     d24:	e58d1018 	str	r1, [sp, #24]
     d28:	e5d53001 	ldrb	r3, [r5, #1]
     d2c:	e285b001 	add	r11, r5, #1
     d30:	e3e0c000 	mvn	r12, #0
     d34:	e1a06001 	mov	r6, r1
     d38:	e28bb001 	add	r11, r11, #1
     d3c:	e2432020 	sub	r2, r3, #32
     d40:	e3520058 	cmp	r2, #88	; 0x58
     d44:	979ff102 	ldrls	pc, [pc, r2, lsl #2]
     d48:	ea000187 	b	136c <_vfiprintf_r+0x778>
     d4c:	000013f4 	.word	0x000013f4
     d50:	0000136c 	.word	0x0000136c
     d54:	0000136c 	.word	0x0000136c
     d58:	000013e8 	.word	0x000013e8
     d5c:	0000136c 	.word	0x0000136c
     d60:	0000136c 	.word	0x0000136c
     d64:	0000136c 	.word	0x0000136c
     d68:	0000136c 	.word	0x0000136c
     d6c:	0000136c 	.word	0x0000136c
     d70:	0000136c 	.word	0x0000136c
     d74:	00000fc8 	.word	0x00000fc8
     d78:	000013dc 	.word	0x000013dc
     d7c:	0000136c 	.word	0x0000136c
     d80:	00000ff4 	.word	0x00000ff4
     d84:	00001440 	.word	0x00001440
     d88:	0000136c 	.word	0x0000136c
     d8c:	00001434 	.word	0x00001434
     d90:	00001404 	.word	0x00001404
     d94:	00001404 	.word	0x00001404
     d98:	00001404 	.word	0x00001404
     d9c:	00001404 	.word	0x00001404
     da0:	00001404 	.word	0x00001404
     da4:	00001404 	.word	0x00001404
     da8:	00001404 	.word	0x00001404
     dac:	00001404 	.word	0x00001404
     db0:	00001404 	.word	0x00001404
     db4:	0000136c 	.word	0x0000136c
     db8:	0000136c 	.word	0x0000136c
     dbc:	0000136c 	.word	0x0000136c
     dc0:	0000136c 	.word	0x0000136c
     dc4:	0000136c 	.word	0x0000136c
     dc8:	0000136c 	.word	0x0000136c
     dcc:	0000136c 	.word	0x0000136c
     dd0:	0000136c 	.word	0x0000136c
     dd4:	0000136c 	.word	0x0000136c
     dd8:	0000136c 	.word	0x0000136c
     ddc:	00001328 	.word	0x00001328
     de0:	0000136c 	.word	0x0000136c
     de4:	0000136c 	.word	0x0000136c
     de8:	0000136c 	.word	0x0000136c
     dec:	0000136c 	.word	0x0000136c
     df0:	0000136c 	.word	0x0000136c
     df4:	0000136c 	.word	0x0000136c
     df8:	0000136c 	.word	0x0000136c
     dfc:	0000136c 	.word	0x0000136c
     e00:	0000136c 	.word	0x0000136c
     e04:	0000136c 	.word	0x0000136c
     e08:	00000f90 	.word	0x00000f90
     e0c:	0000136c 	.word	0x0000136c
     e10:	0000136c 	.word	0x0000136c
     e14:	0000136c 	.word	0x0000136c
     e18:	0000136c 	.word	0x0000136c
     e1c:	0000136c 	.word	0x0000136c
     e20:	00000eb0 	.word	0x00000eb0
     e24:	0000136c 	.word	0x0000136c
     e28:	0000136c 	.word	0x0000136c
     e2c:	000012e0 	.word	0x000012e0
     e30:	0000136c 	.word	0x0000136c
     e34:	0000136c 	.word	0x0000136c
     e38:	0000136c 	.word	0x0000136c
     e3c:	0000136c 	.word	0x0000136c
     e40:	0000136c 	.word	0x0000136c
     e44:	0000136c 	.word	0x0000136c
     e48:	0000136c 	.word	0x0000136c
     e4c:	0000136c 	.word	0x0000136c
     e50:	0000136c 	.word	0x0000136c
     e54:	0000136c 	.word	0x0000136c
     e58:	00001180 	.word	0x00001180
     e5c:	00001130 	.word	0x00001130
     e60:	0000136c 	.word	0x0000136c
     e64:	0000136c 	.word	0x0000136c
     e68:	0000136c 	.word	0x0000136c
     e6c:	00001124 	.word	0x00001124
     e70:	00001130 	.word	0x00001130
     e74:	0000136c 	.word	0x0000136c
     e78:	0000136c 	.word	0x0000136c
     e7c:	00001104 	.word	0x00001104
     e80:	0000136c 	.word	0x0000136c
     e84:	00001000 	.word	0x00001000
     e88:	00000f94 	.word	0x00000f94
     e8c:	00001044 	.word	0x00001044
     e90:	00001038 	.word	0x00001038
     e94:	0000136c 	.word	0x0000136c
     e98:	00001088 	.word	0x00001088
     e9c:	0000136c 	.word	0x0000136c
     ea0:	00000eb4 	.word	0x00000eb4
     ea4:	0000136c 	.word	0x0000136c
     ea8:	0000136c 	.word	0x0000136c
     eac:	0000139c 	.word	0x0000139c
     eb0:	e3866010 	orr	r6, r6, #16
     eb4:	e3160020 	tst	r6, #32
     eb8:	0a000329 	beq	1b64 <_vfiprintf_r+0xf70>
     ebc:	e59d501c 	ldr	r5, [sp, #28]
     ec0:	e2853007 	add	r3, r5, #7
     ec4:	e3c33007 	bic	r3, r3, #7
     ec8:	e8930300 	ldm	r3, {r8, r9}
     ecc:	e2833008 	add	r3, r3, #8
     ed0:	e1987009 	orrs	r7, r8, r9
     ed4:	e58d301c 	str	r3, [sp, #28]
     ed8:	03a02000 	moveq	r2, #0
     edc:	13a02001 	movne	r2, #1
     ee0:	e3a03001 	mov	r3, #1
     ee4:	e3a05000 	mov	r5, #0
     ee8:	e5cd5047 	strb	r5, [sp, #71]	; 0x47
     eec:	e35c0000 	cmp	r12, #0
     ef0:	a3c66080 	bicge	r6, r6, #128	; 0x80
     ef4:	e35c0000 	cmp	r12, #0
     ef8:	13822001 	orrne	r2, r2, #1
     efc:	e3520000 	cmp	r2, #0
     f00:	0a00020d 	beq	173c <_vfiprintf_r+0xb48>
     f04:	e3530001 	cmp	r3, #1
     f08:	0a0002f7 	beq	1aec <_vfiprintf_r+0xef8>
     f0c:	e3530002 	cmp	r3, #2
     f10:	e59d0030 	ldr	r0, [sp, #48]	; 0x30
     f14:	0a0002dd 	beq	1a90 <_vfiprintf_r+0xe9c>
     f18:	e58d6004 	str	r6, [sp, #4]
     f1c:	e1a011a8 	lsr	r1, r8, #3
     f20:	e3a06007 	mov	r6, #7
     f24:	e1811e89 	orr	r1, r1, r9, lsl #29
     f28:	e0082006 	and	r2, r8, r6
     f2c:	e1a031a9 	lsr	r3, r9, #3
     f30:	e1a09003 	mov	r9, r3
     f34:	e1a08001 	mov	r8, r1
     f38:	e2822030 	add	r2, r2, #48	; 0x30
     f3c:	e20220ff 	and	r2, r2, #255	; 0xff
     f40:	e1987009 	orrs	r7, r8, r9
     f44:	e1a03000 	mov	r3, r0
     f48:	e5c02000 	strb	r2, [r0]
     f4c:	e2400001 	sub	r0, r0, #1
     f50:	1afffff1 	bne	f1c <_vfiprintf_r+0x328>
     f54:	e59d6004 	ldr	r6, [sp, #4]
     f58:	e3160001 	tst	r6, #1
     f5c:	e58d3024 	str	r3, [sp, #36]	; 0x24
     f60:	0a000336 	beq	1c40 <_vfiprintf_r+0x104c>
     f64:	e3520030 	cmp	r2, #48	; 0x30
     f68:	13a02030 	movne	r2, #48	; 0x30
     f6c:	059d302c 	ldreq	r3, [sp, #44]	; 0x2c
     f70:	15432001 	strbne	r2, [r3, #-1]
     f74:	059d7024 	ldreq	r7, [sp, #36]	; 0x24
     f78:	159d302c 	ldrne	r3, [sp, #44]	; 0x2c
     f7c:	00673003 	rsbeq	r3, r7, r3
     f80:	10603003 	rsbne	r3, r0, r3
     f84:	158d0024 	strne	r0, [sp, #36]	; 0x24
     f88:	e58d3008 	str	r3, [sp, #8]
     f8c:	ea0001f4 	b	1764 <_vfiprintf_r+0xb70>
     f90:	e3866010 	orr	r6, r6, #16
     f94:	e2163020 	ands	r3, r6, #32
     f98:	0a0002ff 	beq	1b9c <_vfiprintf_r+0xfa8>
     f9c:	e59d501c 	ldr	r5, [sp, #28]
     fa0:	e2853007 	add	r3, r5, #7
     fa4:	e3c33007 	bic	r3, r3, #7
     fa8:	e8930300 	ldm	r3, {r8, r9}
     fac:	e2833008 	add	r3, r3, #8
     fb0:	e1987009 	orrs	r7, r8, r9
     fb4:	e58d301c 	str	r3, [sp, #28]
     fb8:	03a02000 	moveq	r2, #0
     fbc:	13a02001 	movne	r2, #1
     fc0:	e3a03000 	mov	r3, #0
     fc4:	eaffffc6 	b	ee4 <_vfiprintf_r+0x2f0>
     fc8:	e59d701c 	ldr	r7, [sp, #28]
     fcc:	e5977000 	ldr	r7, [r7]
     fd0:	e59d501c 	ldr	r5, [sp, #28]
     fd4:	e3570000 	cmp	r7, #0
     fd8:	e58d7018 	str	r7, [sp, #24]
     fdc:	e2852004 	add	r2, r5, #4
     fe0:	aa000304 	bge	1bf8 <_vfiprintf_r+0x1004>
     fe4:	e59d7018 	ldr	r7, [sp, #24]
     fe8:	e2677000 	rsb	r7, r7, #0
     fec:	e58d7018 	str	r7, [sp, #24]
     ff0:	e58d201c 	str	r2, [sp, #28]
     ff4:	e3866004 	orr	r6, r6, #4
     ff8:	e5db3000 	ldrb	r3, [r11]
     ffc:	eaffff4d 	b	d38 <_vfiprintf_r+0x144>
    1000:	e3160020 	tst	r6, #32
    1004:	e5cd1047 	strb	r1, [sp, #71]	; 0x47
    1008:	1a00033e 	bne	1d08 <_vfiprintf_r+0x1114>
    100c:	e3160010 	tst	r6, #16
    1010:	1a000345 	bne	1d2c <_vfiprintf_r+0x1138>
    1014:	e3160040 	tst	r6, #64	; 0x40
    1018:	0a000343 	beq	1d2c <_vfiprintf_r+0x1138>
    101c:	e59dc01c 	ldr	r12, [sp, #28]
    1020:	e59d500c 	ldr	r5, [sp, #12]
    1024:	e59c3000 	ldr	r3, [r12]
    1028:	e28cc004 	add	r12, r12, #4
    102c:	e58dc01c 	str	r12, [sp, #28]
    1030:	e1c350b0 	strh	r5, [r3]
    1034:	eaffff19 	b	ca0 <_vfiprintf_r+0xac>
    1038:	e3866020 	orr	r6, r6, #32
    103c:	e5db3000 	ldrb	r3, [r11]
    1040:	eaffff3c 	b	d38 <_vfiprintf_r+0x144>
    1044:	e59d301c 	ldr	r3, [sp, #28]
    1048:	e5932000 	ldr	r2, [r3]
    104c:	e2837004 	add	r7, r3, #4
    1050:	e3a09000 	mov	r9, #0
    1054:	e3a03030 	mov	r3, #48	; 0x30
    1058:	e59f5d58 	ldr	r5, [pc, #3416]	; 1db8 <_vfiprintf_r+0x11c4>
    105c:	e1a08002 	mov	r8, r2
    1060:	e5cd3048 	strb	r3, [sp, #72]	; 0x48
    1064:	e0522009 	subs	r2, r2, r9
    1068:	e3a03078 	mov	r3, #120	; 0x78
    106c:	e5cd3049 	strb	r3, [sp, #73]	; 0x49
    1070:	e58d701c 	str	r7, [sp, #28]
    1074:	e3866002 	orr	r6, r6, #2
    1078:	13a02001 	movne	r2, #1
    107c:	e58d5034 	str	r5, [sp, #52]	; 0x34
    1080:	e3a03002 	mov	r3, #2
    1084:	eaffff96 	b	ee4 <_vfiprintf_r+0x2f0>
    1088:	e59d701c 	ldr	r7, [sp, #28]
    108c:	e5977000 	ldr	r7, [r7]
    1090:	e58d7024 	str	r7, [sp, #36]	; 0x24
    1094:	e59d3024 	ldr	r3, [sp, #36]	; 0x24
    1098:	e3a07000 	mov	r7, #0
    109c:	e59d501c 	ldr	r5, [sp, #28]
    10a0:	e1530007 	cmp	r3, r7
    10a4:	e5cd7047 	strb	r7, [sp, #71]	; 0x47
    10a8:	e2858004 	add	r8, r5, #4
    10ac:	0a00032a 	beq	1d5c <_vfiprintf_r+0x1168>
    10b0:	e35c0000 	cmp	r12, #0
    10b4:	e59d0024 	ldr	r0, [sp, #36]	; 0x24
    10b8:	ba000322 	blt	1d48 <_vfiprintf_r+0x1154>
    10bc:	e1a0200c 	mov	r2, r12
    10c0:	e1a01007 	mov	r1, r7
    10c4:	e58dc000 	str	r12, [sp]
    10c8:	eb000aa9 	bl	3b74 <memchr>
    10cc:	e3500000 	cmp	r0, #0
    10d0:	e59dc000 	ldr	r12, [sp]
    10d4:	0a000329 	beq	1d80 <_vfiprintf_r+0x118c>
    10d8:	e59d3024 	ldr	r3, [sp, #36]	; 0x24
    10dc:	e0630000 	rsb	r0, r3, r0
    10e0:	e150000c 	cmp	r0, r12
    10e4:	e58d0008 	str	r0, [sp, #8]
    10e8:	e5dd5047 	ldrb	r5, [sp, #71]	; 0x47
    10ec:	e58d801c 	str	r8, [sp, #28]
    10f0:	c58dc008 	strgt	r12, [sp, #8]
    10f4:	c58d7010 	strgt	r7, [sp, #16]
    10f8:	ca00019a 	bgt	1768 <_vfiprintf_r+0xb74>
    10fc:	e58d7010 	str	r7, [sp, #16]
    1100:	ea000198 	b	1768 <_vfiprintf_r+0xb74>
    1104:	e5db3000 	ldrb	r3, [r11]
    1108:	e1a0200b 	mov	r2, r11
    110c:	e353006c 	cmp	r3, #108	; 0x6c
    1110:	028bb001 	addeq	r11, r11, #1
    1114:	03866020 	orreq	r6, r6, #32
    1118:	05d23001 	ldrbeq	r3, [r2, #1]
    111c:	13866010 	orrne	r6, r6, #16
    1120:	eaffff04 	b	d38 <_vfiprintf_r+0x144>
    1124:	e3866040 	orr	r6, r6, #64	; 0x40
    1128:	e5db3000 	ldrb	r3, [r11]
    112c:	eaffff01 	b	d38 <_vfiprintf_r+0x144>
    1130:	e3160020 	tst	r6, #32
    1134:	e5cd1047 	strb	r1, [sp, #71]	; 0x47
    1138:	0a00007e 	beq	1338 <_vfiprintf_r+0x744>
    113c:	e59d501c 	ldr	r5, [sp, #28]
    1140:	e2851007 	add	r1, r5, #7
    1144:	e3c11007 	bic	r1, r1, #7
    1148:	e891000c 	ldm	r1, {r2, r3}
    114c:	e2811008 	add	r1, r1, #8
    1150:	e58d101c 	str	r1, [sp, #28]
    1154:	e1a08002 	mov	r8, r2
    1158:	e1a09003 	mov	r9, r3
    115c:	e3520000 	cmp	r2, #0
    1160:	e2d30000 	sbcs	r0, r3, #0
    1164:	ba0002de 	blt	1ce4 <_vfiprintf_r+0x10f0>
    1168:	e1981009 	orrs	r1, r8, r9
    116c:	e5dd5047 	ldrb	r5, [sp, #71]	; 0x47
    1170:	03a02000 	moveq	r2, #0
    1174:	13a02001 	movne	r2, #1
    1178:	e3a03001 	mov	r3, #1
    117c:	eaffff5a 	b	eec <_vfiprintf_r+0x2f8>
    1180:	e59d301c 	ldr	r3, [sp, #28]
    1184:	e5933000 	ldr	r3, [r3]
    1188:	e59dc01c 	ldr	r12, [sp, #28]
    118c:	e5cd3058 	strb	r3, [sp, #88]	; 0x58
    1190:	e3a03000 	mov	r3, #0
    1194:	e3a07001 	mov	r7, #1
    1198:	e28cc004 	add	r12, r12, #4
    119c:	e5cd3047 	strb	r3, [sp, #71]	; 0x47
    11a0:	e28d3058 	add	r3, sp, #88	; 0x58
    11a4:	e58d7004 	str	r7, [sp, #4]
    11a8:	e58dc01c 	str	r12, [sp, #28]
    11ac:	e58d7008 	str	r7, [sp, #8]
    11b0:	e58d3024 	str	r3, [sp, #36]	; 0x24
    11b4:	e3a0c000 	mov	r12, #0
    11b8:	e58dc010 	str	r12, [sp, #16]
    11bc:	e2163002 	ands	r3, r6, #2
    11c0:	159d5004 	ldrne	r5, [sp, #4]
    11c4:	12855002 	addne	r5, r5, #2
    11c8:	158d5004 	strne	r5, [sp, #4]
    11cc:	e2167084 	ands	r7, r6, #132	; 0x84
    11d0:	e58d3020 	str	r3, [sp, #32]
    11d4:	e58d7028 	str	r7, [sp, #40]	; 0x28
    11d8:	1a0000ab 	bne	148c <_vfiprintf_r+0x898>
    11dc:	e59dc018 	ldr	r12, [sp, #24]
    11e0:	e59d3004 	ldr	r3, [sp, #4]
    11e4:	e063500c 	rsb	r5, r3, r12
    11e8:	e3550000 	cmp	r5, #0
    11ec:	da0000a6 	ble	148c <_vfiprintf_r+0x898>
    11f0:	e3550010 	cmp	r5, #16
    11f4:	e59d1054 	ldr	r1, [sp, #84]	; 0x54
    11f8:	e59d2050 	ldr	r2, [sp, #80]	; 0x50
    11fc:	e59f8bb8 	ldr	r8, [pc, #3000]	; 1dbc <_vfiprintf_r+0x11c8>
    1200:	da000023 	ble	1294 <_vfiprintf_r+0x6a0>
    1204:	e28d704c 	add	r7, sp, #76	; 0x4c
    1208:	e58d6038 	str	r6, [sp, #56]	; 0x38
    120c:	e3a09010 	mov	r9, #16
    1210:	e1a06008 	mov	r6, r8
    1214:	e1a03002 	mov	r3, r2
    1218:	e1a08005 	mov	r8, r5
    121c:	e1a05007 	mov	r5, r7
    1220:	e59d7014 	ldr	r7, [sp, #20]
    1224:	ea000002 	b	1234 <_vfiprintf_r+0x640>
    1228:	e2488010 	sub	r8, r8, #16
    122c:	e3580010 	cmp	r8, #16
    1230:	da000013 	ble	1284 <_vfiprintf_r+0x690>
    1234:	e2833001 	add	r3, r3, #1
    1238:	e2811010 	add	r1, r1, #16
    123c:	e3530007 	cmp	r3, #7
    1240:	e8840240 	stm	r4, {r6, r9}
    1244:	e58d1054 	str	r1, [sp, #84]	; 0x54
    1248:	e58d3050 	str	r3, [sp, #80]	; 0x50
    124c:	d2844008 	addle	r4, r4, #8
    1250:	dafffff4 	ble	1228 <_vfiprintf_r+0x634>
    1254:	e1a00007 	mov	r0, r7
    1258:	e1a0100a 	mov	r1, r10
    125c:	e1a02005 	mov	r2, r5
    1260:	ebfffe34 	bl	b38 <__sprint_r>
    1264:	e3500000 	cmp	r0, #0
    1268:	1a00014f 	bne	17ac <_vfiprintf_r+0xbb8>
    126c:	e2488010 	sub	r8, r8, #16
    1270:	e3580010 	cmp	r8, #16
    1274:	e59d1054 	ldr	r1, [sp, #84]	; 0x54
    1278:	e59d3050 	ldr	r3, [sp, #80]	; 0x50
    127c:	e28d40e8 	add	r4, sp, #232	; 0xe8
    1280:	caffffeb 	bgt	1234 <_vfiprintf_r+0x640>
    1284:	e1a05008 	mov	r5, r8
    1288:	e1a08006 	mov	r8, r6
    128c:	e59d6038 	ldr	r6, [sp, #56]	; 0x38
    1290:	e1a02003 	mov	r2, r3
    1294:	e2822001 	add	r2, r2, #1
    1298:	e0811005 	add	r1, r1, r5
    129c:	e3520007 	cmp	r2, #7
    12a0:	e5848000 	str	r8, [r4]
    12a4:	e5845004 	str	r5, [r4, #4]
    12a8:	e58d1054 	str	r1, [sp, #84]	; 0x54
    12ac:	e58d2050 	str	r2, [sp, #80]	; 0x50
    12b0:	d2844008 	addle	r4, r4, #8
    12b4:	da000076 	ble	1494 <_vfiprintf_r+0x8a0>
    12b8:	e59d0014 	ldr	r0, [sp, #20]
    12bc:	e1a0100a 	mov	r1, r10
    12c0:	e28d204c 	add	r2, sp, #76	; 0x4c
    12c4:	ebfffe1b 	bl	b38 <__sprint_r>
    12c8:	e3500000 	cmp	r0, #0
    12cc:	1a000136 	bne	17ac <_vfiprintf_r+0xbb8>
    12d0:	e59d1054 	ldr	r1, [sp, #84]	; 0x54
    12d4:	e59d2050 	ldr	r2, [sp, #80]	; 0x50
    12d8:	e28d40e8 	add	r4, sp, #232	; 0xe8
    12dc:	ea00006c 	b	1494 <_vfiprintf_r+0x8a0>
    12e0:	e59f5ad8 	ldr	r5, [pc, #2776]	; 1dc0 <_vfiprintf_r+0x11cc>
    12e4:	e3160020 	tst	r6, #32
    12e8:	e5cd1047 	strb	r1, [sp, #71]	; 0x47
    12ec:	e58d5034 	str	r5, [sp, #52]	; 0x34
    12f0:	0a00002e 	beq	13b0 <_vfiprintf_r+0x7bc>
    12f4:	e59d501c 	ldr	r5, [sp, #28]
    12f8:	e2852007 	add	r2, r5, #7
    12fc:	e3c22007 	bic	r2, r2, #7
    1300:	e2827008 	add	r7, r2, #8
    1304:	e58d701c 	str	r7, [sp, #28]
    1308:	e8920300 	ldm	r2, {r8, r9}
    130c:	e3160001 	tst	r6, #1
    1310:	1a00022f 	bne	1bd4 <_vfiprintf_r+0xfe0>
    1314:	e1987009 	orrs	r7, r8, r9
    1318:	03a02000 	moveq	r2, #0
    131c:	13a02001 	movne	r2, #1
    1320:	e3a03002 	mov	r3, #2
    1324:	eafffeee 	b	ee4 <_vfiprintf_r+0x2f0>
    1328:	e3866010 	orr	r6, r6, #16
    132c:	e3160020 	tst	r6, #32
    1330:	e5cd1047 	strb	r1, [sp, #71]	; 0x47
    1334:	1affff80 	bne	113c <_vfiprintf_r+0x548>
    1338:	e3160010 	tst	r6, #16
    133c:	1a00025d 	bne	1cb8 <_vfiprintf_r+0x10c4>
    1340:	e3160040 	tst	r6, #64	; 0x40
    1344:	0a00025b 	beq	1cb8 <_vfiprintf_r+0x10c4>
    1348:	e59d501c 	ldr	r5, [sp, #28]
    134c:	e1d530f0 	ldrsh	r3, [r5]
    1350:	e2855004 	add	r5, r5, #4
    1354:	e1a09fc3 	asr	r9, r3, #31
    1358:	e1a08003 	mov	r8, r3
    135c:	e1a02003 	mov	r2, r3
    1360:	e58d501c 	str	r5, [sp, #28]
    1364:	e1a03009 	mov	r3, r9
    1368:	eaffff7b 	b	115c <_vfiprintf_r+0x568>
    136c:	e3530000 	cmp	r3, #0
    1370:	e5cd1047 	strb	r1, [sp, #71]	; 0x47
    1374:	0a000104 	beq	178c <_vfiprintf_r+0xb98>
    1378:	e5cd3058 	strb	r3, [sp, #88]	; 0x58
    137c:	e3a03000 	mov	r3, #0
    1380:	e3a0c001 	mov	r12, #1
    1384:	e5cd3047 	strb	r3, [sp, #71]	; 0x47
    1388:	e28d3058 	add	r3, sp, #88	; 0x58
    138c:	e58dc004 	str	r12, [sp, #4]
    1390:	e58dc008 	str	r12, [sp, #8]
    1394:	e58d3024 	str	r3, [sp, #36]	; 0x24
    1398:	eaffff85 	b	11b4 <_vfiprintf_r+0x5c0>
    139c:	e59f7a14 	ldr	r7, [pc, #2580]	; 1db8 <_vfiprintf_r+0x11c4>
    13a0:	e3160020 	tst	r6, #32
    13a4:	e5cd1047 	strb	r1, [sp, #71]	; 0x47
    13a8:	e58d7034 	str	r7, [sp, #52]	; 0x34
    13ac:	1affffd0 	bne	12f4 <_vfiprintf_r+0x700>
    13b0:	e3160010 	tst	r6, #16
    13b4:	1a000238 	bne	1c9c <_vfiprintf_r+0x10a8>
    13b8:	e3160040 	tst	r6, #64	; 0x40
    13bc:	0a000236 	beq	1c9c <_vfiprintf_r+0x10a8>
    13c0:	e59d701c 	ldr	r7, [sp, #28]
    13c4:	e1d720b0 	ldrh	r2, [r7]
    13c8:	e2877004 	add	r7, r7, #4
    13cc:	e1a08002 	mov	r8, r2
    13d0:	e3a09000 	mov	r9, #0
    13d4:	e58d701c 	str	r7, [sp, #28]
    13d8:	eaffffcb 	b	130c <_vfiprintf_r+0x718>
    13dc:	e5db3000 	ldrb	r3, [r11]
    13e0:	e3a0102b 	mov	r1, #43	; 0x2b
    13e4:	eafffe53 	b	d38 <_vfiprintf_r+0x144>
    13e8:	e3866001 	orr	r6, r6, #1
    13ec:	e5db3000 	ldrb	r3, [r11]
    13f0:	eafffe50 	b	d38 <_vfiprintf_r+0x144>
    13f4:	e3510000 	cmp	r1, #0
    13f8:	e5db3000 	ldrb	r3, [r11]
    13fc:	03a01020 	moveq	r1, #32
    1400:	eafffe4c 	b	d38 <_vfiprintf_r+0x144>
    1404:	e1a0000b 	mov	r0, r11
    1408:	e3a02000 	mov	r2, #0
    140c:	e2435030 	sub	r5, r3, #48	; 0x30
    1410:	e4d03001 	ldrb	r3, [r0], #1
    1414:	e2437030 	sub	r7, r3, #48	; 0x30
    1418:	e0822102 	add	r2, r2, r2, lsl #2
    141c:	e3570009 	cmp	r7, #9
    1420:	e0852082 	add	r2, r5, r2, lsl #1
    1424:	e1a0b000 	mov	r11, r0
    1428:	9afffff7 	bls	140c <_vfiprintf_r+0x818>
    142c:	e58d2018 	str	r2, [sp, #24]
    1430:	eafffe41 	b	d3c <_vfiprintf_r+0x148>
    1434:	e3866080 	orr	r6, r6, #128	; 0x80
    1438:	e5db3000 	ldrb	r3, [r11]
    143c:	eafffe3d 	b	d38 <_vfiprintf_r+0x144>
    1440:	e1a0000b 	mov	r0, r11
    1444:	e4d03001 	ldrb	r3, [r0], #1
    1448:	e353002a 	cmp	r3, #42	; 0x2a
    144c:	0a000250 	beq	1d94 <_vfiprintf_r+0x11a0>
    1450:	e2432030 	sub	r2, r3, #48	; 0x30
    1454:	e3520009 	cmp	r2, #9
    1458:	81a0b000 	movhi	r11, r0
    145c:	83a0c000 	movhi	r12, #0
    1460:	8afffe35 	bhi	d3c <_vfiprintf_r+0x148>
    1464:	e3a0c000 	mov	r12, #0
    1468:	e4d03001 	ldrb	r3, [r0], #1
    146c:	e08cc10c 	add	r12, r12, r12, lsl #2
    1470:	e082c08c 	add	r12, r2, r12, lsl #1
    1474:	e2432030 	sub	r2, r3, #48	; 0x30
    1478:	e3520009 	cmp	r2, #9
    147c:	e1a0b000 	mov	r11, r0
    1480:	9afffff8 	bls	1468 <_vfiprintf_r+0x874>
    1484:	e18ccfcc 	orr	r12, r12, r12, asr #31
    1488:	eafffe2b 	b	d3c <_vfiprintf_r+0x148>
    148c:	e59d1054 	ldr	r1, [sp, #84]	; 0x54
    1490:	e59d2050 	ldr	r2, [sp, #80]	; 0x50
    1494:	e5dd3047 	ldrb	r3, [sp, #71]	; 0x47
    1498:	e3530000 	cmp	r3, #0
    149c:	0a00000a 	beq	14cc <_vfiprintf_r+0x8d8>
    14a0:	e2822001 	add	r2, r2, #1
    14a4:	e28d3047 	add	r3, sp, #71	; 0x47
    14a8:	e5843000 	str	r3, [r4]
    14ac:	e2811001 	add	r1, r1, #1
    14b0:	e3520007 	cmp	r2, #7
    14b4:	e3a03001 	mov	r3, #1
    14b8:	e5843004 	str	r3, [r4, #4]
    14bc:	e58d1054 	str	r1, [sp, #84]	; 0x54
    14c0:	e58d2050 	str	r2, [sp, #80]	; 0x50
    14c4:	d2844008 	addle	r4, r4, #8
    14c8:	ca00015f 	bgt	1a4c <_vfiprintf_r+0xe58>
    14cc:	e59d5020 	ldr	r5, [sp, #32]
    14d0:	e3550000 	cmp	r5, #0
    14d4:	0a00000a 	beq	1504 <_vfiprintf_r+0x910>
    14d8:	e2822001 	add	r2, r2, #1
    14dc:	e28d3048 	add	r3, sp, #72	; 0x48
    14e0:	e5843000 	str	r3, [r4]
    14e4:	e2811002 	add	r1, r1, #2
    14e8:	e3520007 	cmp	r2, #7
    14ec:	e3a03002 	mov	r3, #2
    14f0:	e5843004 	str	r3, [r4, #4]
    14f4:	e58d1054 	str	r1, [sp, #84]	; 0x54
    14f8:	e58d2050 	str	r2, [sp, #80]	; 0x50
    14fc:	d2844008 	addle	r4, r4, #8
    1500:	ca000146 	bgt	1a20 <_vfiprintf_r+0xe2c>
    1504:	e59dc028 	ldr	r12, [sp, #40]	; 0x28
    1508:	e35c0080 	cmp	r12, #128	; 0x80
    150c:	0a0000b0 	beq	17d4 <_vfiprintf_r+0xbe0>
    1510:	e59d5010 	ldr	r5, [sp, #16]
    1514:	e59d7008 	ldr	r7, [sp, #8]
    1518:	e0678005 	rsb	r8, r7, r5
    151c:	e3580000 	cmp	r8, #0
    1520:	da000035 	ble	15fc <_vfiprintf_r+0xa08>
    1524:	e3580010 	cmp	r8, #16
    1528:	e59f5894 	ldr	r5, [pc, #2196]	; 1dc4 <_vfiprintf_r+0x11d0>
    152c:	da000021 	ble	15b8 <_vfiprintf_r+0x9c4>
    1530:	e28d704c 	add	r7, sp, #76	; 0x4c
    1534:	e58d6010 	str	r6, [sp, #16]
    1538:	e3a09010 	mov	r9, #16
    153c:	e1a06005 	mov	r6, r5
    1540:	e1a03002 	mov	r3, r2
    1544:	e1a05007 	mov	r5, r7
    1548:	e59d7014 	ldr	r7, [sp, #20]
    154c:	ea000002 	b	155c <_vfiprintf_r+0x968>
    1550:	e2488010 	sub	r8, r8, #16
    1554:	e3580010 	cmp	r8, #16
    1558:	da000013 	ble	15ac <_vfiprintf_r+0x9b8>
    155c:	e2833001 	add	r3, r3, #1
    1560:	e2811010 	add	r1, r1, #16
    1564:	e3530007 	cmp	r3, #7
    1568:	e8840240 	stm	r4, {r6, r9}
    156c:	e58d1054 	str	r1, [sp, #84]	; 0x54
    1570:	e58d3050 	str	r3, [sp, #80]	; 0x50
    1574:	d2844008 	addle	r4, r4, #8
    1578:	dafffff4 	ble	1550 <_vfiprintf_r+0x95c>
    157c:	e1a00007 	mov	r0, r7
    1580:	e1a0100a 	mov	r1, r10
    1584:	e1a02005 	mov	r2, r5
    1588:	ebfffd6a 	bl	b38 <__sprint_r>
    158c:	e3500000 	cmp	r0, #0
    1590:	1a000085 	bne	17ac <_vfiprintf_r+0xbb8>
    1594:	e2488010 	sub	r8, r8, #16
    1598:	e3580010 	cmp	r8, #16
    159c:	e59d1054 	ldr	r1, [sp, #84]	; 0x54
    15a0:	e59d3050 	ldr	r3, [sp, #80]	; 0x50
    15a4:	e28d40e8 	add	r4, sp, #232	; 0xe8
    15a8:	caffffeb 	bgt	155c <_vfiprintf_r+0x968>
    15ac:	e1a05006 	mov	r5, r6
    15b0:	e59d6010 	ldr	r6, [sp, #16]
    15b4:	e1a02003 	mov	r2, r3
    15b8:	e2822001 	add	r2, r2, #1
    15bc:	e0811008 	add	r1, r1, r8
    15c0:	e3520007 	cmp	r2, #7
    15c4:	e8840120 	stm	r4, {r5, r8}
    15c8:	e58d1054 	str	r1, [sp, #84]	; 0x54
    15cc:	e58d2050 	str	r2, [sp, #80]	; 0x50
    15d0:	d2844008 	addle	r4, r4, #8
    15d4:	da000008 	ble	15fc <_vfiprintf_r+0xa08>
    15d8:	e59d0014 	ldr	r0, [sp, #20]
    15dc:	e1a0100a 	mov	r1, r10
    15e0:	e28d204c 	add	r2, sp, #76	; 0x4c
    15e4:	ebfffd53 	bl	b38 <__sprint_r>
    15e8:	e3500000 	cmp	r0, #0
    15ec:	1a00006e 	bne	17ac <_vfiprintf_r+0xbb8>
    15f0:	e59d1054 	ldr	r1, [sp, #84]	; 0x54
    15f4:	e59d2050 	ldr	r2, [sp, #80]	; 0x50
    15f8:	e28d40e8 	add	r4, sp, #232	; 0xe8
    15fc:	e59d5008 	ldr	r5, [sp, #8]
    1600:	e2822001 	add	r2, r2, #1
    1604:	e59d7024 	ldr	r7, [sp, #36]	; 0x24
    1608:	e0811005 	add	r1, r1, r5
    160c:	e3520007 	cmp	r2, #7
    1610:	e5847000 	str	r7, [r4]
    1614:	e5845004 	str	r5, [r4, #4]
    1618:	e58d1054 	str	r1, [sp, #84]	; 0x54
    161c:	e58d2050 	str	r2, [sp, #80]	; 0x50
    1620:	d2844008 	addle	r4, r4, #8
    1624:	ca0000a6 	bgt	18c4 <_vfiprintf_r+0xcd0>
    1628:	e3160004 	tst	r6, #4
    162c:	0a000030 	beq	16f4 <_vfiprintf_r+0xb00>
    1630:	e59d5018 	ldr	r5, [sp, #24]
    1634:	e59d7004 	ldr	r7, [sp, #4]
    1638:	e0676005 	rsb	r6, r7, r5
    163c:	e3560000 	cmp	r6, #0
    1640:	da00002b 	ble	16f4 <_vfiprintf_r+0xb00>
    1644:	e3560010 	cmp	r6, #16
    1648:	e59d2050 	ldr	r2, [sp, #80]	; 0x50
    164c:	e59f8768 	ldr	r8, [pc, #1896]	; 1dbc <_vfiprintf_r+0x11c8>
    1650:	da00001f 	ble	16d4 <_vfiprintf_r+0xae0>
    1654:	e3a07010 	mov	r7, #16
    1658:	e28d504c 	add	r5, sp, #76	; 0x4c
    165c:	e59d9014 	ldr	r9, [sp, #20]
    1660:	e1a03002 	mov	r3, r2
    1664:	e1a0c001 	mov	r12, r1
    1668:	ea000002 	b	1678 <_vfiprintf_r+0xa84>
    166c:	e2466010 	sub	r6, r6, #16
    1670:	e3560010 	cmp	r6, #16
    1674:	da000014 	ble	16cc <_vfiprintf_r+0xad8>
    1678:	e2833001 	add	r3, r3, #1
    167c:	e28cc010 	add	r12, r12, #16
    1680:	e3530007 	cmp	r3, #7
    1684:	e5848000 	str	r8, [r4]
    1688:	e5847004 	str	r7, [r4, #4]
    168c:	e58dc054 	str	r12, [sp, #84]	; 0x54
    1690:	e58d3050 	str	r3, [sp, #80]	; 0x50
    1694:	d2844008 	addle	r4, r4, #8
    1698:	dafffff3 	ble	166c <_vfiprintf_r+0xa78>
    169c:	e1a00009 	mov	r0, r9
    16a0:	e1a0100a 	mov	r1, r10
    16a4:	e1a02005 	mov	r2, r5
    16a8:	ebfffd22 	bl	b38 <__sprint_r>
    16ac:	e3500000 	cmp	r0, #0
    16b0:	1a00003d 	bne	17ac <_vfiprintf_r+0xbb8>
    16b4:	e2466010 	sub	r6, r6, #16
    16b8:	e28d3050 	add	r3, sp, #80	; 0x50
    16bc:	e3560010 	cmp	r6, #16
    16c0:	e8931008 	ldm	r3, {r3, r12}
    16c4:	e28d40e8 	add	r4, sp, #232	; 0xe8
    16c8:	caffffea 	bgt	1678 <_vfiprintf_r+0xa84>
    16cc:	e1a02003 	mov	r2, r3
    16d0:	e1a0100c 	mov	r1, r12
    16d4:	e2822001 	add	r2, r2, #1
    16d8:	e0861001 	add	r1, r6, r1
    16dc:	e3520007 	cmp	r2, #7
    16e0:	e5848000 	str	r8, [r4]
    16e4:	e5846004 	str	r6, [r4, #4]
    16e8:	e58d1054 	str	r1, [sp, #84]	; 0x54
    16ec:	e58d2050 	str	r2, [sp, #80]	; 0x50
    16f0:	ca000143 	bgt	1c04 <_vfiprintf_r+0x1010>
    16f4:	e59d400c 	ldr	r4, [sp, #12]
    16f8:	e59d5004 	ldr	r5, [sp, #4]
    16fc:	e59d6018 	ldr	r6, [sp, #24]
    1700:	e1550006 	cmp	r5, r6
    1704:	a0844005 	addge	r4, r4, r5
    1708:	b0844006 	addlt	r4, r4, r6
    170c:	e3510000 	cmp	r1, #0
    1710:	e58d400c 	str	r4, [sp, #12]
    1714:	1a000073 	bne	18e8 <_vfiprintf_r+0xcf4>
    1718:	e3a03000 	mov	r3, #0
    171c:	e58d3050 	str	r3, [sp, #80]	; 0x50
    1720:	e5db3000 	ldrb	r3, [r11]
    1724:	e3530025 	cmp	r3, #37	; 0x25
    1728:	13530000 	cmpne	r3, #0
    172c:	e28d40e8 	add	r4, sp, #232	; 0xe8
    1730:	1afffd5e 	bne	cb0 <_vfiprintf_r+0xbc>
    1734:	e1a0500b 	mov	r5, r11
    1738:	eafffd73 	b	d0c <_vfiprintf_r+0x118>
    173c:	e3530000 	cmp	r3, #0
    1740:	1a000070 	bne	1908 <_vfiprintf_r+0xd14>
    1744:	e3160001 	tst	r6, #1
    1748:	0a0000cc 	beq	1a80 <_vfiprintf_r+0xe8c>
    174c:	e59d703c 	ldr	r7, [sp, #60]	; 0x3c
    1750:	e58d7008 	str	r7, [sp, #8]
    1754:	e59d7030 	ldr	r7, [sp, #48]	; 0x30
    1758:	e3a03030 	mov	r3, #48	; 0x30
    175c:	e5cd307f 	strb	r3, [sp, #127]	; 0x7f
    1760:	e58d7024 	str	r7, [sp, #36]	; 0x24
    1764:	e58dc010 	str	r12, [sp, #16]
    1768:	e59d7008 	ldr	r7, [sp, #8]
    176c:	e59dc010 	ldr	r12, [sp, #16]
    1770:	e157000c 	cmp	r7, r12
    1774:	b1a0700c 	movlt	r7, r12
    1778:	e3550000 	cmp	r5, #0
    177c:	e58d7004 	str	r7, [sp, #4]
    1780:	12877001 	addne	r7, r7, #1
    1784:	158d7004 	strne	r7, [sp, #4]
    1788:	eafffe8b 	b	11bc <_vfiprintf_r+0x5c8>
    178c:	e59d3054 	ldr	r3, [sp, #84]	; 0x54
    1790:	e3530000 	cmp	r3, #0
    1794:	0a000004 	beq	17ac <_vfiprintf_r+0xbb8>
    1798:	e59d0014 	ldr	r0, [sp, #20]
    179c:	e1a0100a 	mov	r1, r10
    17a0:	e28d204c 	add	r2, sp, #76	; 0x4c
    17a4:	e28db058 	add	r11, sp, #88	; 0x58
    17a8:	ebfffce2 	bl	b38 <__sprint_r>
    17ac:	e1da30bc 	ldrh	r3, [r10, #12]
    17b0:	e3130040 	tst	r3, #64	; 0x40
    17b4:	0a000001 	beq	17c0 <_vfiprintf_r+0xbcc>
    17b8:	e3e06000 	mvn	r6, #0
    17bc:	e58d600c 	str	r6, [sp, #12]
    17c0:	e59d000c 	ldr	r0, [sp, #12]
    17c4:	e28dd0ec 	add	sp, sp, #236	; 0xec
    17c8:	e28ddb01 	add	sp, sp, #1024	; 0x400
    17cc:	e8bd4ff0 	pop	{r4, r5, r6, r7, r8, r9, r10, r11, lr}
    17d0:	e12fff1e 	bx	lr
    17d4:	e59d5018 	ldr	r5, [sp, #24]
    17d8:	e59d7004 	ldr	r7, [sp, #4]
    17dc:	e0678005 	rsb	r8, r7, r5
    17e0:	e3580000 	cmp	r8, #0
    17e4:	daffff49 	ble	1510 <_vfiprintf_r+0x91c>
    17e8:	e3580010 	cmp	r8, #16
    17ec:	e59f55d0 	ldr	r5, [pc, #1488]	; 1dc4 <_vfiprintf_r+0x11d0>
    17f0:	da000021 	ble	187c <_vfiprintf_r+0xc88>
    17f4:	e28d704c 	add	r7, sp, #76	; 0x4c
    17f8:	e58d6020 	str	r6, [sp, #32]
    17fc:	e3a09010 	mov	r9, #16
    1800:	e1a06005 	mov	r6, r5
    1804:	e1a03002 	mov	r3, r2
    1808:	e1a05007 	mov	r5, r7
    180c:	e59d7014 	ldr	r7, [sp, #20]
    1810:	ea000002 	b	1820 <_vfiprintf_r+0xc2c>
    1814:	e2488010 	sub	r8, r8, #16
    1818:	e3580010 	cmp	r8, #16
    181c:	da000013 	ble	1870 <_vfiprintf_r+0xc7c>
    1820:	e2833001 	add	r3, r3, #1
    1824:	e2811010 	add	r1, r1, #16
    1828:	e3530007 	cmp	r3, #7
    182c:	e8840240 	stm	r4, {r6, r9}
    1830:	e58d1054 	str	r1, [sp, #84]	; 0x54
    1834:	e58d3050 	str	r3, [sp, #80]	; 0x50
    1838:	d2844008 	addle	r4, r4, #8
    183c:	dafffff4 	ble	1814 <_vfiprintf_r+0xc20>
    1840:	e1a00007 	mov	r0, r7
    1844:	e1a0100a 	mov	r1, r10
    1848:	e1a02005 	mov	r2, r5
    184c:	ebfffcb9 	bl	b38 <__sprint_r>
    1850:	e3500000 	cmp	r0, #0
    1854:	1affffd4 	bne	17ac <_vfiprintf_r+0xbb8>
    1858:	e2488010 	sub	r8, r8, #16
    185c:	e3580010 	cmp	r8, #16
    1860:	e59d1054 	ldr	r1, [sp, #84]	; 0x54
    1864:	e59d3050 	ldr	r3, [sp, #80]	; 0x50
    1868:	e28d40e8 	add	r4, sp, #232	; 0xe8
    186c:	caffffeb 	bgt	1820 <_vfiprintf_r+0xc2c>
    1870:	e1a05006 	mov	r5, r6
    1874:	e59d6020 	ldr	r6, [sp, #32]
    1878:	e1a02003 	mov	r2, r3
    187c:	e2822001 	add	r2, r2, #1
    1880:	e0811008 	add	r1, r1, r8
    1884:	e3520007 	cmp	r2, #7
    1888:	e8840120 	stm	r4, {r5, r8}
    188c:	e58d1054 	str	r1, [sp, #84]	; 0x54
    1890:	e58d2050 	str	r2, [sp, #80]	; 0x50
    1894:	d2844008 	addle	r4, r4, #8
    1898:	daffff1c 	ble	1510 <_vfiprintf_r+0x91c>
    189c:	e59d0014 	ldr	r0, [sp, #20]
    18a0:	e1a0100a 	mov	r1, r10
    18a4:	e28d204c 	add	r2, sp, #76	; 0x4c
    18a8:	ebfffca2 	bl	b38 <__sprint_r>
    18ac:	e3500000 	cmp	r0, #0
    18b0:	1affffbd 	bne	17ac <_vfiprintf_r+0xbb8>
    18b4:	e59d1054 	ldr	r1, [sp, #84]	; 0x54
    18b8:	e59d2050 	ldr	r2, [sp, #80]	; 0x50
    18bc:	e28d40e8 	add	r4, sp, #232	; 0xe8
    18c0:	eaffff12 	b	1510 <_vfiprintf_r+0x91c>
    18c4:	e59d0014 	ldr	r0, [sp, #20]
    18c8:	e1a0100a 	mov	r1, r10
    18cc:	e28d204c 	add	r2, sp, #76	; 0x4c
    18d0:	ebfffc98 	bl	b38 <__sprint_r>
    18d4:	e3500000 	cmp	r0, #0
    18d8:	1affffb3 	bne	17ac <_vfiprintf_r+0xbb8>
    18dc:	e59d1054 	ldr	r1, [sp, #84]	; 0x54
    18e0:	e28d40e8 	add	r4, sp, #232	; 0xe8
    18e4:	eaffff4f 	b	1628 <_vfiprintf_r+0xa34>
    18e8:	e59d0014 	ldr	r0, [sp, #20]
    18ec:	e1a0100a 	mov	r1, r10
    18f0:	e28d204c 	add	r2, sp, #76	; 0x4c
    18f4:	ebfffc8f 	bl	b38 <__sprint_r>
    18f8:	e3500000 	cmp	r0, #0
    18fc:	e28d7058 	add	r7, sp, #88	; 0x58
    1900:	0affff84 	beq	1718 <_vfiprintf_r+0xb24>
    1904:	eaffffa8 	b	17ac <_vfiprintf_r+0xbb8>
    1908:	e59d702c 	ldr	r7, [sp, #44]	; 0x2c
    190c:	e58d2008 	str	r2, [sp, #8]
    1910:	e58d7024 	str	r7, [sp, #36]	; 0x24
    1914:	eaffff92 	b	1764 <_vfiprintf_r+0xb70>
    1918:	e59d0014 	ldr	r0, [sp, #20]
    191c:	e1a0100a 	mov	r1, r10
    1920:	eb000135 	bl	1dfc <__swsetup_r>
    1924:	e3500000 	cmp	r0, #0
    1928:	01da80bc 	ldrheq	r8, [r10, #12]
    192c:	1affffa1 	bne	17b8 <_vfiprintf_r+0xbc4>
    1930:	e208301a 	and	r3, r8, #26
    1934:	e353000a 	cmp	r3, #10
    1938:	1afffcc9 	bne	c64 <_vfiprintf_r+0x70>
    193c:	e1dac0be 	ldrh	r12, [r10, #14]
    1940:	e31c0902 	tst	r12, #32768	; 0x8000
    1944:	1afffcc6 	bne	c64 <_vfiprintf_r+0x70>
    1948:	e1a02004 	mov	r2, r4
    194c:	e28dbe4e 	add	r11, sp, #1248	; 0x4e0
    1950:	e59f4470 	ldr	r4, [pc, #1136]	; 1dc8 <_vfiprintf_r+0x11d4>
    1954:	e28bb008 	add	r11, r11, #8
    1958:	e3c88002 	bic	r8, r8, #2
    195c:	e18b80b4 	strh	r8, [r11, r4]
    1960:	e59a7064 	ldr	r7, [r10, #100]	; 0x64
    1964:	e59a601c 	ldr	r6, [r10, #28]
    1968:	e59a9024 	ldr	r9, [r10, #36]	; 0x24
    196c:	e2844002 	add	r4, r4, #2
    1970:	e3a0eb01 	mov	lr, #1024	; 0x400
    1974:	e28d50e8 	add	r5, sp, #232	; 0xe8
    1978:	e18bc0b4 	strh	r12, [r11, r4]
    197c:	e59d0014 	ldr	r0, [sp, #20]
    1980:	e3a0c000 	mov	r12, #0
    1984:	e28d1080 	add	r1, sp, #128	; 0x80
    1988:	e59d301c 	ldr	r3, [sp, #28]
    198c:	e58d70e4 	str	r7, [sp, #228]	; 0xe4
    1990:	e58d609c 	str	r6, [sp, #156]	; 0x9c
    1994:	e58d90a4 	str	r9, [sp, #164]	; 0xa4
    1998:	e58d5080 	str	r5, [sp, #128]	; 0x80
    199c:	e58d5090 	str	r5, [sp, #144]	; 0x90
    19a0:	e58de088 	str	lr, [sp, #136]	; 0x88
    19a4:	e58de094 	str	lr, [sp, #148]	; 0x94
    19a8:	e58dc098 	str	r12, [sp, #152]	; 0x98
    19ac:	ebfffc90 	bl	bf4 <_vfiprintf_r>
    19b0:	e3500000 	cmp	r0, #0
    19b4:	e58d000c 	str	r0, [sp, #12]
    19b8:	ba000006 	blt	19d8 <_vfiprintf_r+0xde4>
    19bc:	e59d0014 	ldr	r0, [sp, #20]
    19c0:	e28d1080 	add	r1, sp, #128	; 0x80
    19c4:	eb000204 	bl	21dc <_fflush_r>
    19c8:	e59dc00c 	ldr	r12, [sp, #12]
    19cc:	e3500000 	cmp	r0, #0
    19d0:	13e0c000 	mvnne	r12, #0
    19d4:	e58dc00c 	str	r12, [sp, #12]
    19d8:	e59f33e8 	ldr	r3, [pc, #1000]	; 1dc8 <_vfiprintf_r+0x11d4>
    19dc:	e28d0e4e 	add	r0, sp, #1248	; 0x4e0
    19e0:	e2800008 	add	r0, r0, #8
    19e4:	e19030b3 	ldrh	r3, [r0, r3]
    19e8:	e3130040 	tst	r3, #64	; 0x40
    19ec:	11da30bc 	ldrhne	r3, [r10, #12]
    19f0:	13833040 	orrne	r3, r3, #64	; 0x40
    19f4:	11ca30bc 	strhne	r3, [r10, #12]
    19f8:	eaffff70 	b	17c0 <_vfiprintf_r+0xbcc>
    19fc:	e59d0014 	ldr	r0, [sp, #20]
    1a00:	e1a0100a 	mov	r1, r10
    1a04:	e28d204c 	add	r2, sp, #76	; 0x4c
    1a08:	ebfffc4a 	bl	b38 <__sprint_r>
    1a0c:	e3500000 	cmp	r0, #0
    1a10:	e28d7058 	add	r7, sp, #88	; 0x58
    1a14:	1affff64 	bne	17ac <_vfiprintf_r+0xbb8>
    1a18:	e28d40e8 	add	r4, sp, #232	; 0xe8
    1a1c:	eafffcb7 	b	d00 <_vfiprintf_r+0x10c>
    1a20:	e59d0014 	ldr	r0, [sp, #20]
    1a24:	e1a0100a 	mov	r1, r10
    1a28:	e28d204c 	add	r2, sp, #76	; 0x4c
    1a2c:	ebfffc41 	bl	b38 <__sprint_r>
    1a30:	e3500000 	cmp	r0, #0
    1a34:	e28d7058 	add	r7, sp, #88	; 0x58
    1a38:	1affff5b 	bne	17ac <_vfiprintf_r+0xbb8>
    1a3c:	e59d1054 	ldr	r1, [sp, #84]	; 0x54
    1a40:	e59d2050 	ldr	r2, [sp, #80]	; 0x50
    1a44:	e28d40e8 	add	r4, sp, #232	; 0xe8
    1a48:	eafffead 	b	1504 <_vfiprintf_r+0x910>
    1a4c:	e59d0014 	ldr	r0, [sp, #20]
    1a50:	e1a0100a 	mov	r1, r10
    1a54:	e28d204c 	add	r2, sp, #76	; 0x4c
    1a58:	ebfffc36 	bl	b38 <__sprint_r>
    1a5c:	e3500000 	cmp	r0, #0
    1a60:	e28d4058 	add	r4, sp, #88	; 0x58
    1a64:	1affff50 	bne	17ac <_vfiprintf_r+0xbb8>
    1a68:	e59d1054 	ldr	r1, [sp, #84]	; 0x54
    1a6c:	e59d2050 	ldr	r2, [sp, #80]	; 0x50
    1a70:	e28d40e8 	add	r4, sp, #232	; 0xe8
    1a74:	eafffe94 	b	14cc <_vfiprintf_r+0x8d8>
    1a78:	eb0002b1 	bl	2544 <__sinit>
    1a7c:	eafffc69 	b	c28 <_vfiprintf_r+0x34>
    1a80:	e59d702c 	ldr	r7, [sp, #44]	; 0x2c
    1a84:	e58d3008 	str	r3, [sp, #8]
    1a88:	e58d7024 	str	r7, [sp, #36]	; 0x24
    1a8c:	eaffff34 	b	1764 <_vfiprintf_r+0xb70>
    1a90:	e58d4004 	str	r4, [sp, #4]
    1a94:	e59d7034 	ldr	r7, [sp, #52]	; 0x34
    1a98:	e58d5008 	str	r5, [sp, #8]
    1a9c:	e3a0400f 	mov	r4, #15
    1aa0:	e1a01228 	lsr	r1, r8, #4
    1aa4:	e0082004 	and	r2, r8, r4
    1aa8:	e1811e09 	orr	r1, r1, r9, lsl #28
    1aac:	e1a03229 	lsr	r3, r9, #4
    1ab0:	e0872002 	add	r2, r7, r2
    1ab4:	e1a09003 	mov	r9, r3
    1ab8:	e1a08001 	mov	r8, r1
    1abc:	e5d22000 	ldrb	r2, [r2]
    1ac0:	e1985009 	orrs	r5, r8, r9
    1ac4:	e1a03000 	mov	r3, r0
    1ac8:	e5c02000 	strb	r2, [r0]
    1acc:	e2400001 	sub	r0, r0, #1
    1ad0:	1afffff1 	bne	1a9c <_vfiprintf_r+0xea8>
    1ad4:	e59d702c 	ldr	r7, [sp, #44]	; 0x2c
    1ad8:	e0637007 	rsb	r7, r3, r7
    1adc:	e99d0030 	ldmib	sp, {r4, r5}
    1ae0:	e58d3024 	str	r3, [sp, #36]	; 0x24
    1ae4:	e58d7008 	str	r7, [sp, #8]
    1ae8:	eaffff1d 	b	1764 <_vfiprintf_r+0xb70>
    1aec:	e3590000 	cmp	r9, #0
    1af0:	03580009 	cmpeq	r8, #9
    1af4:	9a00004a 	bls	1c24 <_vfiprintf_r+0x1030>
    1af8:	e59d7030 	ldr	r7, [sp, #48]	; 0x30
    1afc:	e98d1010 	stmib	sp, {r4, r12}
    1b00:	e1a04007 	mov	r4, r7
    1b04:	e1a00008 	mov	r0, r8
    1b08:	e1a01009 	mov	r1, r9
    1b0c:	e3a0200a 	mov	r2, #10
    1b10:	e3a03000 	mov	r3, #0
    1b14:	eb000e35 	bl	53f0 <__aeabi_uldivmod>
    1b18:	e2822030 	add	r2, r2, #48	; 0x30
    1b1c:	e5c42000 	strb	r2, [r4]
    1b20:	e1a00008 	mov	r0, r8
    1b24:	e1a01009 	mov	r1, r9
    1b28:	e3a0200a 	mov	r2, #10
    1b2c:	e3a03000 	mov	r3, #0
    1b30:	eb000e2e 	bl	53f0 <__aeabi_uldivmod>
    1b34:	e1a08000 	mov	r8, r0
    1b38:	e1a09001 	mov	r9, r1
    1b3c:	e198c009 	orrs	r12, r8, r9
    1b40:	e1a07004 	mov	r7, r4
    1b44:	e2444001 	sub	r4, r4, #1
    1b48:	1affffed 	bne	1b04 <_vfiprintf_r+0xf10>
    1b4c:	e59d302c 	ldr	r3, [sp, #44]	; 0x2c
    1b50:	e0673003 	rsb	r3, r7, r3
    1b54:	e99d1010 	ldmib	sp, {r4, r12}
    1b58:	e58d7024 	str	r7, [sp, #36]	; 0x24
    1b5c:	e58d3008 	str	r3, [sp, #8]
    1b60:	eafffeff 	b	1764 <_vfiprintf_r+0xb70>
    1b64:	e3160010 	tst	r6, #16
    1b68:	1a000038 	bne	1c50 <_vfiprintf_r+0x105c>
    1b6c:	e3160040 	tst	r6, #64	; 0x40
    1b70:	0a000036 	beq	1c50 <_vfiprintf_r+0x105c>
    1b74:	e59d701c 	ldr	r7, [sp, #28]
    1b78:	e1d720b0 	ldrh	r2, [r7]
    1b7c:	e3a09000 	mov	r9, #0
    1b80:	e1a08002 	mov	r8, r2
    1b84:	e2877004 	add	r7, r7, #4
    1b88:	e0522009 	subs	r2, r2, r9
    1b8c:	13a02001 	movne	r2, #1
    1b90:	e58d701c 	str	r7, [sp, #28]
    1b94:	e3a03001 	mov	r3, #1
    1b98:	eafffcd1 	b	ee4 <_vfiprintf_r+0x2f0>
    1b9c:	e2161010 	ands	r1, r6, #16
    1ba0:	1a000034 	bne	1c78 <_vfiprintf_r+0x1084>
    1ba4:	e2163040 	ands	r3, r6, #64	; 0x40
    1ba8:	0a000032 	beq	1c78 <_vfiprintf_r+0x1084>
    1bac:	e59d701c 	ldr	r7, [sp, #28]
    1bb0:	e1d720b0 	ldrh	r2, [r7]
    1bb4:	e3a09000 	mov	r9, #0
    1bb8:	e1a08002 	mov	r8, r2
    1bbc:	e2877004 	add	r7, r7, #4
    1bc0:	e0522009 	subs	r2, r2, r9
    1bc4:	13a02001 	movne	r2, #1
    1bc8:	e58d701c 	str	r7, [sp, #28]
    1bcc:	e1a03001 	mov	r3, r1
    1bd0:	eafffcc3 	b	ee4 <_vfiprintf_r+0x2f0>
    1bd4:	e1980009 	orrs	r0, r8, r9
    1bd8:	13a02030 	movne	r2, #48	; 0x30
    1bdc:	15cd2048 	strbne	r2, [sp, #72]	; 0x48
    1be0:	15cd3049 	strbne	r3, [sp, #73]	; 0x49
    1be4:	13866002 	orrne	r6, r6, #2
    1be8:	13a02001 	movne	r2, #1
    1bec:	03a02000 	moveq	r2, #0
    1bf0:	e3a03002 	mov	r3, #2
    1bf4:	eafffcba 	b	ee4 <_vfiprintf_r+0x2f0>
    1bf8:	e5db3000 	ldrb	r3, [r11]
    1bfc:	e58d201c 	str	r2, [sp, #28]
    1c00:	eafffc4c 	b	d38 <_vfiprintf_r+0x144>
    1c04:	e59d0014 	ldr	r0, [sp, #20]
    1c08:	e1a0100a 	mov	r1, r10
    1c0c:	e28d204c 	add	r2, sp, #76	; 0x4c
    1c10:	ebfffbc8 	bl	b38 <__sprint_r>
    1c14:	e3500000 	cmp	r0, #0
    1c18:	1afffee3 	bne	17ac <_vfiprintf_r+0xbb8>
    1c1c:	e59d1054 	ldr	r1, [sp, #84]	; 0x54
    1c20:	eafffeb3 	b	16f4 <_vfiprintf_r+0xb00>
    1c24:	e59d703c 	ldr	r7, [sp, #60]	; 0x3c
    1c28:	e58d7008 	str	r7, [sp, #8]
    1c2c:	e59d7030 	ldr	r7, [sp, #48]	; 0x30
    1c30:	e2888030 	add	r8, r8, #48	; 0x30
    1c34:	e5cd807f 	strb	r8, [sp, #127]	; 0x7f
    1c38:	e58d7024 	str	r7, [sp, #36]	; 0x24
    1c3c:	eafffec8 	b	1764 <_vfiprintf_r+0xb70>
    1c40:	e59d702c 	ldr	r7, [sp, #44]	; 0x2c
    1c44:	e0633007 	rsb	r3, r3, r7
    1c48:	e58d3008 	str	r3, [sp, #8]
    1c4c:	eafffec4 	b	1764 <_vfiprintf_r+0xb70>
    1c50:	e59d501c 	ldr	r5, [sp, #28]
    1c54:	e5952000 	ldr	r2, [r5]
    1c58:	e3a09000 	mov	r9, #0
    1c5c:	e1a08002 	mov	r8, r2
    1c60:	e2855004 	add	r5, r5, #4
    1c64:	e0522009 	subs	r2, r2, r9
    1c68:	13a02001 	movne	r2, #1
    1c6c:	e58d501c 	str	r5, [sp, #28]
    1c70:	e3a03001 	mov	r3, #1
    1c74:	eafffc9a 	b	ee4 <_vfiprintf_r+0x2f0>
    1c78:	e59d501c 	ldr	r5, [sp, #28]
    1c7c:	e5952000 	ldr	r2, [r5]
    1c80:	e3a09000 	mov	r9, #0
    1c84:	e1a08002 	mov	r8, r2
    1c88:	e2855004 	add	r5, r5, #4
    1c8c:	e0522009 	subs	r2, r2, r9
    1c90:	13a02001 	movne	r2, #1
    1c94:	e58d501c 	str	r5, [sp, #28]
    1c98:	eafffc91 	b	ee4 <_vfiprintf_r+0x2f0>
    1c9c:	e59d501c 	ldr	r5, [sp, #28]
    1ca0:	e5952000 	ldr	r2, [r5]
    1ca4:	e2855004 	add	r5, r5, #4
    1ca8:	e1a08002 	mov	r8, r2
    1cac:	e3a09000 	mov	r9, #0
    1cb0:	e58d501c 	str	r5, [sp, #28]
    1cb4:	eafffd94 	b	130c <_vfiprintf_r+0x718>
    1cb8:	e59d701c 	ldr	r7, [sp, #28]
    1cbc:	e5973000 	ldr	r3, [r7]
    1cc0:	e1a09fc3 	asr	r9, r3, #31
    1cc4:	e1a02003 	mov	r2, r3
    1cc8:	e1a08003 	mov	r8, r3
    1ccc:	e1a03009 	mov	r3, r9
    1cd0:	e2877004 	add	r7, r7, #4
    1cd4:	e3520000 	cmp	r2, #0
    1cd8:	e2d30000 	sbcs	r0, r3, #0
    1cdc:	e58d701c 	str	r7, [sp, #28]
    1ce0:	aafffd20 	bge	1168 <_vfiprintf_r+0x574>
    1ce4:	e2788000 	rsbs	r8, r8, #0
    1ce8:	e2e99000 	rsc	r9, r9, #0
    1cec:	e3a0502d 	mov	r5, #45	; 0x2d
    1cf0:	e1982009 	orrs	r2, r8, r9
    1cf4:	e5cd5047 	strb	r5, [sp, #71]	; 0x47
    1cf8:	03a02000 	moveq	r2, #0
    1cfc:	13a02001 	movne	r2, #1
    1d00:	e3a03001 	mov	r3, #1
    1d04:	eafffc78 	b	eec <_vfiprintf_r+0x2f8>
    1d08:	e59d501c 	ldr	r5, [sp, #28]
    1d0c:	e59d200c 	ldr	r2, [sp, #12]
    1d10:	e5953000 	ldr	r3, [r5]
    1d14:	e1a01fc2 	asr	r1, r2, #31
    1d18:	e2855004 	add	r5, r5, #4
    1d1c:	e5832000 	str	r2, [r3]
    1d20:	e5831004 	str	r1, [r3, #4]
    1d24:	e58d501c 	str	r5, [sp, #28]
    1d28:	eafffbdc 	b	ca0 <_vfiprintf_r+0xac>
    1d2c:	e59d601c 	ldr	r6, [sp, #28]
    1d30:	e59d700c 	ldr	r7, [sp, #12]
    1d34:	e5963000 	ldr	r3, [r6]
    1d38:	e2866004 	add	r6, r6, #4
    1d3c:	e58d601c 	str	r6, [sp, #28]
    1d40:	e5837000 	str	r7, [r3]
    1d44:	eafffbd5 	b	ca0 <_vfiprintf_r+0xac>
    1d48:	eb000bc6 	bl	4c68 <strlen>
    1d4c:	e5dd5047 	ldrb	r5, [sp, #71]	; 0x47
    1d50:	e58d0008 	str	r0, [sp, #8]
    1d54:	e58d801c 	str	r8, [sp, #28]
    1d58:	eafffce7 	b	10fc <_vfiprintf_r+0x508>
    1d5c:	e35c0006 	cmp	r12, #6
    1d60:	23a0c006 	movcs	r12, #6
    1d64:	e1cc7fcc 	bic	r7, r12, r12, asr #31
    1d68:	e58dc008 	str	r12, [sp, #8]
    1d6c:	e59fc058 	ldr	r12, [pc, #88]	; 1dcc <_vfiprintf_r+0x11d8>
    1d70:	e58d7004 	str	r7, [sp, #4]
    1d74:	e58d801c 	str	r8, [sp, #28]
    1d78:	e58dc024 	str	r12, [sp, #36]	; 0x24
    1d7c:	eafffd0c 	b	11b4 <_vfiprintf_r+0x5c0>
    1d80:	e5dd5047 	ldrb	r5, [sp, #71]	; 0x47
    1d84:	e58d801c 	str	r8, [sp, #28]
    1d88:	e58dc008 	str	r12, [sp, #8]
    1d8c:	e58d0010 	str	r0, [sp, #16]
    1d90:	eafffe74 	b	1768 <_vfiprintf_r+0xb74>
    1d94:	e59d501c 	ldr	r5, [sp, #28]
    1d98:	e595c000 	ldr	r12, [r5]
    1d9c:	e2852004 	add	r2, r5, #4
    1da0:	e35c0000 	cmp	r12, #0
    1da4:	e5db3001 	ldrb	r3, [r11, #1]
    1da8:	e58d201c 	str	r2, [sp, #28]
    1dac:	e1a0b000 	mov	r11, r0
    1db0:	b3e0c000 	mvnlt	r12, #0
    1db4:	eafffbdf 	b	d38 <_vfiprintf_r+0x144>
    1db8:	0000e4c8 	.word	0x0000e4c8
    1dbc:	0000e494 	.word	0x0000e494
    1dc0:	0000e4b4 	.word	0x0000e4b4
    1dc4:	0000e4a4 	.word	0x0000e4a4
    1dc8:	fffffba4 	.word	0xfffffba4
    1dcc:	0000e4dc 	.word	0x0000e4dc

00001dd0 <vfiprintf>:
    1dd0:	e52d4004 	push	{r4}		; (str r4, [sp, #-4]!)
    1dd4:	e1a03002 	mov	r3, r2
    1dd8:	e59f2018 	ldr	r2, [pc, #24]	; 1df8 <vfiprintf+0x28>
    1ddc:	e1a04000 	mov	r4, r0
    1de0:	e1a0c001 	mov	r12, r1
    1de4:	e5920000 	ldr	r0, [r2]
    1de8:	e1a01004 	mov	r1, r4
    1dec:	e1a0200c 	mov	r2, r12
    1df0:	e8bd0010 	ldmfd	sp!, {r4}
    1df4:	eafffb7e 	b	bf4 <_vfiprintf_r>
    1df8:	0000e550 	.word	0x0000e550

00001dfc <__swsetup_r>:
    1dfc:	e92d4038 	push	{r3, r4, r5, lr}
    1e00:	e59f3128 	ldr	r3, [pc, #296]	; 1f30 <__swsetup_r+0x134>
    1e04:	e5933000 	ldr	r3, [r3]
    1e08:	e3530000 	cmp	r3, #0
    1e0c:	e1a05000 	mov	r5, r0
    1e10:	e1a04001 	mov	r4, r1
    1e14:	0a000002 	beq	1e24 <__swsetup_r+0x28>
    1e18:	e5932038 	ldr	r2, [r3, #56]	; 0x38
    1e1c:	e3520000 	cmp	r2, #0
    1e20:	0a00002e 	beq	1ee0 <__swsetup_r+0xe4>
    1e24:	e1d430bc 	ldrh	r3, [r4, #12]
    1e28:	e3130008 	tst	r3, #8
    1e2c:	e1a02003 	mov	r2, r3
    1e30:	0a00000c 	beq	1e68 <__swsetup_r+0x6c>
    1e34:	e5942010 	ldr	r2, [r4, #16]
    1e38:	e3520000 	cmp	r2, #0
    1e3c:	0a000012 	beq	1e8c <__swsetup_r+0x90>
    1e40:	e2131001 	ands	r1, r3, #1
    1e44:	1a000019 	bne	1eb0 <__swsetup_r+0xb4>
    1e48:	e3130002 	tst	r3, #2
    1e4c:	05941014 	ldreq	r1, [r4, #20]
    1e50:	e3520000 	cmp	r2, #0
    1e54:	e5841008 	str	r1, [r4, #8]
    1e58:	0a00001b 	beq	1ecc <__swsetup_r+0xd0>
    1e5c:	e3a00000 	mov	r0, #0
    1e60:	e8bd4038 	pop	{r3, r4, r5, lr}
    1e64:	e12fff1e 	bx	lr
    1e68:	e3130010 	tst	r3, #16
    1e6c:	0a000019 	beq	1ed8 <__swsetup_r+0xdc>
    1e70:	e3120004 	tst	r2, #4
    1e74:	1a00001c 	bne	1eec <__swsetup_r+0xf0>
    1e78:	e5942010 	ldr	r2, [r4, #16]
    1e7c:	e3833008 	orr	r3, r3, #8
    1e80:	e3520000 	cmp	r2, #0
    1e84:	e1c430bc 	strh	r3, [r4, #12]
    1e88:	1affffec 	bne	1e40 <__swsetup_r+0x44>
    1e8c:	e2031d0a 	and	r1, r3, #640	; 0x280
    1e90:	e3510c02 	cmp	r1, #512	; 0x200
    1e94:	0affffe9 	beq	1e40 <__swsetup_r+0x44>
    1e98:	e1a00005 	mov	r0, r5
    1e9c:	e1a01004 	mov	r1, r4
    1ea0:	eb000515 	bl	32fc <__smakebuf_r>
    1ea4:	e1d430bc 	ldrh	r3, [r4, #12]
    1ea8:	e5942010 	ldr	r2, [r4, #16]
    1eac:	eaffffe3 	b	1e40 <__swsetup_r+0x44>
    1eb0:	e5943014 	ldr	r3, [r4, #20]
    1eb4:	e3a01000 	mov	r1, #0
    1eb8:	e2633000 	rsb	r3, r3, #0
    1ebc:	e3520000 	cmp	r2, #0
    1ec0:	e5841008 	str	r1, [r4, #8]
    1ec4:	e5843018 	str	r3, [r4, #24]
    1ec8:	1affffe3 	bne	1e5c <__swsetup_r+0x60>
    1ecc:	e1d430bc 	ldrh	r3, [r4, #12]
    1ed0:	e3130080 	tst	r3, #128	; 0x80
    1ed4:	0affffe0 	beq	1e5c <__swsetup_r+0x60>
    1ed8:	e3e00000 	mvn	r0, #0
    1edc:	eaffffdf 	b	1e60 <__swsetup_r+0x64>
    1ee0:	e1a00003 	mov	r0, r3
    1ee4:	eb000196 	bl	2544 <__sinit>
    1ee8:	eaffffcd 	b	1e24 <__swsetup_r+0x28>
    1eec:	e5941030 	ldr	r1, [r4, #48]	; 0x30
    1ef0:	e3510000 	cmp	r1, #0
    1ef4:	0a000007 	beq	1f18 <__swsetup_r+0x11c>
    1ef8:	e2842040 	add	r2, r4, #64	; 0x40
    1efc:	e1510002 	cmp	r1, r2
    1f00:	0a000002 	beq	1f10 <__swsetup_r+0x114>
    1f04:	e1a00005 	mov	r0, r5
    1f08:	eb0002b6 	bl	29e8 <_free_r>
    1f0c:	e1d430bc 	ldrh	r3, [r4, #12]
    1f10:	e3a02000 	mov	r2, #0
    1f14:	e5842030 	str	r2, [r4, #48]	; 0x30
    1f18:	e5942010 	ldr	r2, [r4, #16]
    1f1c:	e3a01000 	mov	r1, #0
    1f20:	e3c33024 	bic	r3, r3, #36	; 0x24
    1f24:	e5841004 	str	r1, [r4, #4]
    1f28:	e5842000 	str	r2, [r4]
    1f2c:	eaffffd2 	b	1e7c <__swsetup_r+0x80>
    1f30:	0000e550 	.word	0x0000e550

00001f34 <__register_exitproc>:
    1f34:	e59fc0e4 	ldr	r12, [pc, #228]	; 2020 <__register_exitproc+0xec>
    1f38:	e92d41f0 	push	{r4, r5, r6, r7, r8, lr}
    1f3c:	e59c4000 	ldr	r4, [r12]
    1f40:	e594c148 	ldr	r12, [r4, #328]	; 0x148
    1f44:	e35c0000 	cmp	r12, #0
    1f48:	0284cf53 	addeq	r12, r4, #332	; 0x14c
    1f4c:	e59c5004 	ldr	r5, [r12, #4]
    1f50:	0584c148 	streq	r12, [r4, #328]	; 0x148
    1f54:	e355001f 	cmp	r5, #31
    1f58:	e24dd010 	sub	sp, sp, #16
    1f5c:	e1a06000 	mov	r6, r0
    1f60:	da000015 	ble	1fbc <__register_exitproc+0x88>
    1f64:	e59f00b8 	ldr	r0, [pc, #184]	; 2024 <__register_exitproc+0xf0>
    1f68:	e3500000 	cmp	r0, #0
    1f6c:	1a000001 	bne	1f78 <__register_exitproc+0x44>
    1f70:	e3e00000 	mvn	r0, #0
    1f74:	ea000018 	b	1fdc <__register_exitproc+0xa8>
    1f78:	e3a00e19 	mov	r0, #400	; 0x190
    1f7c:	e58d100c 	str	r1, [sp, #12]
    1f80:	e58d2008 	str	r2, [sp, #8]
    1f84:	e58d3004 	str	r3, [sp, #4]
    1f88:	e320f000 	nop	{0}
    1f8c:	e250c000 	subs	r12, r0, #0
    1f90:	e59d100c 	ldr	r1, [sp, #12]
    1f94:	e59d2008 	ldr	r2, [sp, #8]
    1f98:	e59d3004 	ldr	r3, [sp, #4]
    1f9c:	0afffff3 	beq	1f70 <__register_exitproc+0x3c>
    1fa0:	e5945148 	ldr	r5, [r4, #328]	; 0x148
    1fa4:	e3a00000 	mov	r0, #0
    1fa8:	e58c0004 	str	r0, [r12, #4]
    1fac:	e58c5000 	str	r5, [r12]
    1fb0:	e584c148 	str	r12, [r4, #328]	; 0x148
    1fb4:	e58c0188 	str	r0, [r12, #392]	; 0x188
    1fb8:	e58c018c 	str	r0, [r12, #396]	; 0x18c
    1fbc:	e3560000 	cmp	r6, #0
    1fc0:	e59c4004 	ldr	r4, [r12, #4]
    1fc4:	1a000007 	bne	1fe8 <__register_exitproc+0xb4>
    1fc8:	e2843002 	add	r3, r4, #2
    1fcc:	e2844001 	add	r4, r4, #1
    1fd0:	e78c1103 	str	r1, [r12, r3, lsl #2]
    1fd4:	e58c4004 	str	r4, [r12, #4]
    1fd8:	e3a00000 	mov	r0, #0
    1fdc:	e28dd010 	add	sp, sp, #16
    1fe0:	e8bd41f0 	pop	{r4, r5, r6, r7, r8, lr}
    1fe4:	e12fff1e 	bx	lr
    1fe8:	e3a00001 	mov	r0, #1
    1fec:	e1a00410 	lsl	r0, r0, r4
    1ff0:	e08c8104 	add	r8, r12, r4, lsl #2
    1ff4:	e3560002 	cmp	r6, #2
    1ff8:	e59c7188 	ldr	r7, [r12, #392]	; 0x188
    1ffc:	e5883108 	str	r3, [r8, #264]	; 0x108
    2000:	059c318c 	ldreq	r3, [r12, #396]	; 0x18c
    2004:	e1877000 	orr	r7, r7, r0
    2008:	01830000 	orreq	r0, r3, r0
    200c:	e1a05008 	mov	r5, r8
    2010:	e5882088 	str	r2, [r8, #136]	; 0x88
    2014:	e58c7188 	str	r7, [r12, #392]	; 0x188
    2018:	058c018c 	streq	r0, [r12, #396]	; 0x18c
    201c:	eaffffe9 	b	1fc8 <__register_exitproc+0x94>
    2020:	0000e48c 	.word	0x0000e48c
    2024:	00000000 	.word	0x00000000

00002028 <__call_exitprocs>:
    2028:	e92d4ff0 	push	{r4, r5, r6, r7, r8, r9, r10, r11, lr}
    202c:	e59f3168 	ldr	r3, [pc, #360]	; 219c <__call_exitprocs+0x174>
    2030:	e5933000 	ldr	r3, [r3]
    2034:	e24dd014 	sub	sp, sp, #20
    2038:	e58d3004 	str	r3, [sp, #4]
    203c:	e2833f52 	add	r3, r3, #328	; 0x148
    2040:	e58d0008 	str	r0, [sp, #8]
    2044:	e58d300c 	str	r3, [sp, #12]
    2048:	e1a07001 	mov	r7, r1
    204c:	e3a08001 	mov	r8, #1
    2050:	e59d3004 	ldr	r3, [sp, #4]
    2054:	e5936148 	ldr	r6, [r3, #328]	; 0x148
    2058:	e3560000 	cmp	r6, #0
    205c:	e59db00c 	ldr	r11, [sp, #12]
    2060:	0a000033 	beq	2134 <__call_exitprocs+0x10c>
    2064:	e5965004 	ldr	r5, [r6, #4]
    2068:	e2554001 	subs	r4, r5, #1
    206c:	5286a088 	addpl	r10, r6, #136	; 0x88
    2070:	5285501f 	addpl	r5, r5, #31
    2074:	508a5105 	addpl	r5, r10, r5, lsl #2
    2078:	5a000007 	bpl	209c <__call_exitprocs+0x74>
    207c:	ea000029 	b	2128 <__call_exitprocs+0x100>
    2080:	e5953000 	ldr	r3, [r5]
    2084:	e1530007 	cmp	r3, r7
    2088:	0a000005 	beq	20a4 <__call_exitprocs+0x7c>
    208c:	e2444001 	sub	r4, r4, #1
    2090:	e3740001 	cmn	r4, #1
    2094:	e2455004 	sub	r5, r5, #4
    2098:	0a000022 	beq	2128 <__call_exitprocs+0x100>
    209c:	e3570000 	cmp	r7, #0
    20a0:	1afffff6 	bne	2080 <__call_exitprocs+0x58>
    20a4:	e5963004 	ldr	r3, [r6, #4]
    20a8:	e06a2005 	rsb	r2, r10, r5
    20ac:	e2433001 	sub	r3, r3, #1
    20b0:	e0862002 	add	r2, r6, r2
    20b4:	e1530004 	cmp	r3, r4
    20b8:	e5123078 	ldr	r3, [r2, #-120]	; 0xffffff88
    20bc:	13a01000 	movne	r1, #0
    20c0:	05864004 	streq	r4, [r6, #4]
    20c4:	15021078 	strne	r1, [r2, #-120]	; 0xffffff88
    20c8:	e3530000 	cmp	r3, #0
    20cc:	0affffee 	beq	208c <__call_exitprocs+0x64>
    20d0:	e1a02418 	lsl	r2, r8, r4
    20d4:	e5961188 	ldr	r1, [r6, #392]	; 0x188
    20d8:	e1120001 	tst	r2, r1
    20dc:	e5969004 	ldr	r9, [r6, #4]
    20e0:	0a000016 	beq	2140 <__call_exitprocs+0x118>
    20e4:	e596118c 	ldr	r1, [r6, #396]	; 0x18c
    20e8:	e1120001 	tst	r2, r1
    20ec:	1a000016 	bne	214c <__call_exitprocs+0x124>
    20f0:	e59d0008 	ldr	r0, [sp, #8]
    20f4:	e5151080 	ldr	r1, [r5, #-128]	; 0xffffff80
    20f8:	e1a0e00f 	mov	lr, pc
    20fc:	e12fff13 	bx	r3
    2100:	e5963004 	ldr	r3, [r6, #4]
    2104:	e1530009 	cmp	r3, r9
    2108:	1affffd0 	bne	2050 <__call_exitprocs+0x28>
    210c:	e59b3000 	ldr	r3, [r11]
    2110:	e1530006 	cmp	r3, r6
    2114:	1affffcd 	bne	2050 <__call_exitprocs+0x28>
    2118:	e2444001 	sub	r4, r4, #1
    211c:	e3740001 	cmn	r4, #1
    2120:	e2455004 	sub	r5, r5, #4
    2124:	1affffdc 	bne	209c <__call_exitprocs+0x74>
    2128:	e59f1070 	ldr	r1, [pc, #112]	; 21a0 <__call_exitprocs+0x178>
    212c:	e3510000 	cmp	r1, #0
    2130:	1a000009 	bne	215c <__call_exitprocs+0x134>
    2134:	e28dd014 	add	sp, sp, #20
    2138:	e8bd4ff0 	pop	{r4, r5, r6, r7, r8, r9, r10, r11, lr}
    213c:	e12fff1e 	bx	lr
    2140:	e1a0e00f 	mov	lr, pc
    2144:	e12fff13 	bx	r3
    2148:	eaffffec 	b	2100 <__call_exitprocs+0xd8>
    214c:	e5150080 	ldr	r0, [r5, #-128]	; 0xffffff80
    2150:	e1a0e00f 	mov	lr, pc
    2154:	e12fff13 	bx	r3
    2158:	eaffffe8 	b	2100 <__call_exitprocs+0xd8>
    215c:	e5963004 	ldr	r3, [r6, #4]
    2160:	e3530000 	cmp	r3, #0
    2164:	e5963000 	ldr	r3, [r6]
    2168:	1a000008 	bne	2190 <__call_exitprocs+0x168>
    216c:	e3530000 	cmp	r3, #0
    2170:	0a000006 	beq	2190 <__call_exitprocs+0x168>
    2174:	e1a00006 	mov	r0, r6
    2178:	e58b3000 	str	r3, [r11]
    217c:	e320f000 	nop	{0}
    2180:	e59b6000 	ldr	r6, [r11]
    2184:	e3560000 	cmp	r6, #0
    2188:	1affffb5 	bne	2064 <__call_exitprocs+0x3c>
    218c:	eaffffe8 	b	2134 <__call_exitprocs+0x10c>
    2190:	e1a0b006 	mov	r11, r6
    2194:	e1a06003 	mov	r6, r3
    2198:	eafffff9 	b	2184 <__call_exitprocs+0x15c>
    219c:	0000e48c 	.word	0x0000e48c
    21a0:	00000000 	.word	0x00000000

000021a4 <register_fini>:
    21a4:	e92d4008 	push	{r3, lr}
    21a8:	e59f3010 	ldr	r3, [pc, #16]	; 21c0 <register_fini+0x1c>
    21ac:	e3530000 	cmp	r3, #0
    21b0:	159f000c 	ldrne	r0, [pc, #12]	; 21c4 <register_fini+0x20>
    21b4:	1bfffa2e 	blne	a74 <atexit>
    21b8:	e8bd4008 	pop	{r3, lr}
    21bc:	e12fff1e 	bx	lr
    21c0:	0000e518 	.word	0x0000e518
    21c4:	0000270c 	.word	0x0000270c

000021c8 <abort>:
    21c8:	e92d4008 	push	{r3, lr}
    21cc:	e3a00006 	mov	r0, #6
    21d0:	eb0009b8 	bl	48b8 <raise>
    21d4:	e3a00001 	mov	r0, #1
    21d8:	eb000f9b 	bl	604c <_exit>

000021dc <_fflush_r>:
    21dc:	e92d40f8 	push	{r3, r4, r5, r6, r7, lr}
    21e0:	e2507000 	subs	r7, r0, #0
    21e4:	e1a04001 	mov	r4, r1
    21e8:	0a000002 	beq	21f8 <_fflush_r+0x1c>
    21ec:	e5973038 	ldr	r3, [r7, #56]	; 0x38
    21f0:	e3530000 	cmp	r3, #0
    21f4:	0a000059 	beq	2360 <_fflush_r+0x184>
    21f8:	e1d420bc 	ldrh	r2, [r4, #12]
    21fc:	e3520000 	cmp	r2, #0
    2200:	0a000023 	beq	2294 <_fflush_r+0xb8>
    2204:	e3120008 	tst	r2, #8
    2208:	0a000024 	beq	22a0 <_fflush_r+0xc4>
    220c:	e5946010 	ldr	r6, [r4, #16]
    2210:	e3560000 	cmp	r6, #0
    2214:	0a00001e 	beq	2294 <_fflush_r+0xb8>
    2218:	e5945000 	ldr	r5, [r4]
    221c:	e3120003 	tst	r2, #3
    2220:	05943014 	ldreq	r3, [r4, #20]
    2224:	e0665005 	rsb	r5, r6, r5
    2228:	13a03000 	movne	r3, #0
    222c:	e3550000 	cmp	r5, #0
    2230:	e5846000 	str	r6, [r4]
    2234:	e5843008 	str	r3, [r4, #8]
    2238:	ca000003 	bgt	224c <_fflush_r+0x70>
    223c:	ea000014 	b	2294 <_fflush_r+0xb8>
    2240:	e3550000 	cmp	r5, #0
    2244:	e0866000 	add	r6, r6, r0
    2248:	da000011 	ble	2294 <_fflush_r+0xb8>
    224c:	e1a03005 	mov	r3, r5
    2250:	e1a02006 	mov	r2, r6
    2254:	e1a00007 	mov	r0, r7
    2258:	e594101c 	ldr	r1, [r4, #28]
    225c:	e594c024 	ldr	r12, [r4, #36]	; 0x24
    2260:	e1a0e00f 	mov	lr, pc
    2264:	e12fff1c 	bx	r12
    2268:	e3500000 	cmp	r0, #0
    226c:	e0605005 	rsb	r5, r0, r5
    2270:	cafffff2 	bgt	2240 <_fflush_r+0x64>
    2274:	e1d430bc 	ldrh	r3, [r4, #12]
    2278:	e3833040 	orr	r3, r3, #64	; 0x40
    227c:	e1c430bc 	strh	r3, [r4, #12]
    2280:	e3e00000 	mvn	r0, #0
    2284:	ea000003 	b	2298 <_fflush_r+0xbc>
    2288:	e594103c 	ldr	r1, [r4, #60]	; 0x3c
    228c:	e3510000 	cmp	r1, #0
    2290:	ca000007 	bgt	22b4 <_fflush_r+0xd8>
    2294:	e3a00000 	mov	r0, #0
    2298:	e8bd40f8 	pop	{r3, r4, r5, r6, r7, lr}
    229c:	e12fff1e 	bx	lr
    22a0:	e5941004 	ldr	r1, [r4, #4]
    22a4:	e3823b02 	orr	r3, r2, #2048	; 0x800
    22a8:	e3510000 	cmp	r1, #0
    22ac:	e1c430bc 	strh	r3, [r4, #12]
    22b0:	dafffff4 	ble	2288 <_fflush_r+0xac>
    22b4:	e594c028 	ldr	r12, [r4, #40]	; 0x28
    22b8:	e35c0000 	cmp	r12, #0
    22bc:	0afffff4 	beq	2294 <_fflush_r+0xb8>
    22c0:	e3a01000 	mov	r1, #0
    22c4:	e2126a01 	ands	r6, r2, #4096	; 0x1000
    22c8:	e5975000 	ldr	r5, [r7]
    22cc:	e5871000 	str	r1, [r7]
    22d0:	0a000024 	beq	2368 <_fflush_r+0x18c>
    22d4:	e5942050 	ldr	r2, [r4, #80]	; 0x50
    22d8:	e3130004 	tst	r3, #4
    22dc:	0a000005 	beq	22f8 <_fflush_r+0x11c>
    22e0:	e5941030 	ldr	r1, [r4, #48]	; 0x30
    22e4:	e5943004 	ldr	r3, [r4, #4]
    22e8:	e3510000 	cmp	r1, #0
    22ec:	e0632002 	rsb	r2, r3, r2
    22f0:	1594303c 	ldrne	r3, [r4, #60]	; 0x3c
    22f4:	10632002 	rsbne	r2, r3, r2
    22f8:	e1a00007 	mov	r0, r7
    22fc:	e594101c 	ldr	r1, [r4, #28]
    2300:	e3a03000 	mov	r3, #0
    2304:	e1a0e00f 	mov	lr, pc
    2308:	e12fff1c 	bx	r12
    230c:	e3700001 	cmn	r0, #1
    2310:	0a000020 	beq	2398 <_fflush_r+0x1bc>
    2314:	e1d430bc 	ldrh	r3, [r4, #12]
    2318:	e5942010 	ldr	r2, [r4, #16]
    231c:	e3c31b02 	bic	r1, r3, #2048	; 0x800
    2320:	e3130a01 	tst	r3, #4096	; 0x1000
    2324:	e3a03000 	mov	r3, #0
    2328:	e1c410bc 	strh	r1, [r4, #12]
    232c:	e884000c 	stm	r4, {r2, r3}
    2330:	1a000028 	bne	23d8 <_fflush_r+0x1fc>
    2334:	e5941030 	ldr	r1, [r4, #48]	; 0x30
    2338:	e3510000 	cmp	r1, #0
    233c:	e5875000 	str	r5, [r7]
    2340:	0affffd3 	beq	2294 <_fflush_r+0xb8>
    2344:	e2843040 	add	r3, r4, #64	; 0x40
    2348:	e1510003 	cmp	r1, r3
    234c:	11a00007 	movne	r0, r7
    2350:	1b0001a4 	blne	29e8 <_free_r>
    2354:	e3a00000 	mov	r0, #0
    2358:	e5840030 	str	r0, [r4, #48]	; 0x30
    235c:	eaffffcd 	b	2298 <_fflush_r+0xbc>
    2360:	eb000077 	bl	2544 <__sinit>
    2364:	eaffffa3 	b	21f8 <_fflush_r+0x1c>
    2368:	e1a02006 	mov	r2, r6
    236c:	e1a00007 	mov	r0, r7
    2370:	e594101c 	ldr	r1, [r4, #28]
    2374:	e3a03001 	mov	r3, #1
    2378:	e1a0e00f 	mov	lr, pc
    237c:	e12fff1c 	bx	r12
    2380:	e3700001 	cmn	r0, #1
    2384:	e1a02000 	mov	r2, r0
    2388:	0a000014 	beq	23e0 <_fflush_r+0x204>
    238c:	e1d430bc 	ldrh	r3, [r4, #12]
    2390:	e594c028 	ldr	r12, [r4, #40]	; 0x28
    2394:	eaffffcf 	b	22d8 <_fflush_r+0xfc>
    2398:	e597c000 	ldr	r12, [r7]
    239c:	e35c001d 	cmp	r12, #29
    23a0:	8affffb3 	bhi	2274 <_fflush_r+0x98>
    23a4:	e59f3058 	ldr	r3, [pc, #88]	; 2404 <_fflush_r+0x228>
    23a8:	e1b03c13 	lsls	r3, r3, r12
    23ac:	5affffb0 	bpl	2274 <_fflush_r+0x98>
    23b0:	e1d430bc 	ldrh	r3, [r4, #12]
    23b4:	e5942010 	ldr	r2, [r4, #16]
    23b8:	e3c31b02 	bic	r1, r3, #2048	; 0x800
    23bc:	e3130a01 	tst	r3, #4096	; 0x1000
    23c0:	e3a03000 	mov	r3, #0
    23c4:	e1c410bc 	strh	r1, [r4, #12]
    23c8:	e884000c 	stm	r4, {r2, r3}
    23cc:	0affffd8 	beq	2334 <_fflush_r+0x158>
    23d0:	e35c0000 	cmp	r12, #0
    23d4:	1affffd6 	bne	2334 <_fflush_r+0x158>
    23d8:	e5840050 	str	r0, [r4, #80]	; 0x50
    23dc:	eaffffd4 	b	2334 <_fflush_r+0x158>
    23e0:	e5973000 	ldr	r3, [r7]
    23e4:	e3530000 	cmp	r3, #0
    23e8:	0affffe7 	beq	238c <_fflush_r+0x1b0>
    23ec:	e353001d 	cmp	r3, #29
    23f0:	13530016 	cmpne	r3, #22
    23f4:	05875000 	streq	r5, [r7]
    23f8:	01a00006 	moveq	r0, r6
    23fc:	0affffa5 	beq	2298 <_fflush_r+0xbc>
    2400:	eaffff9b 	b	2274 <_fflush_r+0x98>
    2404:	80000204 	.word	0x80000204

00002408 <fflush>:
    2408:	e2501000 	subs	r1, r0, #0
    240c:	e92d4008 	push	{r3, lr}
    2410:	0a000003 	beq	2424 <fflush+0x1c>
    2414:	e59f3020 	ldr	r3, [pc, #32]	; 243c <fflush+0x34>
    2418:	e5930000 	ldr	r0, [r3]
    241c:	e8bd4008 	pop	{r3, lr}
    2420:	eaffff6d 	b	21dc <_fflush_r>
    2424:	e59f3014 	ldr	r3, [pc, #20]	; 2440 <fflush+0x38>
    2428:	e59f1014 	ldr	r1, [pc, #20]	; 2444 <fflush+0x3c>
    242c:	e5930000 	ldr	r0, [r3]
    2430:	eb00035a 	bl	31a0 <_fwalk_reent>
    2434:	e8bd4008 	pop	{r3, lr}
    2438:	e12fff1e 	bx	lr
    243c:	0000e550 	.word	0x0000e550
    2440:	0000e48c 	.word	0x0000e48c
    2444:	000021dc 	.word	0x000021dc

00002448 <__fp_lock>:
    2448:	e3a00000 	mov	r0, #0
    244c:	e12fff1e 	bx	lr

00002450 <__fp_unlock>:
    2450:	e3a00000 	mov	r0, #0
    2454:	e12fff1e 	bx	lr

00002458 <_cleanup_r>:
    2458:	e92d4008 	push	{r3, lr}
    245c:	e59f1008 	ldr	r1, [pc, #8]	; 246c <_cleanup_r+0x14>
    2460:	eb00032c 	bl	3118 <_fwalk>
    2464:	e8bd4008 	pop	{r3, lr}
    2468:	e12fff1e 	bx	lr
    246c:	0000513c 	.word	0x0000513c

00002470 <std.isra.0>:
    2470:	e3a03000 	mov	r3, #0
    2474:	e92d4010 	push	{r4, lr}
    2478:	e1a04000 	mov	r4, r0
    247c:	e1c010bc 	strh	r1, [r0, #12]
    2480:	e1c020be 	strh	r2, [r0, #14]
    2484:	e5803000 	str	r3, [r0]
    2488:	e5803004 	str	r3, [r0, #4]
    248c:	e5803008 	str	r3, [r0, #8]
    2490:	e5803064 	str	r3, [r0, #100]	; 0x64
    2494:	e5803010 	str	r3, [r0, #16]
    2498:	e5803014 	str	r3, [r0, #20]
    249c:	e5803018 	str	r3, [r0, #24]
    24a0:	e1a01003 	mov	r1, r3
    24a4:	e280005c 	add	r0, r0, #92	; 0x5c
    24a8:	e3a02008 	mov	r2, #8
    24ac:	eb0006c7 	bl	3fd0 <memset>
    24b0:	e59f3024 	ldr	r3, [pc, #36]	; 24dc <std.isra.0+0x6c>
    24b4:	e5843020 	str	r3, [r4, #32]
    24b8:	e59f3020 	ldr	r3, [pc, #32]	; 24e0 <std.isra.0+0x70>
    24bc:	e5843024 	str	r3, [r4, #36]	; 0x24
    24c0:	e59f301c 	ldr	r3, [pc, #28]	; 24e4 <std.isra.0+0x74>
    24c4:	e5843028 	str	r3, [r4, #40]	; 0x28
    24c8:	e59f3018 	ldr	r3, [pc, #24]	; 24e8 <std.isra.0+0x78>
    24cc:	e584401c 	str	r4, [r4, #28]
    24d0:	e584302c 	str	r3, [r4, #44]	; 0x2c
    24d4:	e8bd4010 	pop	{r4, lr}
    24d8:	e12fff1e 	bx	lr
    24dc:	0000495c 	.word	0x0000495c
    24e0:	00004998 	.word	0x00004998
    24e4:	000049f0 	.word	0x000049f0
    24e8:	00004a24 	.word	0x00004a24

000024ec <__sfmoreglue>:
    24ec:	e92d4070 	push	{r4, r5, r6, lr}
    24f0:	e0816081 	add	r6, r1, r1, lsl #1
    24f4:	e0816106 	add	r6, r1, r6, lsl #2
    24f8:	e1a06186 	lsl	r6, r6, #3
    24fc:	e1a05001 	mov	r5, r1
    2500:	e286100c 	add	r1, r6, #12
    2504:	eb0003d3 	bl	3458 <_malloc_r>
    2508:	e2504000 	subs	r4, r0, #0
    250c:	0a000005 	beq	2528 <__sfmoreglue+0x3c>
    2510:	e284000c 	add	r0, r4, #12
    2514:	e3a01000 	mov	r1, #0
    2518:	e8840022 	stm	r4, {r1, r5}
    251c:	e5840008 	str	r0, [r4, #8]
    2520:	e1a02006 	mov	r2, r6
    2524:	eb0006a9 	bl	3fd0 <memset>
    2528:	e1a00004 	mov	r0, r4
    252c:	e8bd4070 	pop	{r4, r5, r6, lr}
    2530:	e12fff1e 	bx	lr

00002534 <_cleanup>:
    2534:	e59f3004 	ldr	r3, [pc, #4]	; 2540 <_cleanup+0xc>
    2538:	e5930000 	ldr	r0, [r3]
    253c:	eaffffc5 	b	2458 <_cleanup_r>
    2540:	0000e48c 	.word	0x0000e48c

00002544 <__sinit>:
    2544:	e92d4038 	push	{r3, r4, r5, lr}
    2548:	e5903038 	ldr	r3, [r0, #56]	; 0x38
    254c:	e3530000 	cmp	r3, #0
    2550:	e1a04000 	mov	r4, r0
    2554:	0a000001 	beq	2560 <__sinit+0x1c>
    2558:	e8bd4038 	pop	{r3, r4, r5, lr}
    255c:	e12fff1e 	bx	lr
    2560:	e59fe050 	ldr	lr, [pc, #80]	; 25b8 <__sinit+0x74>
    2564:	e280cfbb 	add	r12, r0, #748	; 0x2ec
    2568:	e3a05001 	mov	r5, #1
    256c:	e1a02003 	mov	r2, r3
    2570:	e58432e0 	str	r3, [r4, #736]	; 0x2e0
    2574:	e3a03003 	mov	r3, #3
    2578:	e584e03c 	str	lr, [r4, #60]	; 0x3c
    257c:	e58432e4 	str	r3, [r4, #740]	; 0x2e4
    2580:	e584c2e8 	str	r12, [r4, #744]	; 0x2e8
    2584:	e5900004 	ldr	r0, [r0, #4]
    2588:	e3a01004 	mov	r1, #4
    258c:	e5845038 	str	r5, [r4, #56]	; 0x38
    2590:	ebffffb6 	bl	2470 <std.isra.0>
    2594:	e5940008 	ldr	r0, [r4, #8]
    2598:	e1a02005 	mov	r2, r5
    259c:	e3a01009 	mov	r1, #9
    25a0:	ebffffb2 	bl	2470 <std.isra.0>
    25a4:	e594000c 	ldr	r0, [r4, #12]
    25a8:	e3a01012 	mov	r1, #18
    25ac:	e3a02002 	mov	r2, #2
    25b0:	e8bd4038 	pop	{r3, r4, r5, lr}
    25b4:	eaffffad 	b	2470 <std.isra.0>
    25b8:	00002458 	.word	0x00002458

000025bc <__sfp>:
    25bc:	e59f30ec 	ldr	r3, [pc, #236]	; 26b0 <__sfp+0xf4>
    25c0:	e92d4070 	push	{r4, r5, r6, lr}
    25c4:	e5935000 	ldr	r5, [r3]
    25c8:	e5953038 	ldr	r3, [r5, #56]	; 0x38
    25cc:	e3530000 	cmp	r3, #0
    25d0:	e1a06000 	mov	r6, r0
    25d4:	0a000028 	beq	267c <__sfp+0xc0>
    25d8:	e2855e2e 	add	r5, r5, #736	; 0x2e0
    25dc:	e5953004 	ldr	r3, [r5, #4]
    25e0:	e2533001 	subs	r3, r3, #1
    25e4:	e5954008 	ldr	r4, [r5, #8]
    25e8:	5a000004 	bpl	2600 <__sfp+0x44>
    25ec:	ea00001d 	b	2668 <__sfp+0xac>
    25f0:	e2433001 	sub	r3, r3, #1
    25f4:	e3730001 	cmn	r3, #1
    25f8:	e2844068 	add	r4, r4, #104	; 0x68
    25fc:	0a000019 	beq	2668 <__sfp+0xac>
    2600:	e1d420fc 	ldrsh	r2, [r4, #12]
    2604:	e3520000 	cmp	r2, #0
    2608:	1afffff8 	bne	25f0 <__sfp+0x34>
    260c:	e3e03000 	mvn	r3, #0
    2610:	e3a05000 	mov	r5, #0
    2614:	e1c430be 	strh	r3, [r4, #14]
    2618:	e3a03001 	mov	r3, #1
    261c:	e1c430bc 	strh	r3, [r4, #12]
    2620:	e5845064 	str	r5, [r4, #100]	; 0x64
    2624:	e5845000 	str	r5, [r4]
    2628:	e5845008 	str	r5, [r4, #8]
    262c:	e5845004 	str	r5, [r4, #4]
    2630:	e5845010 	str	r5, [r4, #16]
    2634:	e5845014 	str	r5, [r4, #20]
    2638:	e5845018 	str	r5, [r4, #24]
    263c:	e284005c 	add	r0, r4, #92	; 0x5c
    2640:	e1a01005 	mov	r1, r5
    2644:	e3a02008 	mov	r2, #8
    2648:	eb000660 	bl	3fd0 <memset>
    264c:	e5845030 	str	r5, [r4, #48]	; 0x30
    2650:	e5845034 	str	r5, [r4, #52]	; 0x34
    2654:	e5845044 	str	r5, [r4, #68]	; 0x44
    2658:	e5845048 	str	r5, [r4, #72]	; 0x48
    265c:	e1a00004 	mov	r0, r4
    2660:	e8bd4070 	pop	{r4, r5, r6, lr}
    2664:	e12fff1e 	bx	lr
    2668:	e5950000 	ldr	r0, [r5]
    266c:	e3500000 	cmp	r0, #0
    2670:	0a000004 	beq	2688 <__sfp+0xcc>
    2674:	e1a05000 	mov	r5, r0
    2678:	eaffffd7 	b	25dc <__sfp+0x20>
    267c:	e1a00005 	mov	r0, r5
    2680:	ebffffaf 	bl	2544 <__sinit>
    2684:	eaffffd3 	b	25d8 <__sfp+0x1c>
    2688:	e1a00006 	mov	r0, r6
    268c:	e3a01004 	mov	r1, #4
    2690:	ebffff95 	bl	24ec <__sfmoreglue>
    2694:	e3500000 	cmp	r0, #0
    2698:	e5850000 	str	r0, [r5]
    269c:	1afffff4 	bne	2674 <__sfp+0xb8>
    26a0:	e3a0300c 	mov	r3, #12
    26a4:	e5863000 	str	r3, [r6]
    26a8:	e1a04000 	mov	r4, r0
    26ac:	eaffffea 	b	265c <__sfp+0xa0>
    26b0:	0000e48c 	.word	0x0000e48c

000026b4 <__sfp_lock_acquire>:
    26b4:	e12fff1e 	bx	lr

000026b8 <__sfp_lock_release>:
    26b8:	e12fff1e 	bx	lr

000026bc <__sinit_lock_acquire>:
    26bc:	e12fff1e 	bx	lr

000026c0 <__sinit_lock_release>:
    26c0:	e12fff1e 	bx	lr

000026c4 <__fp_lock_all>:
    26c4:	e92d4008 	push	{r3, lr}
    26c8:	e59f3010 	ldr	r3, [pc, #16]	; 26e0 <__fp_lock_all+0x1c>
    26cc:	e59f1010 	ldr	r1, [pc, #16]	; 26e4 <__fp_lock_all+0x20>
    26d0:	e5930000 	ldr	r0, [r3]
    26d4:	eb00028f 	bl	3118 <_fwalk>
    26d8:	e8bd4008 	pop	{r3, lr}
    26dc:	e12fff1e 	bx	lr
    26e0:	0000e550 	.word	0x0000e550
    26e4:	00002448 	.word	0x00002448

000026e8 <__fp_unlock_all>:
    26e8:	e92d4008 	push	{r3, lr}
    26ec:	e59f3010 	ldr	r3, [pc, #16]	; 2704 <__fp_unlock_all+0x1c>
    26f0:	e59f1010 	ldr	r1, [pc, #16]	; 2708 <__fp_unlock_all+0x20>
    26f4:	e5930000 	ldr	r0, [r3]
    26f8:	eb000286 	bl	3118 <_fwalk>
    26fc:	e8bd4008 	pop	{r3, lr}
    2700:	e12fff1e 	bx	lr
    2704:	0000e550 	.word	0x0000e550
    2708:	00002450 	.word	0x00002450

0000270c <__libc_fini_array>:
    270c:	e92d4038 	push	{r3, r4, r5, lr}
    2710:	e59f5030 	ldr	r5, [pc, #48]	; 2748 <__libc_fini_array+0x3c>
    2714:	e59f4030 	ldr	r4, [pc, #48]	; 274c <__libc_fini_array+0x40>
    2718:	e0654004 	rsb	r4, r5, r4
    271c:	e1b04144 	asrs	r4, r4, #2
    2720:	10855104 	addne	r5, r5, r4, lsl #2
    2724:	0a000004 	beq	273c <__libc_fini_array+0x30>
    2728:	e5353004 	ldr	r3, [r5, #-4]!
    272c:	e1a0e00f 	mov	lr, pc
    2730:	e12fff13 	bx	r3
    2734:	e2544001 	subs	r4, r4, #1
    2738:	1afffffa 	bne	2728 <__libc_fini_array+0x1c>
    273c:	eb002f75 	bl	e518 <__libc_fini>
    2740:	e8bd4038 	pop	{r3, r4, r5, lr}
    2744:	e12fff1e 	bx	lr
    2748:	0000e530 	.word	0x0000e530
    274c:	0000e534 	.word	0x0000e534

00002750 <_fputwc_r>:
    2750:	e1d230bc 	ldrh	r3, [r2, #12]
    2754:	e92d45f0 	push	{r4, r5, r6, r7, r8, r10, lr}
    2758:	e3130a02 	tst	r3, #8192	; 0x2000
    275c:	e1a04002 	mov	r4, r2
    2760:	05922064 	ldreq	r2, [r2, #100]	; 0x64
    2764:	03833a02 	orreq	r3, r3, #8192	; 0x2000
    2768:	03822a02 	orreq	r2, r2, #8192	; 0x2000
    276c:	01c430bc 	strheq	r3, [r4, #12]
    2770:	05842064 	streq	r2, [r4, #100]	; 0x64
    2774:	e24dd00c 	sub	sp, sp, #12
    2778:	e1a07000 	mov	r7, r0
    277c:	e1a06001 	mov	r6, r1
    2780:	eb0002c7 	bl	32a4 <__locale_mb_cur_max>
    2784:	e3500001 	cmp	r0, #1
    2788:	0a000039 	beq	2874 <_fputwc_r+0x124>
    278c:	e28d8004 	add	r8, sp, #4
    2790:	e1a00007 	mov	r0, r7
    2794:	e1a01008 	mov	r1, r8
    2798:	e1a02006 	mov	r2, r6
    279c:	e284305c 	add	r3, r4, #92	; 0x5c
    27a0:	eb00099b 	bl	4e14 <_wcrtomb_r>
    27a4:	e3700001 	cmn	r0, #1
    27a8:	e1a0a000 	mov	r10, r0
    27ac:	0a000022 	beq	283c <_fputwc_r+0xec>
    27b0:	e3500000 	cmp	r0, #0
    27b4:	0a000035 	beq	2890 <_fputwc_r+0x140>
    27b8:	e3a05000 	mov	r5, #0
    27bc:	ea000008 	b	27e4 <_fputwc_r+0x94>
    27c0:	e5943000 	ldr	r3, [r4]
    27c4:	e7d82005 	ldrb	r2, [r8, r5]
    27c8:	e5c32000 	strb	r2, [r3]
    27cc:	e5943000 	ldr	r3, [r4]
    27d0:	e2833001 	add	r3, r3, #1
    27d4:	e5843000 	str	r3, [r4]
    27d8:	e2855001 	add	r5, r5, #1
    27dc:	e155000a 	cmp	r5, r10
    27e0:	2a00002a 	bcs	2890 <_fputwc_r+0x140>
    27e4:	e5943008 	ldr	r3, [r4, #8]
    27e8:	e2433001 	sub	r3, r3, #1
    27ec:	e3530000 	cmp	r3, #0
    27f0:	e5843008 	str	r3, [r4, #8]
    27f4:	aafffff1 	bge	27c0 <_fputwc_r+0x70>
    27f8:	e5942018 	ldr	r2, [r4, #24]
    27fc:	e1530002 	cmp	r3, r2
    2800:	ba000013 	blt	2854 <_fputwc_r+0x104>
    2804:	e5943000 	ldr	r3, [r4]
    2808:	e7d82005 	ldrb	r2, [r8, r5]
    280c:	e5c32000 	strb	r2, [r3]
    2810:	e5943000 	ldr	r3, [r4]
    2814:	e5d31000 	ldrb	r1, [r3]
    2818:	e351000a 	cmp	r1, #10
    281c:	0a00001d 	beq	2898 <_fputwc_r+0x148>
    2820:	e2833001 	add	r3, r3, #1
    2824:	e5843000 	str	r3, [r4]
    2828:	e3a00000 	mov	r0, #0
    282c:	e3500000 	cmp	r0, #0
    2830:	0affffe8 	beq	27d8 <_fputwc_r+0x88>
    2834:	e3e00000 	mvn	r0, #0
    2838:	ea000002 	b	2848 <_fputwc_r+0xf8>
    283c:	e1d430bc 	ldrh	r3, [r4, #12]
    2840:	e3833040 	orr	r3, r3, #64	; 0x40
    2844:	e1c430bc 	strh	r3, [r4, #12]
    2848:	e28dd00c 	add	sp, sp, #12
    284c:	e8bd45f0 	pop	{r4, r5, r6, r7, r8, r10, lr}
    2850:	e12fff1e 	bx	lr
    2854:	e7d81005 	ldrb	r1, [r8, r5]
    2858:	e1a00007 	mov	r0, r7
    285c:	e1a02004 	mov	r2, r4
    2860:	eb000918 	bl	4cc8 <__swbuf_r>
    2864:	e3700001 	cmn	r0, #1
    2868:	13a00000 	movne	r0, #0
    286c:	03a00001 	moveq	r0, #1
    2870:	eaffffed 	b	282c <_fputwc_r+0xdc>
    2874:	e2463001 	sub	r3, r6, #1
    2878:	e35300fe 	cmp	r3, #254	; 0xfe
    287c:	8affffc2 	bhi	278c <_fputwc_r+0x3c>
    2880:	e28d8008 	add	r8, sp, #8
    2884:	e5686004 	strb	r6, [r8, #-4]!
    2888:	e1a0a000 	mov	r10, r0
    288c:	eaffffc9 	b	27b8 <_fputwc_r+0x68>
    2890:	e1a00006 	mov	r0, r6
    2894:	eaffffeb 	b	2848 <_fputwc_r+0xf8>
    2898:	e1a00007 	mov	r0, r7
    289c:	eaffffee 	b	285c <_fputwc_r+0x10c>

000028a0 <fputwc>:
    28a0:	e92d4070 	push	{r4, r5, r6, lr}
    28a4:	e59f403c 	ldr	r4, [pc, #60]	; 28e8 <fputwc+0x48>
    28a8:	e5943000 	ldr	r3, [r4]
    28ac:	e3530000 	cmp	r3, #0
    28b0:	e1a06000 	mov	r6, r0
    28b4:	e1a05001 	mov	r5, r1
    28b8:	0a000005 	beq	28d4 <fputwc+0x34>
    28bc:	e5932038 	ldr	r2, [r3, #56]	; 0x38
    28c0:	e3520000 	cmp	r2, #0
    28c4:	1a000002 	bne	28d4 <fputwc+0x34>
    28c8:	e1a00003 	mov	r0, r3
    28cc:	ebffff1c 	bl	2544 <__sinit>
    28d0:	e5943000 	ldr	r3, [r4]
    28d4:	e1a00003 	mov	r0, r3
    28d8:	e1a01006 	mov	r1, r6
    28dc:	e1a02005 	mov	r2, r5
    28e0:	e8bd4070 	pop	{r4, r5, r6, lr}
    28e4:	eaffff99 	b	2750 <_fputwc_r>
    28e8:	0000e550 	.word	0x0000e550

000028ec <_malloc_trim_r>:
    28ec:	e92d40f8 	push	{r3, r4, r5, r6, r7, lr}
    28f0:	e59f50e4 	ldr	r5, [pc, #228]	; 29dc <_malloc_trim_r+0xf0>
    28f4:	e1a07001 	mov	r7, r1
    28f8:	e1a04000 	mov	r4, r0
    28fc:	eb000600 	bl	4104 <__malloc_lock>
    2900:	e5953008 	ldr	r3, [r5, #8]
    2904:	e5936004 	ldr	r6, [r3, #4]
    2908:	e3c66003 	bic	r6, r6, #3
    290c:	e2863efe 	add	r3, r6, #4064	; 0xfe0
    2910:	e283300f 	add	r3, r3, #15
    2914:	e0677003 	rsb	r7, r7, r3
    2918:	e1a07627 	lsr	r7, r7, #12
    291c:	e2477001 	sub	r7, r7, #1
    2920:	e1a07607 	lsl	r7, r7, #12
    2924:	e3570a01 	cmp	r7, #4096	; 0x1000
    2928:	ba000006 	blt	2948 <_malloc_trim_r+0x5c>
    292c:	e1a00004 	mov	r0, r4
    2930:	e3a01000 	mov	r1, #0
    2934:	eb000751 	bl	4680 <_sbrk_r>
    2938:	e5953008 	ldr	r3, [r5, #8]
    293c:	e0833006 	add	r3, r3, r6
    2940:	e1500003 	cmp	r0, r3
    2944:	0a000004 	beq	295c <_malloc_trim_r+0x70>
    2948:	e1a00004 	mov	r0, r4
    294c:	eb0005ed 	bl	4108 <__malloc_unlock>
    2950:	e3a00000 	mov	r0, #0
    2954:	e8bd40f8 	pop	{r3, r4, r5, r6, r7, lr}
    2958:	e12fff1e 	bx	lr
    295c:	e1a00004 	mov	r0, r4
    2960:	e2671000 	rsb	r1, r7, #0
    2964:	eb000745 	bl	4680 <_sbrk_r>
    2968:	e3700001 	cmn	r0, #1
    296c:	0a00000b 	beq	29a0 <_malloc_trim_r+0xb4>
    2970:	e59f3068 	ldr	r3, [pc, #104]	; 29e0 <_malloc_trim_r+0xf4>
    2974:	e5952008 	ldr	r2, [r5, #8]
    2978:	e5931000 	ldr	r1, [r3]
    297c:	e0676006 	rsb	r6, r7, r6
    2980:	e3866001 	orr	r6, r6, #1
    2984:	e0677001 	rsb	r7, r7, r1
    2988:	e1a00004 	mov	r0, r4
    298c:	e5826004 	str	r6, [r2, #4]
    2990:	e5837000 	str	r7, [r3]
    2994:	eb0005db 	bl	4108 <__malloc_unlock>
    2998:	e3a00001 	mov	r0, #1
    299c:	eaffffec 	b	2954 <_malloc_trim_r+0x68>
    29a0:	e1a00004 	mov	r0, r4
    29a4:	e3a01000 	mov	r1, #0
    29a8:	eb000734 	bl	4680 <_sbrk_r>
    29ac:	e5953008 	ldr	r3, [r5, #8]
    29b0:	e0632000 	rsb	r2, r3, r0
    29b4:	e352000f 	cmp	r2, #15
    29b8:	daffffe2 	ble	2948 <_malloc_trim_r+0x5c>
    29bc:	e59f1020 	ldr	r1, [pc, #32]	; 29e4 <_malloc_trim_r+0xf8>
    29c0:	e5911000 	ldr	r1, [r1]
    29c4:	e0610000 	rsb	r0, r1, r0
    29c8:	e59f1010 	ldr	r1, [pc, #16]	; 29e0 <_malloc_trim_r+0xf4>
    29cc:	e3822001 	orr	r2, r2, #1
    29d0:	e5810000 	str	r0, [r1]
    29d4:	e5832004 	str	r2, [r3, #4]
    29d8:	eaffffda 	b	2948 <_malloc_trim_r+0x5c>
    29dc:	0000e9fc 	.word	0x0000e9fc
    29e0:	00043fb8 	.word	0x00043fb8
    29e4:	0000ee04 	.word	0x0000ee04

000029e8 <_free_r>:
    29e8:	e92d40f8 	push	{r3, r4, r5, r6, r7, lr}
    29ec:	e2514000 	subs	r4, r1, #0
    29f0:	e1a06000 	mov	r6, r0
    29f4:	0a000046 	beq	2b14 <_free_r+0x12c>
    29f8:	eb0005c1 	bl	4104 <__malloc_lock>
    29fc:	e514e004 	ldr	lr, [r4, #-4]
    2a00:	e59f1238 	ldr	r1, [pc, #568]	; 2c40 <_free_r+0x258>
    2a04:	e244c008 	sub	r12, r4, #8
    2a08:	e3ce3001 	bic	r3, lr, #1
    2a0c:	e08c2003 	add	r2, r12, r3
    2a10:	e5910008 	ldr	r0, [r1, #8]
    2a14:	e5925004 	ldr	r5, [r2, #4]
    2a18:	e1500002 	cmp	r0, r2
    2a1c:	e3c55003 	bic	r5, r5, #3
    2a20:	0a00004a 	beq	2b50 <_free_r+0x168>
    2a24:	e21ee001 	ands	lr, lr, #1
    2a28:	e5825004 	str	r5, [r2, #4]
    2a2c:	13a0e000 	movne	lr, #0
    2a30:	1a000009 	bne	2a5c <_free_r+0x74>
    2a34:	e5144008 	ldr	r4, [r4, #-8]
    2a38:	e064c00c 	rsb	r12, r4, r12
    2a3c:	e59c0008 	ldr	r0, [r12, #8]
    2a40:	e2817008 	add	r7, r1, #8
    2a44:	e1500007 	cmp	r0, r7
    2a48:	e0833004 	add	r3, r3, r4
    2a4c:	159c400c 	ldrne	r4, [r12, #12]
    2a50:	1580400c 	strne	r4, [r0, #12]
    2a54:	15840008 	strne	r0, [r4, #8]
    2a58:	03a0e001 	moveq	lr, #1
    2a5c:	e0820005 	add	r0, r2, r5
    2a60:	e5900004 	ldr	r0, [r0, #4]
    2a64:	e3100001 	tst	r0, #1
    2a68:	1a000009 	bne	2a94 <_free_r+0xac>
    2a6c:	e35e0000 	cmp	lr, #0
    2a70:	e5920008 	ldr	r0, [r2, #8]
    2a74:	e0833005 	add	r3, r3, r5
    2a78:	1a000002 	bne	2a88 <_free_r+0xa0>
    2a7c:	e59f41c0 	ldr	r4, [pc, #448]	; 2c44 <_free_r+0x25c>
    2a80:	e1500004 	cmp	r0, r4
    2a84:	0a000047 	beq	2ba8 <_free_r+0x1c0>
    2a88:	e592200c 	ldr	r2, [r2, #12]
    2a8c:	e580200c 	str	r2, [r0, #12]
    2a90:	e5820008 	str	r0, [r2, #8]
    2a94:	e3832001 	orr	r2, r3, #1
    2a98:	e35e0000 	cmp	lr, #0
    2a9c:	e58c2004 	str	r2, [r12, #4]
    2aa0:	e78c3003 	str	r3, [r12, r3]
    2aa4:	1a000018 	bne	2b0c <_free_r+0x124>
    2aa8:	e3530c02 	cmp	r3, #512	; 0x200
    2aac:	3a00001a 	bcc	2b1c <_free_r+0x134>
    2ab0:	e1a024a3 	lsr	r2, r3, #9
    2ab4:	e3520004 	cmp	r2, #4
    2ab8:	8a000042 	bhi	2bc8 <_free_r+0x1e0>
    2abc:	e1a0e323 	lsr	lr, r3, #6
    2ac0:	e28ee038 	add	lr, lr, #56	; 0x38
    2ac4:	e1a0008e 	lsl	r0, lr, #1
    2ac8:	e0810100 	add	r0, r1, r0, lsl #2
    2acc:	e5902008 	ldr	r2, [r0, #8]
    2ad0:	e1520000 	cmp	r2, r0
    2ad4:	e59f1164 	ldr	r1, [pc, #356]	; 2c40 <_free_r+0x258>
    2ad8:	0a000044 	beq	2bf0 <_free_r+0x208>
    2adc:	e5921004 	ldr	r1, [r2, #4]
    2ae0:	e3c11003 	bic	r1, r1, #3
    2ae4:	e1530001 	cmp	r3, r1
    2ae8:	2a000002 	bcs	2af8 <_free_r+0x110>
    2aec:	e5922008 	ldr	r2, [r2, #8]
    2af0:	e1500002 	cmp	r0, r2
    2af4:	1afffff8 	bne	2adc <_free_r+0xf4>
    2af8:	e592300c 	ldr	r3, [r2, #12]
    2afc:	e58c300c 	str	r3, [r12, #12]
    2b00:	e58c2008 	str	r2, [r12, #8]
    2b04:	e582c00c 	str	r12, [r2, #12]
    2b08:	e583c008 	str	r12, [r3, #8]
    2b0c:	e1a00006 	mov	r0, r6
    2b10:	eb00057c 	bl	4108 <__malloc_unlock>
    2b14:	e8bd40f8 	pop	{r3, r4, r5, r6, r7, lr}
    2b18:	e12fff1e 	bx	lr
    2b1c:	e5912004 	ldr	r2, [r1, #4]
    2b20:	e1a031a3 	lsr	r3, r3, #3
    2b24:	e1a00143 	asr	r0, r3, #2
    2b28:	e3a0e001 	mov	lr, #1
    2b2c:	e182001e 	orr	r0, r2, lr, lsl r0
    2b30:	e0813183 	add	r3, r1, r3, lsl #3
    2b34:	e5932008 	ldr	r2, [r3, #8]
    2b38:	e58c300c 	str	r3, [r12, #12]
    2b3c:	e58c2008 	str	r2, [r12, #8]
    2b40:	e5810004 	str	r0, [r1, #4]
    2b44:	e583c008 	str	r12, [r3, #8]
    2b48:	e582c00c 	str	r12, [r2, #12]
    2b4c:	eaffffee 	b	2b0c <_free_r+0x124>
    2b50:	e31e0001 	tst	lr, #1
    2b54:	e0853003 	add	r3, r5, r3
    2b58:	1a000006 	bne	2b78 <_free_r+0x190>
    2b5c:	e5142008 	ldr	r2, [r4, #-8]
    2b60:	e062c00c 	rsb	r12, r2, r12
    2b64:	e59c000c 	ldr	r0, [r12, #12]
    2b68:	e59ce008 	ldr	lr, [r12, #8]
    2b6c:	e58e000c 	str	r0, [lr, #12]
    2b70:	e580e008 	str	lr, [r0, #8]
    2b74:	e0833002 	add	r3, r3, r2
    2b78:	e59f20c8 	ldr	r2, [pc, #200]	; 2c48 <_free_r+0x260>
    2b7c:	e5920000 	ldr	r0, [r2]
    2b80:	e3832001 	orr	r2, r3, #1
    2b84:	e1530000 	cmp	r3, r0
    2b88:	e58c2004 	str	r2, [r12, #4]
    2b8c:	e581c008 	str	r12, [r1, #8]
    2b90:	3affffdd 	bcc	2b0c <_free_r+0x124>
    2b94:	e59f30b0 	ldr	r3, [pc, #176]	; 2c4c <_free_r+0x264>
    2b98:	e1a00006 	mov	r0, r6
    2b9c:	e5931000 	ldr	r1, [r3]
    2ba0:	ebffff51 	bl	28ec <_malloc_trim_r>
    2ba4:	eaffffd8 	b	2b0c <_free_r+0x124>
    2ba8:	e3832001 	orr	r2, r3, #1
    2bac:	e581c014 	str	r12, [r1, #20]
    2bb0:	e581c010 	str	r12, [r1, #16]
    2bb4:	e58c000c 	str	r0, [r12, #12]
    2bb8:	e58c0008 	str	r0, [r12, #8]
    2bbc:	e58c2004 	str	r2, [r12, #4]
    2bc0:	e78c3003 	str	r3, [r12, r3]
    2bc4:	eaffffd0 	b	2b0c <_free_r+0x124>
    2bc8:	e3520014 	cmp	r2, #20
    2bcc:	9282e05b 	addls	lr, r2, #91	; 0x5b
    2bd0:	91a0008e 	lslls	r0, lr, #1
    2bd4:	9affffbb 	bls	2ac8 <_free_r+0xe0>
    2bd8:	e3520054 	cmp	r2, #84	; 0x54
    2bdc:	8a00000a 	bhi	2c0c <_free_r+0x224>
    2be0:	e1a0e623 	lsr	lr, r3, #12
    2be4:	e28ee06e 	add	lr, lr, #110	; 0x6e
    2be8:	e1a0008e 	lsl	r0, lr, #1
    2bec:	eaffffb5 	b	2ac8 <_free_r+0xe0>
    2bf0:	e5913004 	ldr	r3, [r1, #4]
    2bf4:	e1a0e14e 	asr	lr, lr, #2
    2bf8:	e3a00001 	mov	r0, #1
    2bfc:	e1830e10 	orr	r0, r3, r0, lsl lr
    2c00:	e1a03002 	mov	r3, r2
    2c04:	e5810004 	str	r0, [r1, #4]
    2c08:	eaffffbb 	b	2afc <_free_r+0x114>
    2c0c:	e3520f55 	cmp	r2, #340	; 0x154
    2c10:	91a0e7a3 	lsrls	lr, r3, #15
    2c14:	928ee077 	addls	lr, lr, #119	; 0x77
    2c18:	91a0008e 	lslls	r0, lr, #1
    2c1c:	9affffa9 	bls	2ac8 <_free_r+0xe0>
    2c20:	e59f0028 	ldr	r0, [pc, #40]	; 2c50 <_free_r+0x268>
    2c24:	e1520000 	cmp	r2, r0
    2c28:	91a0e923 	lsrls	lr, r3, #18
    2c2c:	928ee07c 	addls	lr, lr, #124	; 0x7c
    2c30:	91a0008e 	lslls	r0, lr, #1
    2c34:	83a000fc 	movhi	r0, #252	; 0xfc
    2c38:	83a0e07e 	movhi	lr, #126	; 0x7e
    2c3c:	eaffffa1 	b	2ac8 <_free_r+0xe0>
    2c40:	0000e9fc 	.word	0x0000e9fc
    2c44:	0000ea04 	.word	0x0000ea04
    2c48:	0000ee08 	.word	0x0000ee08
    2c4c:	00043fb4 	.word	0x00043fb4
    2c50:	00000554 	.word	0x00000554

00002c54 <__sfvwrite_r>:
    2c54:	e92d4ff0 	push	{r4, r5, r6, r7, r8, r9, r10, r11, lr}
    2c58:	e5923008 	ldr	r3, [r2, #8]
    2c5c:	e3530000 	cmp	r3, #0
    2c60:	e24dd00c 	sub	sp, sp, #12
    2c64:	e1a07002 	mov	r7, r2
    2c68:	e1a0a000 	mov	r10, r0
    2c6c:	e1a04001 	mov	r4, r1
    2c70:	0a00001e 	beq	2cf0 <__sfvwrite_r+0x9c>
    2c74:	e1d130bc 	ldrh	r3, [r1, #12]
    2c78:	e3130008 	tst	r3, #8
    2c7c:	0a00001f 	beq	2d00 <__sfvwrite_r+0xac>
    2c80:	e5912010 	ldr	r2, [r1, #16]
    2c84:	e3520000 	cmp	r2, #0
    2c88:	0a00001c 	beq	2d00 <__sfvwrite_r+0xac>
    2c8c:	e2132002 	ands	r2, r3, #2
    2c90:	e5975000 	ldr	r5, [r7]
    2c94:	0a000029 	beq	2d40 <__sfvwrite_r+0xec>
    2c98:	e3a08000 	mov	r8, #0
    2c9c:	e1a06008 	mov	r6, r8
    2ca0:	e3560000 	cmp	r6, #0
    2ca4:	e1a02008 	mov	r2, r8
    2ca8:	e1a0000a 	mov	r0, r10
    2cac:	0a00001f 	beq	2d30 <__sfvwrite_r+0xdc>
    2cb0:	e3560b01 	cmp	r6, #1024	; 0x400
    2cb4:	31a03006 	movcc	r3, r6
    2cb8:	23a03b01 	movcs	r3, #1024	; 0x400
    2cbc:	e594101c 	ldr	r1, [r4, #28]
    2cc0:	e594c024 	ldr	r12, [r4, #36]	; 0x24
    2cc4:	e1a0e00f 	mov	lr, pc
    2cc8:	e12fff1c 	bx	r12
    2ccc:	e3500000 	cmp	r0, #0
    2cd0:	da000050 	ble	2e18 <__sfvwrite_r+0x1c4>
    2cd4:	e5973008 	ldr	r3, [r7, #8]
    2cd8:	e0603003 	rsb	r3, r0, r3
    2cdc:	e3530000 	cmp	r3, #0
    2ce0:	e0888000 	add	r8, r8, r0
    2ce4:	e0606006 	rsb	r6, r0, r6
    2ce8:	e5873008 	str	r3, [r7, #8]
    2cec:	1affffeb 	bne	2ca0 <__sfvwrite_r+0x4c>
    2cf0:	e3a00000 	mov	r0, #0
    2cf4:	e28dd00c 	add	sp, sp, #12
    2cf8:	e8bd4ff0 	pop	{r4, r5, r6, r7, r8, r9, r10, r11, lr}
    2cfc:	e12fff1e 	bx	lr
    2d00:	e1a0000a 	mov	r0, r10
    2d04:	e1a01004 	mov	r1, r4
    2d08:	ebfffc3b 	bl	1dfc <__swsetup_r>
    2d0c:	e3500000 	cmp	r0, #0
    2d10:	e1d430bc 	ldrh	r3, [r4, #12]
    2d14:	0affffdc 	beq	2c8c <__sfvwrite_r+0x38>
    2d18:	e3833040 	orr	r3, r3, #64	; 0x40
    2d1c:	e1c430bc 	strh	r3, [r4, #12]
    2d20:	e3a03009 	mov	r3, #9
    2d24:	e3e00000 	mvn	r0, #0
    2d28:	e58a3000 	str	r3, [r10]
    2d2c:	eafffff0 	b	2cf4 <__sfvwrite_r+0xa0>
    2d30:	e5958000 	ldr	r8, [r5]
    2d34:	e5956004 	ldr	r6, [r5, #4]
    2d38:	e2855008 	add	r5, r5, #8
    2d3c:	eaffffd7 	b	2ca0 <__sfvwrite_r+0x4c>
    2d40:	e2139001 	ands	r9, r3, #1
    2d44:	1a000038 	bne	2e2c <__sfvwrite_r+0x1d8>
    2d48:	e1a06009 	mov	r6, r9
    2d4c:	e3560000 	cmp	r6, #0
    2d50:	0a000024 	beq	2de8 <__sfvwrite_r+0x194>
    2d54:	e3130c02 	tst	r3, #512	; 0x200
    2d58:	e5948008 	ldr	r8, [r4, #8]
    2d5c:	e1a02003 	mov	r2, r3
    2d60:	0a000062 	beq	2ef0 <__sfvwrite_r+0x29c>
    2d64:	e1560008 	cmp	r6, r8
    2d68:	e1a0c008 	mov	r12, r8
    2d6c:	3a000089 	bcc	2f98 <__sfvwrite_r+0x344>
    2d70:	e2022d12 	and	r2, r2, #1152	; 0x480
    2d74:	e3520000 	cmp	r2, #0
    2d78:	1a0000a2 	bne	3008 <__sfvwrite_r+0x3b4>
    2d7c:	e5940000 	ldr	r0, [r4]
    2d80:	e1a0b008 	mov	r11, r8
    2d84:	e1a03006 	mov	r3, r6
    2d88:	e1a08006 	mov	r8, r6
    2d8c:	e1a0200c 	mov	r2, r12
    2d90:	e1a01009 	mov	r1, r9
    2d94:	e58d3004 	str	r3, [sp, #4]
    2d98:	e58dc000 	str	r12, [sp]
    2d9c:	eb00043e 	bl	3e9c <memmove>
    2da0:	e59dc000 	ldr	r12, [sp]
    2da4:	e5941008 	ldr	r1, [r4, #8]
    2da8:	e5942000 	ldr	r2, [r4]
    2dac:	e06bb001 	rsb	r11, r11, r1
    2db0:	e082c00c 	add	r12, r2, r12
    2db4:	e584b008 	str	r11, [r4, #8]
    2db8:	e584c000 	str	r12, [r4]
    2dbc:	e59d3004 	ldr	r3, [sp, #4]
    2dc0:	e5972008 	ldr	r2, [r7, #8]
    2dc4:	e0688002 	rsb	r8, r8, r2
    2dc8:	e3580000 	cmp	r8, #0
    2dcc:	e0899003 	add	r9, r9, r3
    2dd0:	e0636006 	rsb	r6, r3, r6
    2dd4:	e5878008 	str	r8, [r7, #8]
    2dd8:	0affffc4 	beq	2cf0 <__sfvwrite_r+0x9c>
    2ddc:	e3560000 	cmp	r6, #0
    2de0:	e1d430bc 	ldrh	r3, [r4, #12]
    2de4:	1affffda 	bne	2d54 <__sfvwrite_r+0x100>
    2de8:	e5959000 	ldr	r9, [r5]
    2dec:	e5956004 	ldr	r6, [r5, #4]
    2df0:	e2855008 	add	r5, r5, #8
    2df4:	eaffffd4 	b	2d4c <__sfvwrite_r+0xf8>
    2df8:	eb0004c3 	bl	410c <_realloc_r>
    2dfc:	e2503000 	subs	r3, r0, #0
    2e00:	1a00009d 	bne	307c <__sfvwrite_r+0x428>
    2e04:	e1a0000a 	mov	r0, r10
    2e08:	e5941010 	ldr	r1, [r4, #16]
    2e0c:	ebfffef5 	bl	29e8 <_free_r>
    2e10:	e3a0300c 	mov	r3, #12
    2e14:	e58a3000 	str	r3, [r10]
    2e18:	e1d430bc 	ldrh	r3, [r4, #12]
    2e1c:	e3833040 	orr	r3, r3, #64	; 0x40
    2e20:	e1c430bc 	strh	r3, [r4, #12]
    2e24:	e3e00000 	mvn	r0, #0
    2e28:	eaffffb1 	b	2cf4 <__sfvwrite_r+0xa0>
    2e2c:	e1a09002 	mov	r9, r2
    2e30:	e1a0c002 	mov	r12, r2
    2e34:	e1a0b002 	mov	r11, r2
    2e38:	e1a08002 	mov	r8, r2
    2e3c:	e3580000 	cmp	r8, #0
    2e40:	0a000025 	beq	2edc <__sfvwrite_r+0x288>
    2e44:	e35c0000 	cmp	r12, #0
    2e48:	0a000064 	beq	2fe0 <__sfvwrite_r+0x38c>
    2e4c:	e5940000 	ldr	r0, [r4]
    2e50:	e5942010 	ldr	r2, [r4, #16]
    2e54:	e1590008 	cmp	r9, r8
    2e58:	31a03009 	movcc	r3, r9
    2e5c:	21a03008 	movcs	r3, r8
    2e60:	e1500002 	cmp	r0, r2
    2e64:	e5946008 	ldr	r6, [r4, #8]
    2e68:	e594e014 	ldr	lr, [r4, #20]
    2e6c:	9a000002 	bls	2e7c <__sfvwrite_r+0x228>
    2e70:	e086600e 	add	r6, r6, lr
    2e74:	e1530006 	cmp	r3, r6
    2e78:	ca00008a 	bgt	30a8 <__sfvwrite_r+0x454>
    2e7c:	e153000e 	cmp	r3, lr
    2e80:	ba00002d 	blt	2f3c <__sfvwrite_r+0x2e8>
    2e84:	e594101c 	ldr	r1, [r4, #28]
    2e88:	e1a0000a 	mov	r0, r10
    2e8c:	e58dc000 	str	r12, [sp]
    2e90:	e1a0200b 	mov	r2, r11
    2e94:	e1a0300e 	mov	r3, lr
    2e98:	e594c024 	ldr	r12, [r4, #36]	; 0x24
    2e9c:	e1a0e00f 	mov	lr, pc
    2ea0:	e12fff1c 	bx	r12
    2ea4:	e2506000 	subs	r6, r0, #0
    2ea8:	e59dc000 	ldr	r12, [sp]
    2eac:	daffffd9 	ble	2e18 <__sfvwrite_r+0x1c4>
    2eb0:	e0599006 	subs	r9, r9, r6
    2eb4:	0a000030 	beq	2f7c <__sfvwrite_r+0x328>
    2eb8:	e5973008 	ldr	r3, [r7, #8]
    2ebc:	e0663003 	rsb	r3, r6, r3
    2ec0:	e3530000 	cmp	r3, #0
    2ec4:	e08bb006 	add	r11, r11, r6
    2ec8:	e0668008 	rsb	r8, r6, r8
    2ecc:	e5873008 	str	r3, [r7, #8]
    2ed0:	0affff86 	beq	2cf0 <__sfvwrite_r+0x9c>
    2ed4:	e3580000 	cmp	r8, #0
    2ed8:	1affffd9 	bne	2e44 <__sfvwrite_r+0x1f0>
    2edc:	e595b000 	ldr	r11, [r5]
    2ee0:	e5958004 	ldr	r8, [r5, #4]
    2ee4:	e3a0c000 	mov	r12, #0
    2ee8:	e2855008 	add	r5, r5, #8
    2eec:	eaffffd2 	b	2e3c <__sfvwrite_r+0x1e8>
    2ef0:	e5940000 	ldr	r0, [r4]
    2ef4:	e5943010 	ldr	r3, [r4, #16]
    2ef8:	e1500003 	cmp	r0, r3
    2efc:	9a000001 	bls	2f08 <__sfvwrite_r+0x2b4>
    2f00:	e1560008 	cmp	r6, r8
    2f04:	8a000075 	bhi	30e0 <__sfvwrite_r+0x48c>
    2f08:	e5943014 	ldr	r3, [r4, #20]
    2f0c:	e1560003 	cmp	r6, r3
    2f10:	3a000026 	bcc	2fb0 <__sfvwrite_r+0x35c>
    2f14:	e1a0000a 	mov	r0, r10
    2f18:	e594101c 	ldr	r1, [r4, #28]
    2f1c:	e1a02009 	mov	r2, r9
    2f20:	e594c024 	ldr	r12, [r4, #36]	; 0x24
    2f24:	e1a0e00f 	mov	lr, pc
    2f28:	e12fff1c 	bx	r12
    2f2c:	e2508000 	subs	r8, r0, #0
    2f30:	daffffb8 	ble	2e18 <__sfvwrite_r+0x1c4>
    2f34:	e1a03008 	mov	r3, r8
    2f38:	eaffffa0 	b	2dc0 <__sfvwrite_r+0x16c>
    2f3c:	e1a02003 	mov	r2, r3
    2f40:	e1a0100b 	mov	r1, r11
    2f44:	e58d3004 	str	r3, [sp, #4]
    2f48:	e58dc000 	str	r12, [sp]
    2f4c:	eb0003d2 	bl	3e9c <memmove>
    2f50:	e59d3004 	ldr	r3, [sp, #4]
    2f54:	e5941008 	ldr	r1, [r4, #8]
    2f58:	e5942000 	ldr	r2, [r4]
    2f5c:	e1a06003 	mov	r6, r3
    2f60:	e0631001 	rsb	r1, r3, r1
    2f64:	e0822003 	add	r2, r2, r3
    2f68:	e0599006 	subs	r9, r9, r6
    2f6c:	e5841008 	str	r1, [r4, #8]
    2f70:	e5842000 	str	r2, [r4]
    2f74:	e59dc000 	ldr	r12, [sp]
    2f78:	1affffce 	bne	2eb8 <__sfvwrite_r+0x264>
    2f7c:	e1a0000a 	mov	r0, r10
    2f80:	e1a01004 	mov	r1, r4
    2f84:	ebfffc94 	bl	21dc <_fflush_r>
    2f88:	e3500000 	cmp	r0, #0
    2f8c:	1affffa1 	bne	2e18 <__sfvwrite_r+0x1c4>
    2f90:	e1a0c009 	mov	r12, r9
    2f94:	eaffffc7 	b	2eb8 <__sfvwrite_r+0x264>
    2f98:	e5940000 	ldr	r0, [r4]
    2f9c:	e1a0b006 	mov	r11, r6
    2fa0:	e1a03006 	mov	r3, r6
    2fa4:	e1a08006 	mov	r8, r6
    2fa8:	e1a0c006 	mov	r12, r6
    2fac:	eaffff76 	b	2d8c <__sfvwrite_r+0x138>
    2fb0:	e1a02006 	mov	r2, r6
    2fb4:	e1a01009 	mov	r1, r9
    2fb8:	eb0003b7 	bl	3e9c <memmove>
    2fbc:	e5942008 	ldr	r2, [r4, #8]
    2fc0:	e5943000 	ldr	r3, [r4]
    2fc4:	e0662002 	rsb	r2, r6, r2
    2fc8:	e0833006 	add	r3, r3, r6
    2fcc:	e5843000 	str	r3, [r4]
    2fd0:	e5842008 	str	r2, [r4, #8]
    2fd4:	e1a08006 	mov	r8, r6
    2fd8:	e1a03006 	mov	r3, r6
    2fdc:	eaffff77 	b	2dc0 <__sfvwrite_r+0x16c>
    2fe0:	e1a0000b 	mov	r0, r11
    2fe4:	e3a0100a 	mov	r1, #10
    2fe8:	e1a02008 	mov	r2, r8
    2fec:	eb0002e0 	bl	3b74 <memchr>
    2ff0:	e3500000 	cmp	r0, #0
    2ff4:	12809001 	addne	r9, r0, #1
    2ff8:	106b9009 	rsbne	r9, r11, r9
    2ffc:	02889001 	addeq	r9, r8, #1
    3000:	e3a0c001 	mov	r12, #1
    3004:	eaffff90 	b	2e4c <__sfvwrite_r+0x1f8>
    3008:	e5941010 	ldr	r1, [r4, #16]
    300c:	e594b000 	ldr	r11, [r4]
    3010:	e5948014 	ldr	r8, [r4, #20]
    3014:	e061b00b 	rsb	r11, r1, r11
    3018:	e0888088 	add	r8, r8, r8, lsl #1
    301c:	e0888fa8 	add	r8, r8, r8, lsr #31
    3020:	e28b0001 	add	r0, r11, #1
    3024:	e1a080c8 	asr	r8, r8, #1
    3028:	e0800006 	add	r0, r0, r6
    302c:	e1580000 	cmp	r8, r0
    3030:	e1a02008 	mov	r2, r8
    3034:	31a08000 	movcc	r8, r0
    3038:	31a02008 	movcc	r2, r8
    303c:	e3130b01 	tst	r3, #1024	; 0x400
    3040:	e1a0000a 	mov	r0, r10
    3044:	0affff6b 	beq	2df8 <__sfvwrite_r+0x1a4>
    3048:	e1a01002 	mov	r1, r2
    304c:	eb000101 	bl	3458 <_malloc_r>
    3050:	e2503000 	subs	r3, r0, #0
    3054:	0affff6d 	beq	2e10 <__sfvwrite_r+0x1bc>
    3058:	e5941010 	ldr	r1, [r4, #16]
    305c:	e1a0200b 	mov	r2, r11
    3060:	e58d3004 	str	r3, [sp, #4]
    3064:	eb000309 	bl	3c90 <memcpy>
    3068:	e1d420bc 	ldrh	r2, [r4, #12]
    306c:	e3c22d12 	bic	r2, r2, #1152	; 0x480
    3070:	e3822080 	orr	r2, r2, #128	; 0x80
    3074:	e1c420bc 	strh	r2, [r4, #12]
    3078:	e59d3004 	ldr	r3, [sp, #4]
    307c:	e083000b 	add	r0, r3, r11
    3080:	e06b2008 	rsb	r2, r11, r8
    3084:	e5843010 	str	r3, [r4, #16]
    3088:	e5848014 	str	r8, [r4, #20]
    308c:	e5840000 	str	r0, [r4]
    3090:	e1a0b006 	mov	r11, r6
    3094:	e5842008 	str	r2, [r4, #8]
    3098:	e1a03006 	mov	r3, r6
    309c:	e1a08006 	mov	r8, r6
    30a0:	e1a0c006 	mov	r12, r6
    30a4:	eaffff38 	b	2d8c <__sfvwrite_r+0x138>
    30a8:	e1a0100b 	mov	r1, r11
    30ac:	e1a02006 	mov	r2, r6
    30b0:	e58dc000 	str	r12, [sp]
    30b4:	eb000378 	bl	3e9c <memmove>
    30b8:	e5943000 	ldr	r3, [r4]
    30bc:	e0833006 	add	r3, r3, r6
    30c0:	e5843000 	str	r3, [r4]
    30c4:	e1a0000a 	mov	r0, r10
    30c8:	e1a01004 	mov	r1, r4
    30cc:	ebfffc42 	bl	21dc <_fflush_r>
    30d0:	e3500000 	cmp	r0, #0
    30d4:	e59dc000 	ldr	r12, [sp]
    30d8:	0affff74 	beq	2eb0 <__sfvwrite_r+0x25c>
    30dc:	eaffff4d 	b	2e18 <__sfvwrite_r+0x1c4>
    30e0:	e1a01009 	mov	r1, r9
    30e4:	e1a02008 	mov	r2, r8
    30e8:	e58d8004 	str	r8, [sp, #4]
    30ec:	eb00036a 	bl	3e9c <memmove>
    30f0:	e5942000 	ldr	r2, [r4]
    30f4:	e0822008 	add	r2, r2, r8
    30f8:	e5842000 	str	r2, [r4]
    30fc:	e1a0000a 	mov	r0, r10
    3100:	e1a01004 	mov	r1, r4
    3104:	ebfffc34 	bl	21dc <_fflush_r>
    3108:	e3500000 	cmp	r0, #0
    310c:	e59d3004 	ldr	r3, [sp, #4]
    3110:	0affff2a 	beq	2dc0 <__sfvwrite_r+0x16c>
    3114:	eaffff3f 	b	2e18 <__sfvwrite_r+0x1c4>

00003118 <_fwalk>:
    3118:	e92d41f0 	push	{r4, r5, r6, r7, r8, lr}
    311c:	e1a06000 	mov	r6, r0
    3120:	e1a08001 	mov	r8, r1
    3124:	ebfffd62 	bl	26b4 <__sfp_lock_acquire>
    3128:	e2966e2e 	adds	r6, r6, #736	; 0x2e0
    312c:	0a000019 	beq	3198 <_fwalk+0x80>
    3130:	e3a07000 	mov	r7, #0
    3134:	e5965004 	ldr	r5, [r6, #4]
    3138:	e2555001 	subs	r5, r5, #1
    313c:	e5964008 	ldr	r4, [r6, #8]
    3140:	4a00000d 	bmi	317c <_fwalk+0x64>
    3144:	e1d430fc 	ldrsh	r3, [r4, #12]
    3148:	e3530000 	cmp	r3, #0
    314c:	e2455001 	sub	r5, r5, #1
    3150:	0a000006 	beq	3170 <_fwalk+0x58>
    3154:	e1d430fe 	ldrsh	r3, [r4, #14]
    3158:	e3730001 	cmn	r3, #1
    315c:	e1a00004 	mov	r0, r4
    3160:	0a000002 	beq	3170 <_fwalk+0x58>
    3164:	e1a0e00f 	mov	lr, pc
    3168:	e12fff18 	bx	r8
    316c:	e1877000 	orr	r7, r7, r0
    3170:	e3750001 	cmn	r5, #1
    3174:	e2844068 	add	r4, r4, #104	; 0x68
    3178:	1afffff1 	bne	3144 <_fwalk+0x2c>
    317c:	e5966000 	ldr	r6, [r6]
    3180:	e3560000 	cmp	r6, #0
    3184:	1affffea 	bne	3134 <_fwalk+0x1c>
    3188:	ebfffd4a 	bl	26b8 <__sfp_lock_release>
    318c:	e1a00007 	mov	r0, r7
    3190:	e8bd41f0 	pop	{r4, r5, r6, r7, r8, lr}
    3194:	e12fff1e 	bx	lr
    3198:	e1a07006 	mov	r7, r6
    319c:	eafffff9 	b	3188 <_fwalk+0x70>

000031a0 <_fwalk_reent>:
    31a0:	e92d45f8 	push	{r3, r4, r5, r6, r7, r8, r10, lr}
    31a4:	e1a07000 	mov	r7, r0
    31a8:	e1a08001 	mov	r8, r1
    31ac:	ebfffd40 	bl	26b4 <__sfp_lock_acquire>
    31b0:	e2976e2e 	adds	r6, r7, #736	; 0x2e0
    31b4:	0a00001a 	beq	3224 <_fwalk_reent+0x84>
    31b8:	e3a0a000 	mov	r10, #0
    31bc:	e5965004 	ldr	r5, [r6, #4]
    31c0:	e2555001 	subs	r5, r5, #1
    31c4:	e5964008 	ldr	r4, [r6, #8]
    31c8:	4a00000e 	bmi	3208 <_fwalk_reent+0x68>
    31cc:	e1d430fc 	ldrsh	r3, [r4, #12]
    31d0:	e3530000 	cmp	r3, #0
    31d4:	e2455001 	sub	r5, r5, #1
    31d8:	0a000007 	beq	31fc <_fwalk_reent+0x5c>
    31dc:	e1d430fe 	ldrsh	r3, [r4, #14]
    31e0:	e3730001 	cmn	r3, #1
    31e4:	e1a01004 	mov	r1, r4
    31e8:	e1a00007 	mov	r0, r7
    31ec:	0a000002 	beq	31fc <_fwalk_reent+0x5c>
    31f0:	e1a0e00f 	mov	lr, pc
    31f4:	e12fff18 	bx	r8
    31f8:	e18aa000 	orr	r10, r10, r0
    31fc:	e3750001 	cmn	r5, #1
    3200:	e2844068 	add	r4, r4, #104	; 0x68
    3204:	1afffff0 	bne	31cc <_fwalk_reent+0x2c>
    3208:	e5966000 	ldr	r6, [r6]
    320c:	e3560000 	cmp	r6, #0
    3210:	1affffe9 	bne	31bc <_fwalk_reent+0x1c>
    3214:	ebfffd27 	bl	26b8 <__sfp_lock_release>
    3218:	e1a0000a 	mov	r0, r10
    321c:	e8bd45f8 	pop	{r3, r4, r5, r6, r7, r8, r10, lr}
    3220:	e12fff1e 	bx	lr
    3224:	e1a0a006 	mov	r10, r6
    3228:	eafffff9 	b	3214 <_fwalk_reent+0x74>

0000322c <_setlocale_r>:
    322c:	e92d4010 	push	{r4, lr}
    3230:	e2524000 	subs	r4, r2, #0
    3234:	0a000004 	beq	324c <_setlocale_r+0x20>
    3238:	e1a00004 	mov	r0, r4
    323c:	e59f1048 	ldr	r1, [pc, #72]	; 328c <_setlocale_r+0x60>
    3240:	eb0005fc 	bl	4a38 <strcmp>
    3244:	e3500000 	cmp	r0, #0
    3248:	1a000002 	bne	3258 <_setlocale_r+0x2c>
    324c:	e59f003c 	ldr	r0, [pc, #60]	; 3290 <_setlocale_r+0x64>
    3250:	e8bd4010 	pop	{r4, lr}
    3254:	e12fff1e 	bx	lr
    3258:	e1a00004 	mov	r0, r4
    325c:	e59f102c 	ldr	r1, [pc, #44]	; 3290 <_setlocale_r+0x64>
    3260:	eb0005f4 	bl	4a38 <strcmp>
    3264:	e3500000 	cmp	r0, #0
    3268:	0afffff7 	beq	324c <_setlocale_r+0x20>
    326c:	e1a00004 	mov	r0, r4
    3270:	e59f101c 	ldr	r1, [pc, #28]	; 3294 <_setlocale_r+0x68>
    3274:	eb0005ef 	bl	4a38 <strcmp>
    3278:	e59f3010 	ldr	r3, [pc, #16]	; 3290 <_setlocale_r+0x64>
    327c:	e3500000 	cmp	r0, #0
    3280:	01a00003 	moveq	r0, r3
    3284:	13a00000 	movne	r0, #0
    3288:	eafffff0 	b	3250 <_setlocale_r+0x24>
    328c:	0000e4e4 	.word	0x0000e4e4
    3290:	0000e490 	.word	0x0000e490
    3294:	0000e458 	.word	0x0000e458

00003298 <__locale_charset>:
    3298:	e59f0000 	ldr	r0, [pc]	; 32a0 <__locale_charset+0x8>
    329c:	e12fff1e 	bx	lr
    32a0:	0000e980 	.word	0x0000e980

000032a4 <__locale_mb_cur_max>:
    32a4:	e59f3004 	ldr	r3, [pc, #4]	; 32b0 <__locale_mb_cur_max+0xc>
    32a8:	e5930020 	ldr	r0, [r3, #32]
    32ac:	e12fff1e 	bx	lr
    32b0:	0000e980 	.word	0x0000e980

000032b4 <__locale_msgcharset>:
    32b4:	e59f0000 	ldr	r0, [pc]	; 32bc <__locale_msgcharset+0x8>
    32b8:	e12fff1e 	bx	lr
    32bc:	0000e9a4 	.word	0x0000e9a4

000032c0 <__locale_cjk_lang>:
    32c0:	e3a00000 	mov	r0, #0
    32c4:	e12fff1e 	bx	lr

000032c8 <_localeconv_r>:
    32c8:	e59f0000 	ldr	r0, [pc]	; 32d0 <_localeconv_r+0x8>
    32cc:	e12fff1e 	bx	lr
    32d0:	0000e9c4 	.word	0x0000e9c4

000032d4 <setlocale>:
    32d4:	e1a02001 	mov	r2, r1
    32d8:	e59f100c 	ldr	r1, [pc, #12]	; 32ec <setlocale+0x18>
    32dc:	e1a03000 	mov	r3, r0
    32e0:	e5910000 	ldr	r0, [r1]
    32e4:	e1a01003 	mov	r1, r3
    32e8:	eaffffcf 	b	322c <_setlocale_r>
    32ec:	0000e550 	.word	0x0000e550

000032f0 <localeconv>:
    32f0:	e59f0000 	ldr	r0, [pc]	; 32f8 <localeconv+0x8>
    32f4:	e12fff1e 	bx	lr
    32f8:	0000e9c4 	.word	0x0000e9c4

000032fc <__smakebuf_r>:
    32fc:	e92d40f0 	push	{r4, r5, r6, r7, lr}
    3300:	e1d130bc 	ldrh	r3, [r1, #12]
    3304:	e3130002 	tst	r3, #2
    3308:	e24dd044 	sub	sp, sp, #68	; 0x44
    330c:	e1a04001 	mov	r4, r1
    3310:	e1a05000 	mov	r5, r0
    3314:	1a00002b 	bne	33c8 <__smakebuf_r+0xcc>
    3318:	e1d110fe 	ldrsh	r1, [r1, #14]
    331c:	e3510000 	cmp	r1, #0
    3320:	ba000010 	blt	3368 <__smakebuf_r+0x6c>
    3324:	e28d2004 	add	r2, sp, #4
    3328:	eb000788 	bl	5150 <_fstat_r>
    332c:	e3500000 	cmp	r0, #0
    3330:	ba00000b 	blt	3364 <__smakebuf_r+0x68>
    3334:	e59d3008 	ldr	r3, [sp, #8]
    3338:	e2033a0f 	and	r3, r3, #61440	; 0xf000
    333c:	e2532a02 	subs	r2, r3, #8192	; 0x2000
    3340:	e2727000 	rsbs	r7, r2, #0
    3344:	e0b77002 	adcs	r7, r7, r2
    3348:	e3530902 	cmp	r3, #32768	; 0x8000
    334c:	0a000023 	beq	33e0 <__smakebuf_r+0xe4>
    3350:	e1d430bc 	ldrh	r3, [r4, #12]
    3354:	e3833b02 	orr	r3, r3, #2048	; 0x800
    3358:	e1c430bc 	strh	r3, [r4, #12]
    335c:	e3a06b01 	mov	r6, #1024	; 0x400
    3360:	ea000006 	b	3380 <__smakebuf_r+0x84>
    3364:	e1d430bc 	ldrh	r3, [r4, #12]
    3368:	e3130080 	tst	r3, #128	; 0x80
    336c:	e3833b02 	orr	r3, r3, #2048	; 0x800
    3370:	e1c430bc 	strh	r3, [r4, #12]
    3374:	03a06b01 	moveq	r6, #1024	; 0x400
    3378:	13a06040 	movne	r6, #64	; 0x40
    337c:	e3a07000 	mov	r7, #0
    3380:	e1a00005 	mov	r0, r5
    3384:	e1a01006 	mov	r1, r6
    3388:	eb000032 	bl	3458 <_malloc_r>
    338c:	e3500000 	cmp	r0, #0
    3390:	e1d430bc 	ldrh	r3, [r4, #12]
    3394:	0a000023 	beq	3428 <__smakebuf_r+0x12c>
    3398:	e59f20b0 	ldr	r2, [pc, #176]	; 3450 <__smakebuf_r+0x154>
    339c:	e3833080 	orr	r3, r3, #128	; 0x80
    33a0:	e3570000 	cmp	r7, #0
    33a4:	e585203c 	str	r2, [r5, #60]	; 0x3c
    33a8:	e1c430bc 	strh	r3, [r4, #12]
    33ac:	e5840000 	str	r0, [r4]
    33b0:	e5840010 	str	r0, [r4, #16]
    33b4:	e5846014 	str	r6, [r4, #20]
    33b8:	1a000012 	bne	3408 <__smakebuf_r+0x10c>
    33bc:	e28dd044 	add	sp, sp, #68	; 0x44
    33c0:	e8bd40f0 	pop	{r4, r5, r6, r7, lr}
    33c4:	e12fff1e 	bx	lr
    33c8:	e2813043 	add	r3, r1, #67	; 0x43
    33cc:	e5813000 	str	r3, [r1]
    33d0:	e5813010 	str	r3, [r1, #16]
    33d4:	e3a03001 	mov	r3, #1
    33d8:	e5813014 	str	r3, [r1, #20]
    33dc:	eafffff6 	b	33bc <__smakebuf_r+0xc0>
    33e0:	e5942028 	ldr	r2, [r4, #40]	; 0x28
    33e4:	e59f3068 	ldr	r3, [pc, #104]	; 3454 <__smakebuf_r+0x158>
    33e8:	e1520003 	cmp	r2, r3
    33ec:	1affffd7 	bne	3350 <__smakebuf_r+0x54>
    33f0:	e1d430bc 	ldrh	r3, [r4, #12]
    33f4:	e3a06b01 	mov	r6, #1024	; 0x400
    33f8:	e1833006 	orr	r3, r3, r6
    33fc:	e1c430bc 	strh	r3, [r4, #12]
    3400:	e584604c 	str	r6, [r4, #76]	; 0x4c
    3404:	eaffffdd 	b	3380 <__smakebuf_r+0x84>
    3408:	e1a00005 	mov	r0, r5
    340c:	e1d410fe 	ldrsh	r1, [r4, #14]
    3410:	eb00075e 	bl	5190 <_isatty_r>
    3414:	e3500000 	cmp	r0, #0
    3418:	11d430bc 	ldrhne	r3, [r4, #12]
    341c:	13833001 	orrne	r3, r3, #1
    3420:	11c430bc 	strhne	r3, [r4, #12]
    3424:	eaffffe4 	b	33bc <__smakebuf_r+0xc0>
    3428:	e3130c02 	tst	r3, #512	; 0x200
    342c:	1affffe2 	bne	33bc <__smakebuf_r+0xc0>
    3430:	e3833002 	orr	r3, r3, #2
    3434:	e2842043 	add	r2, r4, #67	; 0x43
    3438:	e1c430bc 	strh	r3, [r4, #12]
    343c:	e3a03001 	mov	r3, #1
    3440:	e5842000 	str	r2, [r4]
    3444:	e5842010 	str	r2, [r4, #16]
    3448:	e5843014 	str	r3, [r4, #20]
    344c:	eaffffda 	b	33bc <__smakebuf_r+0xc0>
    3450:	00002458 	.word	0x00002458
    3454:	000049f0 	.word	0x000049f0

00003458 <_malloc_r>:
    3458:	e92d4ff0 	push	{r4, r5, r6, r7, r8, r9, r10, r11, lr}
    345c:	e281500b 	add	r5, r1, #11
    3460:	e3550016 	cmp	r5, #22
    3464:	83c55007 	bichi	r5, r5, #7
    3468:	81a03fa5 	lsrhi	r3, r5, #31
    346c:	93a03000 	movls	r3, #0
    3470:	93a05010 	movls	r5, #16
    3474:	e1550001 	cmp	r5, r1
    3478:	21a01003 	movcs	r1, r3
    347c:	33831001 	orrcc	r1, r3, #1
    3480:	e3510000 	cmp	r1, #0
    3484:	13a0300c 	movne	r3, #12
    3488:	e24dd00c 	sub	sp, sp, #12
    348c:	e1a06000 	mov	r6, r0
    3490:	15803000 	strne	r3, [r0]
    3494:	13a04000 	movne	r4, #0
    3498:	1a000015 	bne	34f4 <_malloc_r+0x9c>
    349c:	eb000318 	bl	4104 <__malloc_lock>
    34a0:	e3550f7e 	cmp	r5, #504	; 0x1f8
    34a4:	2a000016 	bcs	3504 <_malloc_r+0xac>
    34a8:	e59f76b8 	ldr	r7, [pc, #1720]	; 3b68 <_malloc_r+0x710>
    34ac:	e1a0e1a5 	lsr	lr, r5, #3
    34b0:	e087318e 	add	r3, r7, lr, lsl #3
    34b4:	e593400c 	ldr	r4, [r3, #12]
    34b8:	e1540003 	cmp	r4, r3
    34bc:	0a00014b 	beq	39f0 <_malloc_r+0x598>
    34c0:	e5943004 	ldr	r3, [r4, #4]
    34c4:	e3c33003 	bic	r3, r3, #3
    34c8:	e0843003 	add	r3, r4, r3
    34cc:	e5930004 	ldr	r0, [r3, #4]
    34d0:	e2841008 	add	r1, r4, #8
    34d4:	e8910006 	ldm	r1, {r1, r2}
    34d8:	e3800001 	orr	r0, r0, #1
    34dc:	e5830004 	str	r0, [r3, #4]
    34e0:	e581200c 	str	r2, [r1, #12]
    34e4:	e5821008 	str	r1, [r2, #8]
    34e8:	e1a00006 	mov	r0, r6
    34ec:	eb000305 	bl	4108 <__malloc_unlock>
    34f0:	e2844008 	add	r4, r4, #8
    34f4:	e1a00004 	mov	r0, r4
    34f8:	e28dd00c 	add	sp, sp, #12
    34fc:	e8bd4ff0 	pop	{r4, r5, r6, r7, r8, r9, r10, r11, lr}
    3500:	e12fff1e 	bx	lr
    3504:	e1b0e4a5 	lsrs	lr, r5, #9
    3508:	01a0e1a5 	lsreq	lr, r5, #3
    350c:	01a0108e 	lsleq	r1, lr, #1
    3510:	1a000061 	bne	369c <_malloc_r+0x244>
    3514:	e59f764c 	ldr	r7, [pc, #1612]	; 3b68 <_malloc_r+0x710>
    3518:	e0871101 	add	r1, r7, r1, lsl #2
    351c:	e591400c 	ldr	r4, [r1, #12]
    3520:	e1510004 	cmp	r1, r4
    3524:	1a000005 	bne	3540 <_malloc_r+0xe8>
    3528:	ea00000a 	b	3558 <_malloc_r+0x100>
    352c:	e3530000 	cmp	r3, #0
    3530:	aa0000d7 	bge	3894 <_malloc_r+0x43c>
    3534:	e594400c 	ldr	r4, [r4, #12]
    3538:	e1510004 	cmp	r1, r4
    353c:	0a000005 	beq	3558 <_malloc_r+0x100>
    3540:	e5942004 	ldr	r2, [r4, #4]
    3544:	e3c22003 	bic	r2, r2, #3
    3548:	e0653002 	rsb	r3, r5, r2
    354c:	e353000f 	cmp	r3, #15
    3550:	dafffff5 	ble	352c <_malloc_r+0xd4>
    3554:	e24ee001 	sub	lr, lr, #1
    3558:	e28ee001 	add	lr, lr, #1
    355c:	e59f3604 	ldr	r3, [pc, #1540]	; 3b68 <_malloc_r+0x710>
    3560:	e5974010 	ldr	r4, [r7, #16]
    3564:	e2838008 	add	r8, r3, #8
    3568:	e1540008 	cmp	r4, r8
    356c:	05931004 	ldreq	r1, [r3, #4]
    3570:	0a000016 	beq	35d0 <_malloc_r+0x178>
    3574:	e5942004 	ldr	r2, [r4, #4]
    3578:	e3c22003 	bic	r2, r2, #3
    357c:	e0651002 	rsb	r1, r5, r2
    3580:	e351000f 	cmp	r1, #15
    3584:	ca0000f7 	bgt	3968 <_malloc_r+0x510>
    3588:	e3510000 	cmp	r1, #0
    358c:	e5838014 	str	r8, [r3, #20]
    3590:	e5838010 	str	r8, [r3, #16]
    3594:	aa000046 	bge	36b4 <_malloc_r+0x25c>
    3598:	e3520c02 	cmp	r2, #512	; 0x200
    359c:	2a0000d2 	bcs	38ec <_malloc_r+0x494>
    35a0:	e5930004 	ldr	r0, [r3, #4]
    35a4:	e1a021a2 	lsr	r2, r2, #3
    35a8:	e1a01142 	asr	r1, r2, #2
    35ac:	e3a0c001 	mov	r12, #1
    35b0:	e180111c 	orr	r1, r0, r12, lsl r1
    35b4:	e0832182 	add	r2, r3, r2, lsl #3
    35b8:	e5920008 	ldr	r0, [r2, #8]
    35bc:	e584200c 	str	r2, [r4, #12]
    35c0:	e5840008 	str	r0, [r4, #8]
    35c4:	e5831004 	str	r1, [r3, #4]
    35c8:	e5824008 	str	r4, [r2, #8]
    35cc:	e580400c 	str	r4, [r0, #12]
    35d0:	e1a0014e 	asr	r0, lr, #2
    35d4:	e3a03001 	mov	r3, #1
    35d8:	e1a00013 	lsl	r0, r3, r0
    35dc:	e1500001 	cmp	r0, r1
    35e0:	8a00003b 	bhi	36d4 <_malloc_r+0x27c>
    35e4:	e1110000 	tst	r1, r0
    35e8:	1a000008 	bne	3610 <_malloc_r+0x1b8>
    35ec:	e1a00310 	lsl	r0, r0, r3
    35f0:	e3cee003 	bic	lr, lr, #3
    35f4:	e1110000 	tst	r1, r0
    35f8:	e28ee004 	add	lr, lr, #4
    35fc:	1a000003 	bne	3610 <_malloc_r+0x1b8>
    3600:	e1a00080 	lsl	r0, r0, #1
    3604:	e1110000 	tst	r1, r0
    3608:	e28ee004 	add	lr, lr, #4
    360c:	0afffffb 	beq	3600 <_malloc_r+0x1a8>
    3610:	e087a18e 	add	r10, r7, lr, lsl #3
    3614:	e1a0c00a 	mov	r12, r10
    3618:	e1a0400e 	mov	r4, lr
    361c:	e59c300c 	ldr	r3, [r12, #12]
    3620:	e15c0003 	cmp	r12, r3
    3624:	1a000005 	bne	3640 <_malloc_r+0x1e8>
    3628:	ea0000db 	b	399c <_malloc_r+0x544>
    362c:	e3520000 	cmp	r2, #0
    3630:	aa0000f4 	bge	3a08 <_malloc_r+0x5b0>
    3634:	e593300c 	ldr	r3, [r3, #12]
    3638:	e15c0003 	cmp	r12, r3
    363c:	0a0000d6 	beq	399c <_malloc_r+0x544>
    3640:	e5931004 	ldr	r1, [r3, #4]
    3644:	e3c11003 	bic	r1, r1, #3
    3648:	e0652001 	rsb	r2, r5, r1
    364c:	e352000f 	cmp	r2, #15
    3650:	dafffff5 	ble	362c <_malloc_r+0x1d4>
    3654:	e1a04003 	mov	r4, r3
    3658:	e593000c 	ldr	r0, [r3, #12]
    365c:	e5b4c008 	ldr	r12, [r4, #8]!
    3660:	e0831005 	add	r1, r3, r5
    3664:	e382e001 	orr	lr, r2, #1
    3668:	e3855001 	orr	r5, r5, #1
    366c:	e58c000c 	str	r0, [r12, #12]
    3670:	e580c008 	str	r12, [r0, #8]
    3674:	e5835004 	str	r5, [r3, #4]
    3678:	e5871014 	str	r1, [r7, #20]
    367c:	e5871010 	str	r1, [r7, #16]
    3680:	e581800c 	str	r8, [r1, #12]
    3684:	e5818008 	str	r8, [r1, #8]
    3688:	e581e004 	str	lr, [r1, #4]
    368c:	e7812002 	str	r2, [r1, r2]
    3690:	e1a00006 	mov	r0, r6
    3694:	eb00029b 	bl	4108 <__malloc_unlock>
    3698:	eaffff95 	b	34f4 <_malloc_r+0x9c>
    369c:	e35e0004 	cmp	lr, #4
    36a0:	8a000087 	bhi	38c4 <_malloc_r+0x46c>
    36a4:	e1a0e325 	lsr	lr, r5, #6
    36a8:	e28ee038 	add	lr, lr, #56	; 0x38
    36ac:	e1a0108e 	lsl	r1, lr, #1
    36b0:	eaffff97 	b	3514 <_malloc_r+0xbc>
    36b4:	e0842002 	add	r2, r4, r2
    36b8:	e5923004 	ldr	r3, [r2, #4]
    36bc:	e3833001 	orr	r3, r3, #1
    36c0:	e5823004 	str	r3, [r2, #4]
    36c4:	e1a00006 	mov	r0, r6
    36c8:	eb00028e 	bl	4108 <__malloc_unlock>
    36cc:	e2844008 	add	r4, r4, #8
    36d0:	eaffff87 	b	34f4 <_malloc_r+0x9c>
    36d4:	e5974008 	ldr	r4, [r7, #8]
    36d8:	e594a004 	ldr	r10, [r4, #4]
    36dc:	e3caa003 	bic	r10, r10, #3
    36e0:	e155000a 	cmp	r5, r10
    36e4:	8a000002 	bhi	36f4 <_malloc_r+0x29c>
    36e8:	e065300a 	rsb	r3, r5, r10
    36ec:	e353000f 	cmp	r3, #15
    36f0:	ca00005d 	bgt	386c <_malloc_r+0x414>
    36f4:	e59f9470 	ldr	r9, [pc, #1136]	; 3b6c <_malloc_r+0x714>
    36f8:	e5973408 	ldr	r3, [r7, #1032]	; 0x408
    36fc:	e599b000 	ldr	r11, [r9]
    3700:	e3730001 	cmn	r3, #1
    3704:	e085b00b 	add	r11, r5, r11
    3708:	128bba01 	addne	r11, r11, #4096	; 0x1000
    370c:	128bb00f 	addne	r11, r11, #15
    3710:	13cbbeff 	bicne	r11, r11, #4080	; 0xff0
    3714:	028bb010 	addeq	r11, r11, #16
    3718:	13cbb00f 	bicne	r11, r11, #15
    371c:	e084200a 	add	r2, r4, r10
    3720:	e1a00006 	mov	r0, r6
    3724:	e1a0100b 	mov	r1, r11
    3728:	e58d2004 	str	r2, [sp, #4]
    372c:	eb0003d3 	bl	4680 <_sbrk_r>
    3730:	e3700001 	cmn	r0, #1
    3734:	e1a08000 	mov	r8, r0
    3738:	e59d2004 	ldr	r2, [sp, #4]
    373c:	0a0000e2 	beq	3acc <_malloc_r+0x674>
    3740:	e1520000 	cmp	r2, r0
    3744:	8a0000bf 	bhi	3a48 <_malloc_r+0x5f0>
    3748:	e5993004 	ldr	r3, [r9, #4]
    374c:	e1520008 	cmp	r2, r8
    3750:	e08b3003 	add	r3, r11, r3
    3754:	e5893004 	str	r3, [r9, #4]
    3758:	0a0000df 	beq	3adc <_malloc_r+0x684>
    375c:	e5971408 	ldr	r1, [r7, #1032]	; 0x408
    3760:	e3710001 	cmn	r1, #1
    3764:	10622008 	rsbne	r2, r2, r8
    3768:	059f33f8 	ldreq	r3, [pc, #1016]	; 3b68 <_malloc_r+0x710>
    376c:	10833002 	addne	r3, r3, r2
    3770:	05838408 	streq	r8, [r3, #1032]	; 0x408
    3774:	15893004 	strne	r3, [r9, #4]
    3778:	e2183007 	ands	r3, r8, #7
    377c:	12632008 	rsbne	r2, r3, #8
    3780:	10888002 	addne	r8, r8, r2
    3784:	12633a01 	rsbne	r3, r3, #4096	; 0x1000
    3788:	12832008 	addne	r2, r3, #8
    378c:	e088300b 	add	r3, r8, r11
    3790:	03a02a01 	moveq	r2, #4096	; 0x1000
    3794:	e1a03a03 	lsl	r3, r3, #20
    3798:	e042ba23 	sub	r11, r2, r3, lsr #20
    379c:	e1a0100b 	mov	r1, r11
    37a0:	e1a00006 	mov	r0, r6
    37a4:	eb0003b5 	bl	4680 <_sbrk_r>
    37a8:	e3700001 	cmn	r0, #1
    37ac:	10682000 	rsbne	r2, r8, r0
    37b0:	e5993004 	ldr	r3, [r9, #4]
    37b4:	108b2002 	addne	r2, r11, r2
    37b8:	03a0b000 	moveq	r11, #0
    37bc:	13822001 	orrne	r2, r2, #1
    37c0:	03a02001 	moveq	r2, #1
    37c4:	e08b3003 	add	r3, r11, r3
    37c8:	e1540007 	cmp	r4, r7
    37cc:	e5893004 	str	r3, [r9, #4]
    37d0:	e5878008 	str	r8, [r7, #8]
    37d4:	e5882004 	str	r2, [r8, #4]
    37d8:	0a00000d 	beq	3814 <_malloc_r+0x3bc>
    37dc:	e35a000f 	cmp	r10, #15
    37e0:	9a0000ac 	bls	3a98 <_malloc_r+0x640>
    37e4:	e594c004 	ldr	r12, [r4, #4]
    37e8:	e24a200c 	sub	r2, r10, #12
    37ec:	e3c22007 	bic	r2, r2, #7
    37f0:	e20cc001 	and	r12, r12, #1
    37f4:	e0841002 	add	r1, r4, r2
    37f8:	e3a00005 	mov	r0, #5
    37fc:	e182c00c 	orr	r12, r2, r12
    3800:	e352000f 	cmp	r2, #15
    3804:	e584c004 	str	r12, [r4, #4]
    3808:	e5810004 	str	r0, [r1, #4]
    380c:	e5810008 	str	r0, [r1, #8]
    3810:	8a0000b8 	bhi	3af8 <_malloc_r+0x6a0>
    3814:	e599202c 	ldr	r2, [r9, #44]	; 0x2c
    3818:	e1530002 	cmp	r3, r2
    381c:	859f2348 	ldrhi	r2, [pc, #840]	; 3b6c <_malloc_r+0x714>
    3820:	8582302c 	strhi	r3, [r2, #44]	; 0x2c
    3824:	e5992030 	ldr	r2, [r9, #48]	; 0x30
    3828:	e5974008 	ldr	r4, [r7, #8]
    382c:	e1530002 	cmp	r3, r2
    3830:	95943004 	ldrls	r3, [r4, #4]
    3834:	85942004 	ldrhi	r2, [r4, #4]
    3838:	859f132c 	ldrhi	r1, [pc, #812]	; 3b6c <_malloc_r+0x714>
    383c:	93c33003 	bicls	r3, r3, #3
    3840:	85813030 	strhi	r3, [r1, #48]	; 0x30
    3844:	83c23003 	bichi	r3, r2, #3
    3848:	e1550003 	cmp	r5, r3
    384c:	e0653003 	rsb	r3, r5, r3
    3850:	8a000001 	bhi	385c <_malloc_r+0x404>
    3854:	e353000f 	cmp	r3, #15
    3858:	ca000003 	bgt	386c <_malloc_r+0x414>
    385c:	e1a00006 	mov	r0, r6
    3860:	eb000228 	bl	4108 <__malloc_unlock>
    3864:	e3a04000 	mov	r4, #0
    3868:	eaffff21 	b	34f4 <_malloc_r+0x9c>
    386c:	e0842005 	add	r2, r4, r5
    3870:	e3833001 	orr	r3, r3, #1
    3874:	e3855001 	orr	r5, r5, #1
    3878:	e5845004 	str	r5, [r4, #4]
    387c:	e1a00006 	mov	r0, r6
    3880:	e5823004 	str	r3, [r2, #4]
    3884:	e5872008 	str	r2, [r7, #8]
    3888:	e2844008 	add	r4, r4, #8
    388c:	eb00021d 	bl	4108 <__malloc_unlock>
    3890:	eaffff17 	b	34f4 <_malloc_r+0x9c>
    3894:	e0842002 	add	r2, r4, r2
    3898:	e5920004 	ldr	r0, [r2, #4]
    389c:	e2841008 	add	r1, r4, #8
    38a0:	e891000a 	ldm	r1, {r1, r3}
    38a4:	e3800001 	orr	r0, r0, #1
    38a8:	e5820004 	str	r0, [r2, #4]
    38ac:	e581300c 	str	r3, [r1, #12]
    38b0:	e5831008 	str	r1, [r3, #8]
    38b4:	e1a00006 	mov	r0, r6
    38b8:	eb000212 	bl	4108 <__malloc_unlock>
    38bc:	e2844008 	add	r4, r4, #8
    38c0:	eaffff0b 	b	34f4 <_malloc_r+0x9c>
    38c4:	e35e0014 	cmp	lr, #20
    38c8:	928ee05b 	addls	lr, lr, #91	; 0x5b
    38cc:	91a0108e 	lslls	r1, lr, #1
    38d0:	9affff0f 	bls	3514 <_malloc_r+0xbc>
    38d4:	e35e0054 	cmp	lr, #84	; 0x54
    38d8:	8a000061 	bhi	3a64 <_malloc_r+0x60c>
    38dc:	e1a0e625 	lsr	lr, r5, #12
    38e0:	e28ee06e 	add	lr, lr, #110	; 0x6e
    38e4:	e1a0108e 	lsl	r1, lr, #1
    38e8:	eaffff09 	b	3514 <_malloc_r+0xbc>
    38ec:	e1a034a2 	lsr	r3, r2, #9
    38f0:	e3530004 	cmp	r3, #4
    38f4:	9a00004f 	bls	3a38 <_malloc_r+0x5e0>
    38f8:	e3530014 	cmp	r3, #20
    38fc:	9283a05b 	addls	r10, r3, #91	; 0x5b
    3900:	91a0008a 	lslls	r0, r10, #1
    3904:	9a000004 	bls	391c <_malloc_r+0x4c4>
    3908:	e3530054 	cmp	r3, #84	; 0x54
    390c:	8a00007f 	bhi	3b10 <_malloc_r+0x6b8>
    3910:	e1a0a622 	lsr	r10, r2, #12
    3914:	e28aa06e 	add	r10, r10, #110	; 0x6e
    3918:	e1a0008a 	lsl	r0, r10, #1
    391c:	e0870100 	add	r0, r7, r0, lsl #2
    3920:	e5903008 	ldr	r3, [r0, #8]
    3924:	e1530000 	cmp	r3, r0
    3928:	e59fc238 	ldr	r12, [pc, #568]	; 3b68 <_malloc_r+0x710>
    392c:	0a000052 	beq	3a7c <_malloc_r+0x624>
    3930:	e5931004 	ldr	r1, [r3, #4]
    3934:	e3c11003 	bic	r1, r1, #3
    3938:	e1520001 	cmp	r2, r1
    393c:	2a000002 	bcs	394c <_malloc_r+0x4f4>
    3940:	e5933008 	ldr	r3, [r3, #8]
    3944:	e1500003 	cmp	r0, r3
    3948:	1afffff8 	bne	3930 <_malloc_r+0x4d8>
    394c:	e593200c 	ldr	r2, [r3, #12]
    3950:	e5971004 	ldr	r1, [r7, #4]
    3954:	e584200c 	str	r2, [r4, #12]
    3958:	e5843008 	str	r3, [r4, #8]
    395c:	e583400c 	str	r4, [r3, #12]
    3960:	e5824008 	str	r4, [r2, #8]
    3964:	eaffff19 	b	35d0 <_malloc_r+0x178>
    3968:	e0842005 	add	r2, r4, r5
    396c:	e3810001 	orr	r0, r1, #1
    3970:	e3855001 	orr	r5, r5, #1
    3974:	e5845004 	str	r5, [r4, #4]
    3978:	e5832014 	str	r2, [r3, #20]
    397c:	e5832010 	str	r2, [r3, #16]
    3980:	e582800c 	str	r8, [r2, #12]
    3984:	e9820101 	stmib	r2, {r0, r8}
    3988:	e7821001 	str	r1, [r2, r1]
    398c:	e1a00006 	mov	r0, r6
    3990:	eb0001dc 	bl	4108 <__malloc_unlock>
    3994:	e2844008 	add	r4, r4, #8
    3998:	eafffed5 	b	34f4 <_malloc_r+0x9c>
    399c:	e2844001 	add	r4, r4, #1
    39a0:	e3140003 	tst	r4, #3
    39a4:	e28cc008 	add	r12, r12, #8
    39a8:	1affff1b 	bne	361c <_malloc_r+0x1c4>
    39ac:	e31e0003 	tst	lr, #3
    39b0:	e24a3008 	sub	r3, r10, #8
    39b4:	0a000062 	beq	3b44 <_malloc_r+0x6ec>
    39b8:	e59aa000 	ldr	r10, [r10]
    39bc:	e15a0003 	cmp	r10, r3
    39c0:	e24ee001 	sub	lr, lr, #1
    39c4:	0afffff8 	beq	39ac <_malloc_r+0x554>
    39c8:	e5973004 	ldr	r3, [r7, #4]
    39cc:	e1a00080 	lsl	r0, r0, #1
    39d0:	e1500003 	cmp	r0, r3
    39d4:	8affff3e 	bhi	36d4 <_malloc_r+0x27c>
    39d8:	e3500000 	cmp	r0, #0
    39dc:	0affff3c 	beq	36d4 <_malloc_r+0x27c>
    39e0:	e1130000 	tst	r3, r0
    39e4:	0a00005a 	beq	3b54 <_malloc_r+0x6fc>
    39e8:	e1a0e004 	mov	lr, r4
    39ec:	eaffff07 	b	3610 <_malloc_r+0x1b8>
    39f0:	e2843008 	add	r3, r4, #8
    39f4:	e5944014 	ldr	r4, [r4, #20]
    39f8:	e1530004 	cmp	r3, r4
    39fc:	028ee002 	addeq	lr, lr, #2
    3a00:	0afffed5 	beq	355c <_malloc_r+0x104>
    3a04:	eafffead 	b	34c0 <_malloc_r+0x68>
    3a08:	e0831001 	add	r1, r3, r1
    3a0c:	e5910004 	ldr	r0, [r1, #4]
    3a10:	e1a04003 	mov	r4, r3
    3a14:	e5b42008 	ldr	r2, [r4, #8]!
    3a18:	e593300c 	ldr	r3, [r3, #12]
    3a1c:	e3800001 	orr	r0, r0, #1
    3a20:	e5810004 	str	r0, [r1, #4]
    3a24:	e582300c 	str	r3, [r2, #12]
    3a28:	e5832008 	str	r2, [r3, #8]
    3a2c:	e1a00006 	mov	r0, r6
    3a30:	eb0001b4 	bl	4108 <__malloc_unlock>
    3a34:	eafffeae 	b	34f4 <_malloc_r+0x9c>
    3a38:	e1a0a322 	lsr	r10, r2, #6
    3a3c:	e28aa038 	add	r10, r10, #56	; 0x38
    3a40:	e1a0008a 	lsl	r0, r10, #1
    3a44:	eaffffb4 	b	391c <_malloc_r+0x4c4>
    3a48:	e1540007 	cmp	r4, r7
    3a4c:	0affff3d 	beq	3748 <_malloc_r+0x2f0>
    3a50:	e59f3110 	ldr	r3, [pc, #272]	; 3b68 <_malloc_r+0x710>
    3a54:	e5934008 	ldr	r4, [r3, #8]
    3a58:	e5943004 	ldr	r3, [r4, #4]
    3a5c:	e3c33003 	bic	r3, r3, #3
    3a60:	eaffff78 	b	3848 <_malloc_r+0x3f0>
    3a64:	e35e0f55 	cmp	lr, #340	; 0x154
    3a68:	8a00000f 	bhi	3aac <_malloc_r+0x654>
    3a6c:	e1a0e7a5 	lsr	lr, r5, #15
    3a70:	e28ee077 	add	lr, lr, #119	; 0x77
    3a74:	e1a0108e 	lsl	r1, lr, #1
    3a78:	eafffea5 	b	3514 <_malloc_r+0xbc>
    3a7c:	e59c2004 	ldr	r2, [r12, #4]
    3a80:	e1a0a14a 	asr	r10, r10, #2
    3a84:	e3a01001 	mov	r1, #1
    3a88:	e1821a11 	orr	r1, r2, r1, lsl r10
    3a8c:	e1a02003 	mov	r2, r3
    3a90:	e58c1004 	str	r1, [r12, #4]
    3a94:	eaffffae 	b	3954 <_malloc_r+0x4fc>
    3a98:	e3a03001 	mov	r3, #1
    3a9c:	e5883004 	str	r3, [r8, #4]
    3aa0:	e1a04008 	mov	r4, r8
    3aa4:	e3a03000 	mov	r3, #0
    3aa8:	eaffff66 	b	3848 <_malloc_r+0x3f0>
    3aac:	e59f30bc 	ldr	r3, [pc, #188]	; 3b70 <_malloc_r+0x718>
    3ab0:	e15e0003 	cmp	lr, r3
    3ab4:	91a0e925 	lsrls	lr, r5, #18
    3ab8:	928ee07c 	addls	lr, lr, #124	; 0x7c
    3abc:	91a0108e 	lslls	r1, lr, #1
    3ac0:	83a010fc 	movhi	r1, #252	; 0xfc
    3ac4:	83a0e07e 	movhi	lr, #126	; 0x7e
    3ac8:	eafffe91 	b	3514 <_malloc_r+0xbc>
    3acc:	e5974008 	ldr	r4, [r7, #8]
    3ad0:	e5943004 	ldr	r3, [r4, #4]
    3ad4:	e3c33003 	bic	r3, r3, #3
    3ad8:	eaffff5a 	b	3848 <_malloc_r+0x3f0>
    3adc:	e1b01a02 	lsls	r1, r2, #20
    3ae0:	1affff1d 	bne	375c <_malloc_r+0x304>
    3ae4:	e5972008 	ldr	r2, [r7, #8]
    3ae8:	e08b100a 	add	r1, r11, r10
    3aec:	e3811001 	orr	r1, r1, #1
    3af0:	e5821004 	str	r1, [r2, #4]
    3af4:	eaffff46 	b	3814 <_malloc_r+0x3bc>
    3af8:	e1a00006 	mov	r0, r6
    3afc:	e2841008 	add	r1, r4, #8
    3b00:	ebfffbb8 	bl	29e8 <_free_r>
    3b04:	e59f3060 	ldr	r3, [pc, #96]	; 3b6c <_malloc_r+0x714>
    3b08:	e5933004 	ldr	r3, [r3, #4]
    3b0c:	eaffff40 	b	3814 <_malloc_r+0x3bc>
    3b10:	e3530f55 	cmp	r3, #340	; 0x154
    3b14:	91a0a7a2 	lsrls	r10, r2, #15
    3b18:	928aa077 	addls	r10, r10, #119	; 0x77
    3b1c:	91a0008a 	lslls	r0, r10, #1
    3b20:	9affff7d 	bls	391c <_malloc_r+0x4c4>
    3b24:	e59f1044 	ldr	r1, [pc, #68]	; 3b70 <_malloc_r+0x718>
    3b28:	e1530001 	cmp	r3, r1
    3b2c:	91a0a922 	lsrls	r10, r2, #18
    3b30:	928aa07c 	addls	r10, r10, #124	; 0x7c
    3b34:	91a0008a 	lslls	r0, r10, #1
    3b38:	83a000fc 	movhi	r0, #252	; 0xfc
    3b3c:	83a0a07e 	movhi	r10, #126	; 0x7e
    3b40:	eaffff75 	b	391c <_malloc_r+0x4c4>
    3b44:	e5973004 	ldr	r3, [r7, #4]
    3b48:	e1c33000 	bic	r3, r3, r0
    3b4c:	e5873004 	str	r3, [r7, #4]
    3b50:	eaffff9d 	b	39cc <_malloc_r+0x574>
    3b54:	e1a00080 	lsl	r0, r0, #1
    3b58:	e1130000 	tst	r3, r0
    3b5c:	e2844004 	add	r4, r4, #4
    3b60:	1affffa0 	bne	39e8 <_malloc_r+0x590>
    3b64:	eafffffa 	b	3b54 <_malloc_r+0x6fc>
    3b68:	0000e9fc 	.word	0x0000e9fc
    3b6c:	00043fb4 	.word	0x00043fb4
    3b70:	00000554 	.word	0x00000554

00003b74 <memchr>:
    3b74:	e3100003 	tst	r0, #3
    3b78:	e92d0070 	push	{r4, r5, r6}
    3b7c:	e20110ff 	and	r1, r1, #255	; 0xff
    3b80:	0a00003c 	beq	3c78 <memchr+0x104>
    3b84:	e3520000 	cmp	r2, #0
    3b88:	e242c001 	sub	r12, r2, #1
    3b8c:	0a00003b 	beq	3c80 <memchr+0x10c>
    3b90:	e5d03000 	ldrb	r3, [r0]
    3b94:	e1530001 	cmp	r3, r1
    3b98:	0a00001f 	beq	3c1c <memchr+0xa8>
    3b9c:	e2803001 	add	r3, r0, #1
    3ba0:	ea000006 	b	3bc0 <memchr+0x4c>
    3ba4:	e35c0000 	cmp	r12, #0
    3ba8:	0a00001d 	beq	3c24 <memchr+0xb0>
    3bac:	e5d02000 	ldrb	r2, [r0]
    3bb0:	e1520001 	cmp	r2, r1
    3bb4:	e2833001 	add	r3, r3, #1
    3bb8:	e24cc001 	sub	r12, r12, #1
    3bbc:	0a000016 	beq	3c1c <memchr+0xa8>
    3bc0:	e3130003 	tst	r3, #3
    3bc4:	e1a00003 	mov	r0, r3
    3bc8:	1afffff5 	bne	3ba4 <memchr+0x30>
    3bcc:	e35c0003 	cmp	r12, #3
    3bd0:	8a000015 	bhi	3c2c <memchr+0xb8>
    3bd4:	e35c0000 	cmp	r12, #0
    3bd8:	e24c4001 	sub	r4, r12, #1
    3bdc:	0a000010 	beq	3c24 <memchr+0xb0>
    3be0:	e5d03000 	ldrb	r3, [r0]
    3be4:	e1530001 	cmp	r3, r1
    3be8:	0a00000b 	beq	3c1c <memchr+0xa8>
    3bec:	e2802001 	add	r2, r0, #1
    3bf0:	e3a03000 	mov	r3, #0
    3bf4:	ea000004 	b	3c0c <memchr+0x98>
    3bf8:	e5d0c000 	ldrb	r12, [r0]
    3bfc:	e15c0001 	cmp	r12, r1
    3c00:	e2822001 	add	r2, r2, #1
    3c04:	e2833001 	add	r3, r3, #1
    3c08:	0a000003 	beq	3c1c <memchr+0xa8>
    3c0c:	e1540003 	cmp	r4, r3
    3c10:	e1a00002 	mov	r0, r2
    3c14:	1afffff7 	bne	3bf8 <memchr+0x84>
    3c18:	e3a00000 	mov	r0, #0
    3c1c:	e8bd0070 	pop	{r4, r5, r6}
    3c20:	e12fff1e 	bx	lr
    3c24:	e1a0000c 	mov	r0, r12
    3c28:	eafffffb 	b	3c1c <memchr+0xa8>
    3c2c:	e1816401 	orr	r6, r1, r1, lsl #8
    3c30:	e1866806 	orr	r6, r6, r6, lsl #16
    3c34:	e5903000 	ldr	r3, [r0]
    3c38:	e59f4048 	ldr	r4, [pc, #72]	; 3c88 <memchr+0x114>
    3c3c:	e0263003 	eor	r3, r6, r3
    3c40:	e0834004 	add	r4, r3, r4
    3c44:	e59f2040 	ldr	r2, [pc, #64]	; 3c8c <memchr+0x118>
    3c48:	e1c44003 	bic	r4, r4, r3
    3c4c:	e0042002 	and	r2, r4, r2
    3c50:	e3520000 	cmp	r2, #0
    3c54:	e1a05000 	mov	r5, r0
    3c58:	e2800004 	add	r0, r0, #4
    3c5c:	1a000003 	bne	3c70 <memchr+0xfc>
    3c60:	e24cc004 	sub	r12, r12, #4
    3c64:	e35c0003 	cmp	r12, #3
    3c68:	8afffff1 	bhi	3c34 <memchr+0xc0>
    3c6c:	eaffffd8 	b	3bd4 <memchr+0x60>
    3c70:	e1a00005 	mov	r0, r5
    3c74:	eaffffd6 	b	3bd4 <memchr+0x60>
    3c78:	e1a0c002 	mov	r12, r2
    3c7c:	eaffffd2 	b	3bcc <memchr+0x58>
    3c80:	e1a00002 	mov	r0, r2
    3c84:	eaffffe4 	b	3c1c <memchr+0xa8>
    3c88:	fefefeff 	.word	0xfefefeff
    3c8c:	80808080 	.word	0x80808080

00003c90 <memcpy>:
    3c90:	e3520003 	cmp	r2, #3
    3c94:	e92d01f0 	push	{r4, r5, r6, r7, r8}
    3c98:	8a000009 	bhi	3cc4 <memcpy+0x34>
    3c9c:	e3520000 	cmp	r2, #0
    3ca0:	0a000005 	beq	3cbc <memcpy+0x2c>
    3ca4:	e3a03000 	mov	r3, #0
    3ca8:	e7d1c003 	ldrb	r12, [r1, r3]
    3cac:	e7c0c003 	strb	r12, [r0, r3]
    3cb0:	e2833001 	add	r3, r3, #1
    3cb4:	e1530002 	cmp	r3, r2
    3cb8:	1afffffa 	bne	3ca8 <memcpy+0x18>
    3cbc:	e8bd01f0 	pop	{r4, r5, r6, r7, r8}
    3cc0:	e12fff1e 	bx	lr
    3cc4:	e3100003 	tst	r0, #3
    3cc8:	e0802002 	add	r2, r0, r2
    3ccc:	0a00000b 	beq	3d00 <memcpy+0x70>
    3cd0:	e280c001 	add	r12, r0, #1
    3cd4:	e2814001 	add	r4, r1, #1
    3cd8:	e20c3003 	and	r3, r12, #3
    3cdc:	e5545001 	ldrb	r5, [r4, #-1]
    3ce0:	e3530000 	cmp	r3, #0
    3ce4:	e1a01004 	mov	r1, r4
    3ce8:	e1a0300c 	mov	r3, r12
    3cec:	e54c5001 	strb	r5, [r12, #-1]
    3cf0:	e2844001 	add	r4, r4, #1
    3cf4:	e28cc001 	add	r12, r12, #1
    3cf8:	1afffff6 	bne	3cd8 <memcpy+0x48>
    3cfc:	ea000000 	b	3d04 <memcpy+0x74>
    3d00:	e1a03000 	mov	r3, r0
    3d04:	e211c003 	ands	r12, r1, #3
    3d08:	1a00004f 	bne	3e4c <memcpy+0x1bc>
    3d0c:	e063c002 	rsb	r12, r3, r2
    3d10:	e35c003f 	cmp	r12, #63	; 0x3f
    3d14:	da000024 	ble	3dac <memcpy+0x11c>
    3d18:	e591c000 	ldr	r12, [r1]
    3d1c:	e583c000 	str	r12, [r3]
    3d20:	e591c004 	ldr	r12, [r1, #4]
    3d24:	e583c004 	str	r12, [r3, #4]
    3d28:	e591c008 	ldr	r12, [r1, #8]
    3d2c:	e583c008 	str	r12, [r3, #8]
    3d30:	e591c00c 	ldr	r12, [r1, #12]
    3d34:	e583c00c 	str	r12, [r3, #12]
    3d38:	e591c010 	ldr	r12, [r1, #16]
    3d3c:	e583c010 	str	r12, [r3, #16]
    3d40:	e591c014 	ldr	r12, [r1, #20]
    3d44:	e583c014 	str	r12, [r3, #20]
    3d48:	e591c018 	ldr	r12, [r1, #24]
    3d4c:	e583c018 	str	r12, [r3, #24]
    3d50:	e591c01c 	ldr	r12, [r1, #28]
    3d54:	e583c01c 	str	r12, [r3, #28]
    3d58:	e591c020 	ldr	r12, [r1, #32]
    3d5c:	e583c020 	str	r12, [r3, #32]
    3d60:	e591c024 	ldr	r12, [r1, #36]	; 0x24
    3d64:	e583c024 	str	r12, [r3, #36]	; 0x24
    3d68:	e591c028 	ldr	r12, [r1, #40]	; 0x28
    3d6c:	e583c028 	str	r12, [r3, #40]	; 0x28
    3d70:	e591c02c 	ldr	r12, [r1, #44]	; 0x2c
    3d74:	e583c02c 	str	r12, [r3, #44]	; 0x2c
    3d78:	e591c030 	ldr	r12, [r1, #48]	; 0x30
    3d7c:	e583c030 	str	r12, [r3, #48]	; 0x30
    3d80:	e591c034 	ldr	r12, [r1, #52]	; 0x34
    3d84:	e583c034 	str	r12, [r3, #52]	; 0x34
    3d88:	e591c038 	ldr	r12, [r1, #56]	; 0x38
    3d8c:	e583c038 	str	r12, [r3, #56]	; 0x38
    3d90:	e591c03c 	ldr	r12, [r1, #60]	; 0x3c
    3d94:	e2833040 	add	r3, r3, #64	; 0x40
    3d98:	e503c004 	str	r12, [r3, #-4]
    3d9c:	e063c002 	rsb	r12, r3, r2
    3da0:	e35c003f 	cmp	r12, #63	; 0x3f
    3da4:	e2811040 	add	r1, r1, #64	; 0x40
    3da8:	caffffda 	bgt	3d18 <memcpy+0x88>
    3dac:	e35c000f 	cmp	r12, #15
    3db0:	da00000c 	ble	3de8 <memcpy+0x158>
    3db4:	e591c000 	ldr	r12, [r1]
    3db8:	e583c000 	str	r12, [r3]
    3dbc:	e591c004 	ldr	r12, [r1, #4]
    3dc0:	e583c004 	str	r12, [r3, #4]
    3dc4:	e591c008 	ldr	r12, [r1, #8]
    3dc8:	e583c008 	str	r12, [r3, #8]
    3dcc:	e591c00c 	ldr	r12, [r1, #12]
    3dd0:	e2833010 	add	r3, r3, #16
    3dd4:	e503c004 	str	r12, [r3, #-4]
    3dd8:	e063c002 	rsb	r12, r3, r2
    3ddc:	e35c000f 	cmp	r12, #15
    3de0:	e2811010 	add	r1, r1, #16
    3de4:	cafffff2 	bgt	3db4 <memcpy+0x124>
    3de8:	e35c0003 	cmp	r12, #3
    3dec:	da00000a 	ble	3e1c <memcpy+0x18c>
    3df0:	e283c004 	add	r12, r3, #4
    3df4:	e2814004 	add	r4, r1, #4
    3df8:	e06c3002 	rsb	r3, r12, r2
    3dfc:	e5145004 	ldr	r5, [r4, #-4]
    3e00:	e3530003 	cmp	r3, #3
    3e04:	e1a01004 	mov	r1, r4
    3e08:	e1a0300c 	mov	r3, r12
    3e0c:	e50c5004 	str	r5, [r12, #-4]
    3e10:	e2844004 	add	r4, r4, #4
    3e14:	e28cc004 	add	r12, r12, #4
    3e18:	cafffff6 	bgt	3df8 <memcpy+0x168>
    3e1c:	e1520003 	cmp	r2, r3
    3e20:	82833001 	addhi	r3, r3, #1
    3e24:	82811001 	addhi	r1, r1, #1
    3e28:	82822001 	addhi	r2, r2, #1
    3e2c:	9affffa2 	bls	3cbc <memcpy+0x2c>
    3e30:	e551c001 	ldrb	r12, [r1, #-1]
    3e34:	e2833001 	add	r3, r3, #1
    3e38:	e1530002 	cmp	r3, r2
    3e3c:	e543c002 	strb	r12, [r3, #-2]
    3e40:	e2811001 	add	r1, r1, #1
    3e44:	1afffff9 	bne	3e30 <memcpy+0x1a0>
    3e48:	eaffff9b 	b	3cbc <memcpy+0x2c>
    3e4c:	e0635002 	rsb	r5, r3, r2
    3e50:	e06c4001 	rsb	r4, r12, r1
    3e54:	e3550003 	cmp	r5, #3
    3e58:	e5945000 	ldr	r5, [r4]
    3e5c:	daffffee 	ble	3e1c <memcpy+0x18c>
    3e60:	e26c6004 	rsb	r6, r12, #4
    3e64:	e1a0718c 	lsl	r7, r12, #3
    3e68:	e1a06186 	lsl	r6, r6, #3
    3e6c:	e283c004 	add	r12, r3, #4
    3e70:	e1a08735 	lsr	r8, r5, r7
    3e74:	e5b45004 	ldr	r5, [r4, #4]!
    3e78:	e1888615 	orr	r8, r8, r5, lsl r6
    3e7c:	e06c3002 	rsb	r3, r12, r2
    3e80:	e3530003 	cmp	r3, #3
    3e84:	e50c8004 	str	r8, [r12, #-4]
    3e88:	e1a0300c 	mov	r3, r12
    3e8c:	e2811004 	add	r1, r1, #4
    3e90:	e28cc004 	add	r12, r12, #4
    3e94:	cafffff5 	bgt	3e70 <memcpy+0x1e0>
    3e98:	eaffffdf 	b	3e1c <memcpy+0x18c>

00003e9c <memmove>:
    3e9c:	e1500001 	cmp	r0, r1
    3ea0:	e92d00f0 	push	{r4, r5, r6, r7}
    3ea4:	9a00000e 	bls	3ee4 <memmove+0x48>
    3ea8:	e081c002 	add	r12, r1, r2
    3eac:	e150000c 	cmp	r0, r12
    3eb0:	2a00000b 	bcs	3ee4 <memmove+0x48>
    3eb4:	e3520000 	cmp	r2, #0
    3eb8:	e0803002 	add	r3, r0, r2
    3ebc:	e2422001 	sub	r2, r2, #1
    3ec0:	0a000005 	beq	3edc <memmove+0x40>
    3ec4:	e1a0100c 	mov	r1, r12
    3ec8:	e571c001 	ldrb	r12, [r1, #-1]!
    3ecc:	e2422001 	sub	r2, r2, #1
    3ed0:	e3720001 	cmn	r2, #1
    3ed4:	e563c001 	strb	r12, [r3, #-1]!
    3ed8:	1afffffa 	bne	3ec8 <memmove+0x2c>
    3edc:	e8bd00f0 	pop	{r4, r5, r6, r7}
    3ee0:	e12fff1e 	bx	lr
    3ee4:	e352000f 	cmp	r2, #15
    3ee8:	8a000009 	bhi	3f14 <memmove+0x78>
    3eec:	e1a03000 	mov	r3, r0
    3ef0:	e3520000 	cmp	r2, #0
    3ef4:	0afffff8 	beq	3edc <memmove+0x40>
    3ef8:	e2411001 	sub	r1, r1, #1
    3efc:	e0832002 	add	r2, r3, r2
    3f00:	e5f1c001 	ldrb	r12, [r1, #1]!
    3f04:	e4c3c001 	strb	r12, [r3], #1
    3f08:	e1530002 	cmp	r3, r2
    3f0c:	1afffffb 	bne	3f00 <memmove+0x64>
    3f10:	eafffff1 	b	3edc <memmove+0x40>
    3f14:	e1813000 	orr	r3, r1, r0
    3f18:	e3130003 	tst	r3, #3
    3f1c:	1a000027 	bne	3fc0 <memmove+0x124>
    3f20:	e1a0c001 	mov	r12, r1
    3f24:	e1a03000 	mov	r3, r0
    3f28:	e1a04002 	mov	r4, r2
    3f2c:	e59c5000 	ldr	r5, [r12]
    3f30:	e5835000 	str	r5, [r3]
    3f34:	e59c5004 	ldr	r5, [r12, #4]
    3f38:	e5835004 	str	r5, [r3, #4]
    3f3c:	e59c5008 	ldr	r5, [r12, #8]
    3f40:	e5835008 	str	r5, [r3, #8]
    3f44:	e2444010 	sub	r4, r4, #16
    3f48:	e59c500c 	ldr	r5, [r12, #12]
    3f4c:	e354000f 	cmp	r4, #15
    3f50:	e583500c 	str	r5, [r3, #12]
    3f54:	e28cc010 	add	r12, r12, #16
    3f58:	e2833010 	add	r3, r3, #16
    3f5c:	8afffff2 	bhi	3f2c <memmove+0x90>
    3f60:	e2424010 	sub	r4, r2, #16
    3f64:	e3c4400f 	bic	r4, r4, #15
    3f68:	e202c00f 	and	r12, r2, #15
    3f6c:	e2844010 	add	r4, r4, #16
    3f70:	e35c0003 	cmp	r12, #3
    3f74:	e0803004 	add	r3, r0, r4
    3f78:	e0811004 	add	r1, r1, r4
    3f7c:	9a000011 	bls	3fc8 <memmove+0x12c>
    3f80:	e24cc004 	sub	r12, r12, #4
    3f84:	e1a0712c 	lsr	r7, r12, #2
    3f88:	e0816107 	add	r6, r1, r7, lsl #2
    3f8c:	e1a0c001 	mov	r12, r1
    3f90:	e2866004 	add	r6, r6, #4
    3f94:	e1a04003 	mov	r4, r3
    3f98:	e49c5004 	ldr	r5, [r12], #4
    3f9c:	e15c0006 	cmp	r12, r6
    3fa0:	e4845004 	str	r5, [r4], #4
    3fa4:	1afffffb 	bne	3f98 <memmove+0xfc>
    3fa8:	e287c001 	add	r12, r7, #1
    3fac:	e1a0c10c 	lsl	r12, r12, #2
    3fb0:	e2022003 	and	r2, r2, #3
    3fb4:	e081100c 	add	r1, r1, r12
    3fb8:	e083300c 	add	r3, r3, r12
    3fbc:	eaffffcb 	b	3ef0 <memmove+0x54>
    3fc0:	e1a03000 	mov	r3, r0
    3fc4:	eaffffcb 	b	3ef8 <memmove+0x5c>
    3fc8:	e1a0200c 	mov	r2, r12
    3fcc:	eaffffc7 	b	3ef0 <memmove+0x54>

00003fd0 <memset>:
    3fd0:	e3520003 	cmp	r2, #3
    3fd4:	e52d4004 	push	{r4}		; (str r4, [sp, #-4]!)
    3fd8:	e20110ff 	and	r1, r1, #255	; 0xff
    3fdc:	8a000008 	bhi	4004 <memset+0x34>
    3fe0:	e3520000 	cmp	r2, #0
    3fe4:	0a000004 	beq	3ffc <memset+0x2c>
    3fe8:	e1a03000 	mov	r3, r0
    3fec:	e0822000 	add	r2, r2, r0
    3ff0:	e4c31001 	strb	r1, [r3], #1
    3ff4:	e1530002 	cmp	r3, r2
    3ff8:	1afffffc 	bne	3ff0 <memset+0x20>
    3ffc:	e8bd0010 	ldmfd	sp!, {r4}
    4000:	e12fff1e 	bx	lr
    4004:	e3100003 	tst	r0, #3
    4008:	e0802002 	add	r2, r0, r2
    400c:	0a000007 	beq	4030 <memset+0x60>
    4010:	e280c001 	add	r12, r0, #1
    4014:	e20c3003 	and	r3, r12, #3
    4018:	e3530000 	cmp	r3, #0
    401c:	e54c1001 	strb	r1, [r12, #-1]
    4020:	e1a0300c 	mov	r3, r12
    4024:	e28cc001 	add	r12, r12, #1
    4028:	1afffff9 	bne	4014 <memset+0x44>
    402c:	ea000000 	b	4034 <memset+0x64>
    4030:	e1a03000 	mov	r3, r0
    4034:	e0634002 	rsb	r4, r3, r2
    4038:	e081c401 	add	r12, r1, r1, lsl #8
    403c:	e354003f 	cmp	r4, #63	; 0x3f
    4040:	e08cc80c 	add	r12, r12, r12, lsl #16
    4044:	da00001a 	ble	40b4 <memset+0xe4>
    4048:	e583c000 	str	r12, [r3]
    404c:	e583c004 	str	r12, [r3, #4]
    4050:	e583c008 	str	r12, [r3, #8]
    4054:	e583c00c 	str	r12, [r3, #12]
    4058:	e583c010 	str	r12, [r3, #16]
    405c:	e583c014 	str	r12, [r3, #20]
    4060:	e583c018 	str	r12, [r3, #24]
    4064:	e583c01c 	str	r12, [r3, #28]
    4068:	e583c020 	str	r12, [r3, #32]
    406c:	e583c024 	str	r12, [r3, #36]	; 0x24
    4070:	e583c028 	str	r12, [r3, #40]	; 0x28
    4074:	e583c02c 	str	r12, [r3, #44]	; 0x2c
    4078:	e583c030 	str	r12, [r3, #48]	; 0x30
    407c:	e583c034 	str	r12, [r3, #52]	; 0x34
    4080:	e583c038 	str	r12, [r3, #56]	; 0x38
    4084:	e583c03c 	str	r12, [r3, #60]	; 0x3c
    4088:	e2833040 	add	r3, r3, #64	; 0x40
    408c:	e0634002 	rsb	r4, r3, r2
    4090:	e354003f 	cmp	r4, #63	; 0x3f
    4094:	caffffeb 	bgt	4048 <memset+0x78>
    4098:	ea000005 	b	40b4 <memset+0xe4>
    409c:	e583c000 	str	r12, [r3]
    40a0:	e583c004 	str	r12, [r3, #4]
    40a4:	e583c008 	str	r12, [r3, #8]
    40a8:	e583c00c 	str	r12, [r3, #12]
    40ac:	e2833010 	add	r3, r3, #16
    40b0:	e0634002 	rsb	r4, r3, r2
    40b4:	e354000f 	cmp	r4, #15
    40b8:	cafffff7 	bgt	409c <memset+0xcc>
    40bc:	e3540003 	cmp	r4, #3
    40c0:	da000006 	ble	40e0 <memset+0x110>
    40c4:	e2834004 	add	r4, r3, #4
    40c8:	e0643002 	rsb	r3, r4, r2
    40cc:	e3530003 	cmp	r3, #3
    40d0:	e504c004 	str	r12, [r4, #-4]
    40d4:	e1a03004 	mov	r3, r4
    40d8:	e2844004 	add	r4, r4, #4
    40dc:	cafffff9 	bgt	40c8 <memset+0xf8>
    40e0:	e1520003 	cmp	r2, r3
    40e4:	9affffc4 	bls	3ffc <memset+0x2c>
    40e8:	e2833001 	add	r3, r3, #1
    40ec:	e2822001 	add	r2, r2, #1
    40f0:	e5431001 	strb	r1, [r3, #-1]
    40f4:	e2833001 	add	r3, r3, #1
    40f8:	e1530002 	cmp	r3, r2
    40fc:	1afffffb 	bne	40f0 <memset+0x120>
    4100:	eaffffbd 	b	3ffc <memset+0x2c>

00004104 <__malloc_lock>:
    4104:	e12fff1e 	bx	lr

00004108 <__malloc_unlock>:
    4108:	e12fff1e 	bx	lr

0000410c <_realloc_r>:
    410c:	e92d4ff0 	push	{r4, r5, r6, r7, r8, r9, r10, r11, lr}
    4110:	e2514000 	subs	r4, r1, #0
    4114:	e24dd00c 	sub	sp, sp, #12
    4118:	e1a08000 	mov	r8, r0
    411c:	e1a0b002 	mov	r11, r2
    4120:	0a0000d1 	beq	446c <_realloc_r+0x360>
    4124:	ebfffff6 	bl	4104 <__malloc_lock>
    4128:	e28b500b 	add	r5, r11, #11
    412c:	e3550016 	cmp	r5, #22
    4130:	83c55007 	bichi	r5, r5, #7
    4134:	93a01010 	movls	r1, #16
    4138:	81a06fa5 	lsrhi	r6, r5, #31
    413c:	93a06000 	movls	r6, #0
    4140:	91a05001 	movls	r5, r1
    4144:	e5143004 	ldr	r3, [r4, #-4]
    4148:	81a01005 	movhi	r1, r5
    414c:	e155000b 	cmp	r5, r11
    4150:	33866001 	orrcc	r6, r6, #1
    4154:	e3560000 	cmp	r6, #0
    4158:	e3c37003 	bic	r7, r3, #3
    415c:	13a0300c 	movne	r3, #12
    4160:	e244a008 	sub	r10, r4, #8
    4164:	15883000 	strne	r3, [r8]
    4168:	13a06000 	movne	r6, #0
    416c:	1a00000f 	bne	41b0 <_realloc_r+0xa4>
    4170:	e1570001 	cmp	r7, r1
    4174:	ba000011 	blt	41c0 <_realloc_r+0xb4>
    4178:	e1a06007 	mov	r6, r7
    417c:	e0652006 	rsb	r2, r5, r6
    4180:	e352000f 	cmp	r2, #15
    4184:	e2033001 	and	r3, r3, #1
    4188:	8a00005e 	bhi	4308 <_realloc_r+0x1fc>
    418c:	e1833006 	orr	r3, r3, r6
    4190:	e58a3004 	str	r3, [r10, #4]
    4194:	e08aa006 	add	r10, r10, r6
    4198:	e59a3004 	ldr	r3, [r10, #4]
    419c:	e3833001 	orr	r3, r3, #1
    41a0:	e58a3004 	str	r3, [r10, #4]
    41a4:	e1a00008 	mov	r0, r8
    41a8:	ebffffd6 	bl	4108 <__malloc_unlock>
    41ac:	e1a06004 	mov	r6, r4
    41b0:	e1a00006 	mov	r0, r6
    41b4:	e28dd00c 	add	sp, sp, #12
    41b8:	e8bd4ff0 	pop	{r4, r5, r6, r7, r8, r9, r10, r11, lr}
    41bc:	e12fff1e 	bx	lr
    41c0:	e59f24b4 	ldr	r2, [pc, #1204]	; 467c <_realloc_r+0x570>
    41c4:	e592c008 	ldr	r12, [r2, #8]
    41c8:	e08a0007 	add	r0, r10, r7
    41cc:	e15c0000 	cmp	r12, r0
    41d0:	0a0000a9 	beq	447c <_realloc_r+0x370>
    41d4:	e590e004 	ldr	lr, [r0, #4]
    41d8:	e3ce9001 	bic	r9, lr, #1
    41dc:	e0809009 	add	r9, r0, r9
    41e0:	e5999004 	ldr	r9, [r9, #4]
    41e4:	e3190001 	tst	r9, #1
    41e8:	11a0e006 	movne	lr, r6
    41ec:	11a0000e 	movne	r0, lr
    41f0:	0a00003b 	beq	42e4 <_realloc_r+0x1d8>
    41f4:	e3130001 	tst	r3, #1
    41f8:	1a00004f 	bne	433c <_realloc_r+0x230>
    41fc:	e5149008 	ldr	r9, [r4, #-8]
    4200:	e069900a 	rsb	r9, r9, r10
    4204:	e5993004 	ldr	r3, [r9, #4]
    4208:	e3500000 	cmp	r0, #0
    420c:	e3c33003 	bic	r3, r3, #3
    4210:	0a000067 	beq	43b4 <_realloc_r+0x2a8>
    4214:	e150000c 	cmp	r0, r12
    4218:	e083c007 	add	r12, r3, r7
    421c:	0a0000ce 	beq	455c <_realloc_r+0x450>
    4220:	e08e600c 	add	r6, lr, r12
    4224:	e1560001 	cmp	r6, r1
    4228:	ba000062 	blt	43b8 <_realloc_r+0x2ac>
    422c:	e2802008 	add	r2, r0, #8
    4230:	e892000c 	ldm	r2, {r2, r3}
    4234:	e5832008 	str	r2, [r3, #8]
    4238:	e582300c 	str	r3, [r2, #12]
    423c:	e1a0a009 	mov	r10, r9
    4240:	e599300c 	ldr	r3, [r9, #12]
    4244:	e5ba1008 	ldr	r1, [r10, #8]!
    4248:	e2472004 	sub	r2, r7, #4
    424c:	e3520024 	cmp	r2, #36	; 0x24
    4250:	e581300c 	str	r3, [r1, #12]
    4254:	e5831008 	str	r1, [r3, #8]
    4258:	8a0000fa 	bhi	4648 <_realloc_r+0x53c>
    425c:	e3520013 	cmp	r2, #19
    4260:	91a0300a 	movls	r3, r10
    4264:	9a000014 	bls	42bc <_realloc_r+0x1b0>
    4268:	e5943000 	ldr	r3, [r4]
    426c:	e5893008 	str	r3, [r9, #8]
    4270:	e5943004 	ldr	r3, [r4, #4]
    4274:	e352001b 	cmp	r2, #27
    4278:	e589300c 	str	r3, [r9, #12]
    427c:	92844008 	addls	r4, r4, #8
    4280:	92893010 	addls	r3, r9, #16
    4284:	9a00000c 	bls	42bc <_realloc_r+0x1b0>
    4288:	e5943008 	ldr	r3, [r4, #8]
    428c:	e5893010 	str	r3, [r9, #16]
    4290:	e594300c 	ldr	r3, [r4, #12]
    4294:	e5893014 	str	r3, [r9, #20]
    4298:	e3520024 	cmp	r2, #36	; 0x24
    429c:	05943010 	ldreq	r3, [r4, #16]
    42a0:	05893018 	streq	r3, [r9, #24]
    42a4:	05942014 	ldreq	r2, [r4, #20]
    42a8:	0589201c 	streq	r2, [r9, #28]
    42ac:	12893018 	addne	r3, r9, #24
    42b0:	12844010 	addne	r4, r4, #16
    42b4:	02893020 	addeq	r3, r9, #32
    42b8:	02844018 	addeq	r4, r4, #24
    42bc:	e5942000 	ldr	r2, [r4]
    42c0:	e5832000 	str	r2, [r3]
    42c4:	e5942004 	ldr	r2, [r4, #4]
    42c8:	e5832004 	str	r2, [r3, #4]
    42cc:	e5942008 	ldr	r2, [r4, #8]
    42d0:	e5832008 	str	r2, [r3, #8]
    42d4:	e1a0400a 	mov	r4, r10
    42d8:	e5993004 	ldr	r3, [r9, #4]
    42dc:	e1a0a009 	mov	r10, r9
    42e0:	eaffffa5 	b	417c <_realloc_r+0x70>
    42e4:	e3cee003 	bic	lr, lr, #3
    42e8:	e08e6007 	add	r6, lr, r7
    42ec:	e1560001 	cmp	r6, r1
    42f0:	baffffbf 	blt	41f4 <_realloc_r+0xe8>
    42f4:	e2801008 	add	r1, r0, #8
    42f8:	e8910006 	ldm	r1, {r1, r2}
    42fc:	e581200c 	str	r2, [r1, #12]
    4300:	e5821008 	str	r1, [r2, #8]
    4304:	eaffff9c 	b	417c <_realloc_r+0x70>
    4308:	e08a1005 	add	r1, r10, r5
    430c:	e3820001 	orr	r0, r2, #1
    4310:	e1835005 	orr	r5, r3, r5
    4314:	e58a5004 	str	r5, [r10, #4]
    4318:	e5810004 	str	r0, [r1, #4]
    431c:	e0812002 	add	r2, r1, r2
    4320:	e5923004 	ldr	r3, [r2, #4]
    4324:	e3833001 	orr	r3, r3, #1
    4328:	e5823004 	str	r3, [r2, #4]
    432c:	e1a00008 	mov	r0, r8
    4330:	e2811008 	add	r1, r1, #8
    4334:	ebfff9ab 	bl	29e8 <_free_r>
    4338:	eaffff99 	b	41a4 <_realloc_r+0x98>
    433c:	e1a00008 	mov	r0, r8
    4340:	e1a0100b 	mov	r1, r11
    4344:	ebfffc43 	bl	3458 <_malloc_r>
    4348:	e2506000 	subs	r6, r0, #0
    434c:	0a000015 	beq	43a8 <_realloc_r+0x29c>
    4350:	e5143004 	ldr	r3, [r4, #-4]
    4354:	e3c32001 	bic	r2, r3, #1
    4358:	e2461008 	sub	r1, r6, #8
    435c:	e08a2002 	add	r2, r10, r2
    4360:	e1510002 	cmp	r1, r2
    4364:	0a0000b3 	beq	4638 <_realloc_r+0x52c>
    4368:	e2472004 	sub	r2, r7, #4
    436c:	e3520024 	cmp	r2, #36	; 0x24
    4370:	8a000076 	bhi	4550 <_realloc_r+0x444>
    4374:	e3520013 	cmp	r2, #19
    4378:	91a03006 	movls	r3, r6
    437c:	91a02004 	movls	r2, r4
    4380:	8a000052 	bhi	44d0 <_realloc_r+0x3c4>
    4384:	e5921000 	ldr	r1, [r2]
    4388:	e5831000 	str	r1, [r3]
    438c:	e5921004 	ldr	r1, [r2, #4]
    4390:	e5831004 	str	r1, [r3, #4]
    4394:	e5922008 	ldr	r2, [r2, #8]
    4398:	e5832008 	str	r2, [r3, #8]
    439c:	e1a00008 	mov	r0, r8
    43a0:	e1a01004 	mov	r1, r4
    43a4:	ebfff98f 	bl	29e8 <_free_r>
    43a8:	e1a00008 	mov	r0, r8
    43ac:	ebffff55 	bl	4108 <__malloc_unlock>
    43b0:	eaffff7e 	b	41b0 <_realloc_r+0xa4>
    43b4:	e083c007 	add	r12, r3, r7
    43b8:	e15c0001 	cmp	r12, r1
    43bc:	baffffde 	blt	433c <_realloc_r+0x230>
    43c0:	e1a06009 	mov	r6, r9
    43c4:	e599300c 	ldr	r3, [r9, #12]
    43c8:	e5b61008 	ldr	r1, [r6, #8]!
    43cc:	e2472004 	sub	r2, r7, #4
    43d0:	e3520024 	cmp	r2, #36	; 0x24
    43d4:	e581300c 	str	r3, [r1, #12]
    43d8:	e5831008 	str	r1, [r3, #8]
    43dc:	8a000051 	bhi	4528 <_realloc_r+0x41c>
    43e0:	e3520013 	cmp	r2, #19
    43e4:	91a03006 	movls	r3, r6
    43e8:	9a000014 	bls	4440 <_realloc_r+0x334>
    43ec:	e5943000 	ldr	r3, [r4]
    43f0:	e5893008 	str	r3, [r9, #8]
    43f4:	e5943004 	ldr	r3, [r4, #4]
    43f8:	e352001b 	cmp	r2, #27
    43fc:	e589300c 	str	r3, [r9, #12]
    4400:	92844008 	addls	r4, r4, #8
    4404:	92893010 	addls	r3, r9, #16
    4408:	9a00000c 	bls	4440 <_realloc_r+0x334>
    440c:	e5943008 	ldr	r3, [r4, #8]
    4410:	e5893010 	str	r3, [r9, #16]
    4414:	e594300c 	ldr	r3, [r4, #12]
    4418:	e5893014 	str	r3, [r9, #20]
    441c:	e3520024 	cmp	r2, #36	; 0x24
    4420:	05943010 	ldreq	r3, [r4, #16]
    4424:	05893018 	streq	r3, [r9, #24]
    4428:	05942014 	ldreq	r2, [r4, #20]
    442c:	0589201c 	streq	r2, [r9, #28]
    4430:	12893018 	addne	r3, r9, #24
    4434:	12844010 	addne	r4, r4, #16
    4438:	02893020 	addeq	r3, r9, #32
    443c:	02844018 	addeq	r4, r4, #24
    4440:	e5942000 	ldr	r2, [r4]
    4444:	e5832000 	str	r2, [r3]
    4448:	e5942004 	ldr	r2, [r4, #4]
    444c:	e5832004 	str	r2, [r3, #4]
    4450:	e5942008 	ldr	r2, [r4, #8]
    4454:	e5832008 	str	r2, [r3, #8]
    4458:	e1a04006 	mov	r4, r6
    445c:	e5993004 	ldr	r3, [r9, #4]
    4460:	e1a0600c 	mov	r6, r12
    4464:	e1a0a009 	mov	r10, r9
    4468:	eaffff43 	b	417c <_realloc_r+0x70>
    446c:	e1a01002 	mov	r1, r2
    4470:	ebfffbf8 	bl	3458 <_malloc_r>
    4474:	e1a06000 	mov	r6, r0
    4478:	eaffff4c 	b	41b0 <_realloc_r+0xa4>
    447c:	e59ce004 	ldr	lr, [r12, #4]
    4480:	e3cee003 	bic	lr, lr, #3
    4484:	e08e0007 	add	r0, lr, r7
    4488:	e2856010 	add	r6, r5, #16
    448c:	e1500006 	cmp	r0, r6
    4490:	b1a0000c 	movlt	r0, r12
    4494:	baffff56 	blt	41f4 <_realloc_r+0xe8>
    4498:	e0653000 	rsb	r3, r5, r0
    449c:	e08aa005 	add	r10, r10, r5
    44a0:	e3833001 	orr	r3, r3, #1
    44a4:	e58a3004 	str	r3, [r10, #4]
    44a8:	e5143004 	ldr	r3, [r4, #-4]
    44ac:	e2033001 	and	r3, r3, #1
    44b0:	e1855003 	orr	r5, r5, r3
    44b4:	e59f31c0 	ldr	r3, [pc, #448]	; 467c <_realloc_r+0x570>
    44b8:	e5045004 	str	r5, [r4, #-4]
    44bc:	e1a00008 	mov	r0, r8
    44c0:	e583a008 	str	r10, [r3, #8]
    44c4:	e1a06004 	mov	r6, r4
    44c8:	ebffff0e 	bl	4108 <__malloc_unlock>
    44cc:	eaffff37 	b	41b0 <_realloc_r+0xa4>
    44d0:	e5943000 	ldr	r3, [r4]
    44d4:	e5863000 	str	r3, [r6]
    44d8:	e5943004 	ldr	r3, [r4, #4]
    44dc:	e352001b 	cmp	r2, #27
    44e0:	e5863004 	str	r3, [r6, #4]
    44e4:	92842008 	addls	r2, r4, #8
    44e8:	92863008 	addls	r3, r6, #8
    44ec:	9affffa4 	bls	4384 <_realloc_r+0x278>
    44f0:	e5943008 	ldr	r3, [r4, #8]
    44f4:	e5863008 	str	r3, [r6, #8]
    44f8:	e594300c 	ldr	r3, [r4, #12]
    44fc:	e586300c 	str	r3, [r6, #12]
    4500:	e3520024 	cmp	r2, #36	; 0x24
    4504:	05943010 	ldreq	r3, [r4, #16]
    4508:	05863010 	streq	r3, [r6, #16]
    450c:	05942014 	ldreq	r2, [r4, #20]
    4510:	12863010 	addne	r3, r6, #16
    4514:	05862014 	streq	r2, [r6, #20]
    4518:	12842010 	addne	r2, r4, #16
    451c:	02863018 	addeq	r3, r6, #24
    4520:	02842018 	addeq	r2, r4, #24
    4524:	eaffff96 	b	4384 <_realloc_r+0x278>
    4528:	e1a01004 	mov	r1, r4
    452c:	e1a00006 	mov	r0, r6
    4530:	e58dc004 	str	r12, [sp, #4]
    4534:	ebfffe58 	bl	3e9c <memmove>
    4538:	e59dc004 	ldr	r12, [sp, #4]
    453c:	e1a04006 	mov	r4, r6
    4540:	e5993004 	ldr	r3, [r9, #4]
    4544:	e1a0600c 	mov	r6, r12
    4548:	e1a0a009 	mov	r10, r9
    454c:	eaffff0a 	b	417c <_realloc_r+0x70>
    4550:	e1a01004 	mov	r1, r4
    4554:	ebfffe50 	bl	3e9c <memmove>
    4558:	eaffff8f 	b	439c <_realloc_r+0x290>
    455c:	e08e300c 	add	r3, lr, r12
    4560:	e2850010 	add	r0, r5, #16
    4564:	e1530000 	cmp	r3, r0
    4568:	baffff92 	blt	43b8 <_realloc_r+0x2ac>
    456c:	e1a06009 	mov	r6, r9
    4570:	e599100c 	ldr	r1, [r9, #12]
    4574:	e5b60008 	ldr	r0, [r6, #8]!
    4578:	e2472004 	sub	r2, r7, #4
    457c:	e3520024 	cmp	r2, #36	; 0x24
    4580:	e580100c 	str	r1, [r0, #12]
    4584:	e5810008 	str	r0, [r1, #8]
    4588:	8a000035 	bhi	4664 <_realloc_r+0x558>
    458c:	e3520013 	cmp	r2, #19
    4590:	91a02006 	movls	r2, r6
    4594:	9a000014 	bls	45ec <_realloc_r+0x4e0>
    4598:	e5941000 	ldr	r1, [r4]
    459c:	e5891008 	str	r1, [r9, #8]
    45a0:	e5941004 	ldr	r1, [r4, #4]
    45a4:	e352001b 	cmp	r2, #27
    45a8:	e589100c 	str	r1, [r9, #12]
    45ac:	92892010 	addls	r2, r9, #16
    45b0:	92844008 	addls	r4, r4, #8
    45b4:	9a00000c 	bls	45ec <_realloc_r+0x4e0>
    45b8:	e5941008 	ldr	r1, [r4, #8]
    45bc:	e5891010 	str	r1, [r9, #16]
    45c0:	e594100c 	ldr	r1, [r4, #12]
    45c4:	e5891014 	str	r1, [r9, #20]
    45c8:	e3520024 	cmp	r2, #36	; 0x24
    45cc:	05942010 	ldreq	r2, [r4, #16]
    45d0:	05892018 	streq	r2, [r9, #24]
    45d4:	05941014 	ldreq	r1, [r4, #20]
    45d8:	0589101c 	streq	r1, [r9, #28]
    45dc:	12892018 	addne	r2, r9, #24
    45e0:	12844010 	addne	r4, r4, #16
    45e4:	02892020 	addeq	r2, r9, #32
    45e8:	02844018 	addeq	r4, r4, #24
    45ec:	e5941000 	ldr	r1, [r4]
    45f0:	e5821000 	str	r1, [r2]
    45f4:	e5941004 	ldr	r1, [r4, #4]
    45f8:	e5821004 	str	r1, [r2, #4]
    45fc:	e5941008 	ldr	r1, [r4, #8]
    4600:	e5821008 	str	r1, [r2, #8]
    4604:	e0653003 	rsb	r3, r5, r3
    4608:	e0892005 	add	r2, r9, r5
    460c:	e3833001 	orr	r3, r3, #1
    4610:	e5823004 	str	r3, [r2, #4]
    4614:	e5993004 	ldr	r3, [r9, #4]
    4618:	e2033001 	and	r3, r3, #1
    461c:	e1855003 	orr	r5, r5, r3
    4620:	e59f3054 	ldr	r3, [pc, #84]	; 467c <_realloc_r+0x570>
    4624:	e5895004 	str	r5, [r9, #4]
    4628:	e1a00008 	mov	r0, r8
    462c:	e5832008 	str	r2, [r3, #8]
    4630:	ebfffeb4 	bl	4108 <__malloc_unlock>
    4634:	eafffedd 	b	41b0 <_realloc_r+0xa4>
    4638:	e5166004 	ldr	r6, [r6, #-4]
    463c:	e3c66003 	bic	r6, r6, #3
    4640:	e0866007 	add	r6, r6, r7
    4644:	eafffecc 	b	417c <_realloc_r+0x70>
    4648:	e1a01004 	mov	r1, r4
    464c:	e1a0000a 	mov	r0, r10
    4650:	ebfffe11 	bl	3e9c <memmove>
    4654:	e1a0400a 	mov	r4, r10
    4658:	e5993004 	ldr	r3, [r9, #4]
    465c:	e1a0a009 	mov	r10, r9
    4660:	eafffec5 	b	417c <_realloc_r+0x70>
    4664:	e1a00006 	mov	r0, r6
    4668:	e1a01004 	mov	r1, r4
    466c:	e58d3004 	str	r3, [sp, #4]
    4670:	ebfffe09 	bl	3e9c <memmove>
    4674:	e59d3004 	ldr	r3, [sp, #4]
    4678:	eaffffe1 	b	4604 <_realloc_r+0x4f8>
    467c:	0000e9fc 	.word	0x0000e9fc

00004680 <_sbrk_r>:
    4680:	e92d4038 	push	{r3, r4, r5, lr}
    4684:	e59f4030 	ldr	r4, [pc, #48]	; 46bc <_sbrk_r+0x3c>
    4688:	e3a03000 	mov	r3, #0
    468c:	e1a05000 	mov	r5, r0
    4690:	e1a00001 	mov	r0, r1
    4694:	e5843000 	str	r3, [r4]
    4698:	eb0006ff 	bl	629c <_sbrk>
    469c:	e3700001 	cmn	r0, #1
    46a0:	0a000001 	beq	46ac <_sbrk_r+0x2c>
    46a4:	e8bd4038 	pop	{r3, r4, r5, lr}
    46a8:	e12fff1e 	bx	lr
    46ac:	e5943000 	ldr	r3, [r4]
    46b0:	e3530000 	cmp	r3, #0
    46b4:	15853000 	strne	r3, [r5]
    46b8:	eafffff9 	b	46a4 <_sbrk_r+0x24>
    46bc:	00043fe8 	.word	0x00043fe8

000046c0 <_init_signal_r>:
    46c0:	e92d4038 	push	{r3, r4, r5, lr}
    46c4:	e59052dc 	ldr	r5, [r0, #732]	; 0x2dc
    46c8:	e3550000 	cmp	r5, #0
    46cc:	e1a04000 	mov	r4, r0
    46d0:	0a000002 	beq	46e0 <_init_signal_r+0x20>
    46d4:	e3a00000 	mov	r0, #0
    46d8:	e8bd4038 	pop	{r3, r4, r5, lr}
    46dc:	e12fff1e 	bx	lr
    46e0:	e3a01080 	mov	r1, #128	; 0x80
    46e4:	ebfffb5b 	bl	3458 <_malloc_r>
    46e8:	e3500000 	cmp	r0, #0
    46ec:	e58402dc 	str	r0, [r4, #732]	; 0x2dc
    46f0:	0a000008 	beq	4718 <_init_signal_r+0x58>
    46f4:	e1a03005 	mov	r3, r5
    46f8:	e1a01005 	mov	r1, r5
    46fc:	ea000000 	b	4704 <_init_signal_r+0x44>
    4700:	e59402dc 	ldr	r0, [r4, #732]	; 0x2dc
    4704:	e7801003 	str	r1, [r0, r3]
    4708:	e2833004 	add	r3, r3, #4
    470c:	e3530080 	cmp	r3, #128	; 0x80
    4710:	1afffffa 	bne	4700 <_init_signal_r+0x40>
    4714:	eaffffee 	b	46d4 <_init_signal_r+0x14>
    4718:	e3e00000 	mvn	r0, #0
    471c:	eaffffed 	b	46d8 <_init_signal_r+0x18>

00004720 <_signal_r>:
    4720:	e92d4010 	push	{r4, lr}
    4724:	e351001f 	cmp	r1, #31
    4728:	e24dd008 	sub	sp, sp, #8
    472c:	e1a04000 	mov	r4, r0
    4730:	8a000007 	bhi	4754 <_signal_r+0x34>
    4734:	e59032dc 	ldr	r3, [r0, #732]	; 0x2dc
    4738:	e3530000 	cmp	r3, #0
    473c:	0a000008 	beq	4764 <_signal_r+0x44>
    4740:	e7930101 	ldr	r0, [r3, r1, lsl #2]
    4744:	e7832101 	str	r2, [r3, r1, lsl #2]
    4748:	e28dd008 	add	sp, sp, #8
    474c:	e8bd4010 	pop	{r4, lr}
    4750:	e12fff1e 	bx	lr
    4754:	e3a03016 	mov	r3, #22
    4758:	e5803000 	str	r3, [r0]
    475c:	e3e00000 	mvn	r0, #0
    4760:	eafffff8 	b	4748 <_signal_r+0x28>
    4764:	e58d1004 	str	r1, [sp, #4]
    4768:	e58d2000 	str	r2, [sp]
    476c:	ebffffd3 	bl	46c0 <_init_signal_r>
    4770:	e3500000 	cmp	r0, #0
    4774:	e59d1004 	ldr	r1, [sp, #4]
    4778:	e59d2000 	ldr	r2, [sp]
    477c:	13e00000 	mvnne	r0, #0
    4780:	1afffff0 	bne	4748 <_signal_r+0x28>
    4784:	e59432dc 	ldr	r3, [r4, #732]	; 0x2dc
    4788:	eaffffec 	b	4740 <_signal_r+0x20>

0000478c <_raise_r>:
    478c:	e351001f 	cmp	r1, #31
    4790:	e92d4038 	push	{r3, r4, r5, lr}
    4794:	83a03016 	movhi	r3, #22
    4798:	e1a05000 	mov	r5, r0
    479c:	85803000 	strhi	r3, [r0]
    47a0:	e1a04001 	mov	r4, r1
    47a4:	83e00000 	mvnhi	r0, #0
    47a8:	8a000012 	bhi	47f8 <_raise_r+0x6c>
    47ac:	e59522dc 	ldr	r2, [r5, #732]	; 0x2dc
    47b0:	e3520000 	cmp	r2, #0
    47b4:	0a000013 	beq	4808 <_raise_r+0x7c>
    47b8:	e7923101 	ldr	r3, [r2, r1, lsl #2]
    47bc:	e3530000 	cmp	r3, #0
    47c0:	0a000010 	beq	4808 <_raise_r+0x7c>
    47c4:	e3530001 	cmp	r3, #1
    47c8:	0a00000c 	beq	4800 <_raise_r+0x74>
    47cc:	e3730001 	cmn	r3, #1
    47d0:	03a03016 	moveq	r3, #22
    47d4:	05853000 	streq	r3, [r5]
    47d8:	03a00001 	moveq	r0, #1
    47dc:	0a000005 	beq	47f8 <_raise_r+0x6c>
    47e0:	e3a05000 	mov	r5, #0
    47e4:	e1a00001 	mov	r0, r1
    47e8:	e7825101 	str	r5, [r2, r1, lsl #2]
    47ec:	e1a0e00f 	mov	lr, pc
    47f0:	e12fff13 	bx	r3
    47f4:	e1a00005 	mov	r0, r5
    47f8:	e8bd4038 	pop	{r3, r4, r5, lr}
    47fc:	e12fff1e 	bx	lr
    4800:	e3a00000 	mov	r0, #0
    4804:	eafffffb 	b	47f8 <_raise_r+0x6c>
    4808:	e1a00005 	mov	r0, r5
    480c:	eb00004e 	bl	494c <_getpid_r>
    4810:	e1a02004 	mov	r2, r4
    4814:	e1a01000 	mov	r1, r0
    4818:	e1a00005 	mov	r0, r5
    481c:	eb00003a 	bl	490c <_kill_r>
    4820:	eafffff4 	b	47f8 <_raise_r+0x6c>

00004824 <__sigtramp_r>:
    4824:	e92d4010 	push	{r4, lr}
    4828:	e351001f 	cmp	r1, #31
    482c:	e24dd008 	sub	sp, sp, #8
    4830:	e1a04000 	mov	r4, r0
    4834:	8a00001d 	bhi	48b0 <__sigtramp_r+0x8c>
    4838:	e59032dc 	ldr	r3, [r0, #732]	; 0x2dc
    483c:	e3530000 	cmp	r3, #0
    4840:	0a000014 	beq	4898 <__sigtramp_r+0x74>
    4844:	e7932101 	ldr	r2, [r3, r1, lsl #2]
    4848:	e3520000 	cmp	r2, #0
    484c:	e0833101 	add	r3, r3, r1, lsl #2
    4850:	0a00000e 	beq	4890 <__sigtramp_r+0x6c>
    4854:	e3720001 	cmn	r2, #1
    4858:	03a00002 	moveq	r0, #2
    485c:	0a000008 	beq	4884 <__sigtramp_r+0x60>
    4860:	e3520001 	cmp	r2, #1
    4864:	03a00003 	moveq	r0, #3
    4868:	0a000005 	beq	4884 <__sigtramp_r+0x60>
    486c:	e3a04000 	mov	r4, #0
    4870:	e1a00001 	mov	r0, r1
    4874:	e5834000 	str	r4, [r3]
    4878:	e1a0e00f 	mov	lr, pc
    487c:	e12fff12 	bx	r2
    4880:	e1a00004 	mov	r0, r4
    4884:	e28dd008 	add	sp, sp, #8
    4888:	e8bd4010 	pop	{r4, lr}
    488c:	e12fff1e 	bx	lr
    4890:	e3a00001 	mov	r0, #1
    4894:	eafffffa 	b	4884 <__sigtramp_r+0x60>
    4898:	e58d1004 	str	r1, [sp, #4]
    489c:	ebffff87 	bl	46c0 <_init_signal_r>
    48a0:	e3500000 	cmp	r0, #0
    48a4:	e59d1004 	ldr	r1, [sp, #4]
    48a8:	059432dc 	ldreq	r3, [r4, #732]	; 0x2dc
    48ac:	0affffe4 	beq	4844 <__sigtramp_r+0x20>
    48b0:	e3e00000 	mvn	r0, #0
    48b4:	eafffff2 	b	4884 <__sigtramp_r+0x60>

000048b8 <raise>:
    48b8:	e59f3008 	ldr	r3, [pc, #8]	; 48c8 <raise+0x10>
    48bc:	e1a01000 	mov	r1, r0
    48c0:	e5930000 	ldr	r0, [r3]
    48c4:	eaffffb0 	b	478c <_raise_r>
    48c8:	0000e550 	.word	0x0000e550

000048cc <signal>:
    48cc:	e1a02001 	mov	r2, r1
    48d0:	e59f100c 	ldr	r1, [pc, #12]	; 48e4 <signal+0x18>
    48d4:	e1a03000 	mov	r3, r0
    48d8:	e5910000 	ldr	r0, [r1]
    48dc:	e1a01003 	mov	r1, r3
    48e0:	eaffff8e 	b	4720 <_signal_r>
    48e4:	0000e550 	.word	0x0000e550

000048e8 <_init_signal>:
    48e8:	e59f3004 	ldr	r3, [pc, #4]	; 48f4 <_init_signal+0xc>
    48ec:	e5930000 	ldr	r0, [r3]
    48f0:	eaffff72 	b	46c0 <_init_signal_r>
    48f4:	0000e550 	.word	0x0000e550

000048f8 <__sigtramp>:
    48f8:	e59f3008 	ldr	r3, [pc, #8]	; 4908 <__sigtramp+0x10>
    48fc:	e1a01000 	mov	r1, r0
    4900:	e5930000 	ldr	r0, [r3]
    4904:	eaffffc6 	b	4824 <__sigtramp_r>
    4908:	0000e550 	.word	0x0000e550

0000490c <_kill_r>:
    490c:	e92d4038 	push	{r3, r4, r5, lr}
    4910:	e59f4030 	ldr	r4, [pc, #48]	; 4948 <_kill_r+0x3c>
    4914:	e3a03000 	mov	r3, #0
    4918:	e1a05000 	mov	r5, r0
    491c:	e1a00001 	mov	r0, r1
    4920:	e1a01002 	mov	r1, r2
    4924:	e5843000 	str	r3, [r4]
    4928:	eb0005ef 	bl	60ec <_kill>
    492c:	e3700001 	cmn	r0, #1
    4930:	1a000002 	bne	4940 <_kill_r+0x34>
    4934:	e5943000 	ldr	r3, [r4]
    4938:	e3530000 	cmp	r3, #0
    493c:	15853000 	strne	r3, [r5]
    4940:	e8bd4038 	pop	{r3, r4, r5, lr}
    4944:	e12fff1e 	bx	lr
    4948:	00043fe8 	.word	0x00043fe8

0000494c <_getpid_r>:
    494c:	e92d4008 	push	{r3, lr}
    4950:	eb00066d 	bl	630c <_getpid>
    4954:	e8bd4008 	pop	{r3, lr}
    4958:	e12fff1e 	bx	lr

0000495c <__sread>:
    495c:	e92d4010 	push	{r4, lr}
    4960:	e1a04001 	mov	r4, r1
    4964:	e1d110fe 	ldrsh	r1, [r1, #14]
    4968:	eb000228 	bl	5210 <_read_r>
    496c:	e3500000 	cmp	r0, #0
    4970:	a5943050 	ldrge	r3, [r4, #80]	; 0x50
    4974:	b1d430bc 	ldrhlt	r3, [r4, #12]
    4978:	a0833000 	addge	r3, r3, r0
    497c:	b3c33a01 	biclt	r3, r3, #4096	; 0x1000
    4980:	a5843050 	strge	r3, [r4, #80]	; 0x50
    4984:	b1c430bc 	strhlt	r3, [r4, #12]
    4988:	e8bd4010 	pop	{r4, lr}
    498c:	e12fff1e 	bx	lr

00004990 <__seofread>:
    4990:	e3a00000 	mov	r0, #0
    4994:	e12fff1e 	bx	lr

00004998 <__swrite>:
    4998:	e92d40f8 	push	{r3, r4, r5, r6, r7, lr}
    499c:	e1a04001 	mov	r4, r1
    49a0:	e1d110bc 	ldrh	r1, [r1, #12]
    49a4:	e3110c01 	tst	r1, #256	; 0x100
    49a8:	e1a07000 	mov	r7, r0
    49ac:	e1a06002 	mov	r6, r2
    49b0:	e1a05003 	mov	r5, r3
    49b4:	0a000004 	beq	49cc <__swrite+0x34>
    49b8:	e1d410fe 	ldrsh	r1, [r4, #14]
    49bc:	e3a02000 	mov	r2, #0
    49c0:	e3a03002 	mov	r3, #2
    49c4:	eb000200 	bl	51cc <_lseek_r>
    49c8:	e1d410bc 	ldrh	r1, [r4, #12]
    49cc:	e3c11a01 	bic	r1, r1, #4096	; 0x1000
    49d0:	e1c410bc 	strh	r1, [r4, #12]
    49d4:	e1a00007 	mov	r0, r7
    49d8:	e1d410fe 	ldrsh	r1, [r4, #14]
    49dc:	e1a02006 	mov	r2, r6
    49e0:	e1a03005 	mov	r3, r5
    49e4:	eb000176 	bl	4fc4 <_write_r>
    49e8:	e8bd40f8 	pop	{r3, r4, r5, r6, r7, lr}
    49ec:	e12fff1e 	bx	lr

000049f0 <__sseek>:
    49f0:	e92d4010 	push	{r4, lr}
    49f4:	e1a04001 	mov	r4, r1
    49f8:	e1d110fe 	ldrsh	r1, [r1, #14]
    49fc:	eb0001f2 	bl	51cc <_lseek_r>
    4a00:	e1d430bc 	ldrh	r3, [r4, #12]
    4a04:	e3700001 	cmn	r0, #1
    4a08:	03c33a01 	biceq	r3, r3, #4096	; 0x1000
    4a0c:	13833a01 	orrne	r3, r3, #4096	; 0x1000
    4a10:	01c430bc 	strheq	r3, [r4, #12]
    4a14:	11c430bc 	strhne	r3, [r4, #12]
    4a18:	15840050 	strne	r0, [r4, #80]	; 0x50
    4a1c:	e8bd4010 	pop	{r4, lr}
    4a20:	e12fff1e 	bx	lr

00004a24 <__sclose>:
    4a24:	e92d4008 	push	{r3, lr}
    4a28:	e1d110fe 	ldrsh	r1, [r1, #14]
    4a2c:	eb000175 	bl	5008 <_close_r>
    4a30:	e8bd4008 	pop	{r3, lr}
    4a34:	e12fff1e 	bx	lr

00004a38 <strcmp>:
    4a38:	e0202001 	eor	r2, r0, r1
    4a3c:	e3120003 	tst	r2, #3
    4a40:	1a000021 	bne	4acc <strcmp_unaligned>
    4a44:	e2102003 	ands	r2, r0, #3
    4a48:	e3c00003 	bic	r0, r0, #3
    4a4c:	e3c11003 	bic	r1, r1, #3
    4a50:	e490c004 	ldr	r12, [r0], #4
    4a54:	04913004 	ldreq	r3, [r1], #4
    4a58:	0a000006 	beq	4a78 <strcmp+0x40>
    4a5c:	e2222003 	eor	r2, r2, #3
    4a60:	e1a02182 	lsl	r2, r2, #3
    4a64:	e3e034ff 	mvn	r3, #-16777216	; 0xff000000
    4a68:	e1a02233 	lsr	r2, r3, r2
    4a6c:	e4913004 	ldr	r3, [r1], #4
    4a70:	e18cc002 	orr	r12, r12, r2
    4a74:	e1833002 	orr	r3, r3, r2
    4a78:	e52d4004 	push	{r4}		; (str r4, [sp, #-4]!)
    4a7c:	e3a04001 	mov	r4, #1
    4a80:	e1844404 	orr	r4, r4, r4, lsl #8
    4a84:	e1844804 	orr	r4, r4, r4, lsl #16
    4a88:	e04c2004 	sub	r2, r12, r4
    4a8c:	e15c0003 	cmp	r12, r3
    4a90:	01c2200c 	biceq	r2, r2, r12
    4a94:	01120384 	tsteq	r2, r4, lsl #7
    4a98:	0490c004 	ldreq	r12, [r0], #4
    4a9c:	04913004 	ldreq	r3, [r1], #4
    4aa0:	0afffff8 	beq	4a88 <strcmp+0x50>
    4aa4:	e1a00c0c 	lsl	r0, r12, #24
    4aa8:	e1a0c42c 	lsr	r12, r12, #8
    4aac:	e3500001 	cmp	r0, #1
    4ab0:	21500c03 	cmpcs	r0, r3, lsl #24
    4ab4:	01a03423 	lsreq	r3, r3, #8
    4ab8:	0afffff9 	beq	4aa4 <strcmp+0x6c>
    4abc:	e20330ff 	and	r3, r3, #255	; 0xff
    4ac0:	e0630c20 	rsb	r0, r3, r0, lsr #24
    4ac4:	e49d4004 	pop	{r4}		; (ldr r4, [sp], #4)
    4ac8:	e12fff1e 	bx	lr

00004acc <strcmp_unaligned>:
    4acc:	e3100003 	tst	r0, #3
    4ad0:	0a000006 	beq	4af0 <strcmp_unaligned+0x24>
    4ad4:	e4d02001 	ldrb	r2, [r0], #1
    4ad8:	e4d13001 	ldrb	r3, [r1], #1
    4adc:	e3520001 	cmp	r2, #1
    4ae0:	21520003 	cmpcs	r2, r3
    4ae4:	0afffff8 	beq	4acc <strcmp_unaligned>
    4ae8:	e0420003 	sub	r0, r2, r3
    4aec:	e12fff1e 	bx	lr
    4af0:	e52d5004 	push	{r5}		; (str r5, [sp, #-4]!)
    4af4:	e52d4004 	push	{r4}		; (str r4, [sp, #-4]!)
    4af8:	e3a02001 	mov	r2, #1
    4afc:	e1822402 	orr	r2, r2, r2, lsl #8
    4b00:	e1822802 	orr	r2, r2, r2, lsl #16
    4b04:	e201c003 	and	r12, r1, #3
    4b08:	e3c11003 	bic	r1, r1, #3
    4b0c:	e4904004 	ldr	r4, [r0], #4
    4b10:	e4915004 	ldr	r5, [r1], #4
    4b14:	e35c0002 	cmp	r12, #2
    4b18:	0a000017 	beq	4b7c <strcmp_unaligned+0xb0>
    4b1c:	8a00002d 	bhi	4bd8 <strcmp_unaligned+0x10c>
    4b20:	e3c4c4ff 	bic	r12, r4, #-16777216	; 0xff000000
    4b24:	e15c0425 	cmp	r12, r5, lsr #8
    4b28:	e0443002 	sub	r3, r4, r2
    4b2c:	e1c33004 	bic	r3, r3, r4
    4b30:	1a000007 	bne	4b54 <strcmp_unaligned+0x88>
    4b34:	e0133382 	ands	r3, r3, r2, lsl #7
    4b38:	04915004 	ldreq	r5, [r1], #4
    4b3c:	1a000006 	bne	4b5c <strcmp_unaligned+0x90>
    4b40:	e02cc004 	eor	r12, r12, r4
    4b44:	e15c0c05 	cmp	r12, r5, lsl #24
    4b48:	1a000008 	bne	4b70 <strcmp_unaligned+0xa4>
    4b4c:	e4904004 	ldr	r4, [r0], #4
    4b50:	eafffff2 	b	4b20 <strcmp_unaligned+0x54>
    4b54:	e1a05425 	lsr	r5, r5, #8
    4b58:	ea000037 	b	4c3c <strcmp_unaligned+0x170>
    4b5c:	e3d334ff 	bics	r3, r3, #-16777216	; 0xff000000
    4b60:	1a000031 	bne	4c2c <strcmp_unaligned+0x160>
    4b64:	e5d15000 	ldrb	r5, [r1]
    4b68:	e1a0cc24 	lsr	r12, r4, #24
    4b6c:	ea000032 	b	4c3c <strcmp_unaligned+0x170>
    4b70:	e1a0cc24 	lsr	r12, r4, #24
    4b74:	e20550ff 	and	r5, r5, #255	; 0xff
    4b78:	ea00002f 	b	4c3c <strcmp_unaligned+0x170>
    4b7c:	e1a0c804 	lsl	r12, r4, #16
    4b80:	e0443002 	sub	r3, r4, r2
    4b84:	e1a0c82c 	lsr	r12, r12, #16
    4b88:	e1c33004 	bic	r3, r3, r4
    4b8c:	e15c0825 	cmp	r12, r5, lsr #16
    4b90:	1a00000e 	bne	4bd0 <strcmp_unaligned+0x104>
    4b94:	e0133382 	ands	r3, r3, r2, lsl #7
    4b98:	04915004 	ldreq	r5, [r1], #4
    4b9c:	1a000004 	bne	4bb4 <strcmp_unaligned+0xe8>
    4ba0:	e02cc004 	eor	r12, r12, r4
    4ba4:	e15c0805 	cmp	r12, r5, lsl #16
    4ba8:	1a000006 	bne	4bc8 <strcmp_unaligned+0xfc>
    4bac:	e4904004 	ldr	r4, [r0], #4
    4bb0:	eafffff1 	b	4b7c <strcmp_unaligned+0xb0>
    4bb4:	e1b03803 	lsls	r3, r3, #16
    4bb8:	1a00001b 	bne	4c2c <strcmp_unaligned+0x160>
    4bbc:	e1d150b0 	ldrh	r5, [r1]
    4bc0:	e1a0c824 	lsr	r12, r4, #16
    4bc4:	ea00001c 	b	4c3c <strcmp_unaligned+0x170>
    4bc8:	e1a05805 	lsl	r5, r5, #16
    4bcc:	e1a0c824 	lsr	r12, r4, #16
    4bd0:	e1a05825 	lsr	r5, r5, #16
    4bd4:	ea000018 	b	4c3c <strcmp_unaligned+0x170>
    4bd8:	e204c0ff 	and	r12, r4, #255	; 0xff
    4bdc:	e15c0c25 	cmp	r12, r5, lsr #24
    4be0:	e0443002 	sub	r3, r4, r2
    4be4:	e1c33004 	bic	r3, r3, r4
    4be8:	1a000007 	bne	4c0c <strcmp_unaligned+0x140>
    4bec:	e0133382 	ands	r3, r3, r2, lsl #7
    4bf0:	04915004 	ldreq	r5, [r1], #4
    4bf4:	1a000006 	bne	4c14 <strcmp_unaligned+0x148>
    4bf8:	e02cc004 	eor	r12, r12, r4
    4bfc:	e15c0405 	cmp	r12, r5, lsl #8
    4c00:	1a000006 	bne	4c20 <strcmp_unaligned+0x154>
    4c04:	e4904004 	ldr	r4, [r0], #4
    4c08:	eafffff2 	b	4bd8 <strcmp_unaligned+0x10c>
    4c0c:	e1a05c25 	lsr	r5, r5, #24
    4c10:	ea000009 	b	4c3c <strcmp_unaligned+0x170>
    4c14:	e31400ff 	tst	r4, #255	; 0xff
    4c18:	0a000003 	beq	4c2c <strcmp_unaligned+0x160>
    4c1c:	e4915004 	ldr	r5, [r1], #4
    4c20:	e1a0c424 	lsr	r12, r4, #8
    4c24:	e3c554ff 	bic	r5, r5, #-16777216	; 0xff000000
    4c28:	ea000003 	b	4c3c <strcmp_unaligned+0x170>
    4c2c:	e3a00000 	mov	r0, #0
    4c30:	e49d4004 	pop	{r4}		; (ldr r4, [sp], #4)
    4c34:	e49d5004 	pop	{r5}		; (ldr r5, [sp], #4)
    4c38:	e12fff1e 	bx	lr
    4c3c:	e20c20ff 	and	r2, r12, #255	; 0xff
    4c40:	e20500ff 	and	r0, r5, #255	; 0xff
    4c44:	e3500001 	cmp	r0, #1
    4c48:	21500002 	cmpcs	r0, r2
    4c4c:	01a0c42c 	lsreq	r12, r12, #8
    4c50:	01a05425 	lsreq	r5, r5, #8
    4c54:	0afffff8 	beq	4c3c <strcmp_unaligned+0x170>
    4c58:	e0420000 	sub	r0, r2, r0
    4c5c:	e49d4004 	pop	{r4}		; (ldr r4, [sp], #4)
    4c60:	e49d5004 	pop	{r5}		; (ldr r5, [sp], #4)
    4c64:	e12fff1e 	bx	lr

00004c68 <strlen>:
    4c68:	e3c01003 	bic	r1, r0, #3
    4c6c:	e2100003 	ands	r0, r0, #3
    4c70:	e2600000 	rsb	r0, r0, #0
    4c74:	e4913004 	ldr	r3, [r1], #4
    4c78:	e280c004 	add	r12, r0, #4
    4c7c:	e1a0c18c 	lsl	r12, r12, #3
    4c80:	e3e02000 	mvn	r2, #0
    4c84:	11833c32 	orrne	r3, r3, r2, lsr r12
    4c88:	e3a0c001 	mov	r12, #1
    4c8c:	e18cc40c 	orr	r12, r12, r12, lsl #8
    4c90:	e18cc80c 	orr	r12, r12, r12, lsl #16
    4c94:	e043200c 	sub	r2, r3, r12
    4c98:	e1c22003 	bic	r2, r2, r3
    4c9c:	e012238c 	ands	r2, r2, r12, lsl #7
    4ca0:	04913004 	ldreq	r3, [r1], #4
    4ca4:	02800004 	addeq	r0, r0, #4
    4ca8:	0afffff9 	beq	4c94 <strlen+0x2c>
    4cac:	e31300ff 	tst	r3, #255	; 0xff
    4cb0:	12800001 	addne	r0, r0, #1
    4cb4:	13130cff 	tstne	r3, #65280	; 0xff00
    4cb8:	12800001 	addne	r0, r0, #1
    4cbc:	131308ff 	tstne	r3, #16711680	; 0xff0000
    4cc0:	12800001 	addne	r0, r0, #1
    4cc4:	e12fff1e 	bx	lr

00004cc8 <__swbuf_r>:
    4cc8:	e92d4070 	push	{r4, r5, r6, lr}
    4ccc:	e2506000 	subs	r6, r0, #0
    4cd0:	e1a05001 	mov	r5, r1
    4cd4:	e1a04002 	mov	r4, r2
    4cd8:	0a000002 	beq	4ce8 <__swbuf_r+0x20>
    4cdc:	e5963038 	ldr	r3, [r6, #56]	; 0x38
    4ce0:	e3530000 	cmp	r3, #0
    4ce4:	0a00003b 	beq	4dd8 <__swbuf_r+0x110>
    4ce8:	e1d430bc 	ldrh	r3, [r4, #12]
    4cec:	e5942018 	ldr	r2, [r4, #24]
    4cf0:	e3130008 	tst	r3, #8
    4cf4:	e5842008 	str	r2, [r4, #8]
    4cf8:	0a000026 	beq	4d98 <__swbuf_r+0xd0>
    4cfc:	e5942010 	ldr	r2, [r4, #16]
    4d00:	e3520000 	cmp	r2, #0
    4d04:	0a000023 	beq	4d98 <__swbuf_r+0xd0>
    4d08:	e3130a02 	tst	r3, #8192	; 0x2000
    4d0c:	05941064 	ldreq	r1, [r4, #100]	; 0x64
    4d10:	03833a02 	orreq	r3, r3, #8192	; 0x2000
    4d14:	03c11a02 	biceq	r1, r1, #8192	; 0x2000
    4d18:	01c430bc 	strheq	r3, [r4, #12]
    4d1c:	e5943000 	ldr	r3, [r4]
    4d20:	05841064 	streq	r1, [r4, #100]	; 0x64
    4d24:	e5941014 	ldr	r1, [r4, #20]
    4d28:	e0622003 	rsb	r2, r2, r3
    4d2c:	e1520001 	cmp	r2, r1
    4d30:	e20550ff 	and	r5, r5, #255	; 0xff
    4d34:	b2822001 	addlt	r2, r2, #1
    4d38:	aa00001e 	bge	4db8 <__swbuf_r+0xf0>
    4d3c:	e5941008 	ldr	r1, [r4, #8]
    4d40:	e2411001 	sub	r1, r1, #1
    4d44:	e5841008 	str	r1, [r4, #8]
    4d48:	e4c35001 	strb	r5, [r3], #1
    4d4c:	e5941014 	ldr	r1, [r4, #20]
    4d50:	e1510002 	cmp	r1, r2
    4d54:	e5843000 	str	r3, [r4]
    4d58:	0a000007 	beq	4d7c <__swbuf_r+0xb4>
    4d5c:	e1d430bc 	ldrh	r3, [r4, #12]
    4d60:	e3130001 	tst	r3, #1
    4d64:	0a000001 	beq	4d70 <__swbuf_r+0xa8>
    4d68:	e355000a 	cmp	r5, #10
    4d6c:	0a000002 	beq	4d7c <__swbuf_r+0xb4>
    4d70:	e1a00005 	mov	r0, r5
    4d74:	e8bd4070 	pop	{r4, r5, r6, lr}
    4d78:	e12fff1e 	bx	lr
    4d7c:	e1a00006 	mov	r0, r6
    4d80:	e1a01004 	mov	r1, r4
    4d84:	ebfff514 	bl	21dc <_fflush_r>
    4d88:	e3500000 	cmp	r0, #0
    4d8c:	0afffff7 	beq	4d70 <__swbuf_r+0xa8>
    4d90:	e3e05000 	mvn	r5, #0
    4d94:	eafffff5 	b	4d70 <__swbuf_r+0xa8>
    4d98:	e1a00006 	mov	r0, r6
    4d9c:	e1a01004 	mov	r1, r4
    4da0:	ebfff415 	bl	1dfc <__swsetup_r>
    4da4:	e3500000 	cmp	r0, #0
    4da8:	e1d430bc 	ldrh	r3, [r4, #12]
    4dac:	1a00000b 	bne	4de0 <__swbuf_r+0x118>
    4db0:	e5942010 	ldr	r2, [r4, #16]
    4db4:	eaffffd3 	b	4d08 <__swbuf_r+0x40>
    4db8:	e1a00006 	mov	r0, r6
    4dbc:	e1a01004 	mov	r1, r4
    4dc0:	ebfff505 	bl	21dc <_fflush_r>
    4dc4:	e3500000 	cmp	r0, #0
    4dc8:	05943000 	ldreq	r3, [r4]
    4dcc:	03a02001 	moveq	r2, #1
    4dd0:	0affffd9 	beq	4d3c <__swbuf_r+0x74>
    4dd4:	eaffffed 	b	4d90 <__swbuf_r+0xc8>
    4dd8:	ebfff5d9 	bl	2544 <__sinit>
    4ddc:	eaffffc1 	b	4ce8 <__swbuf_r+0x20>
    4de0:	e3833040 	orr	r3, r3, #64	; 0x40
    4de4:	e1c430bc 	strh	r3, [r4, #12]
    4de8:	e3a03009 	mov	r3, #9
    4dec:	e3e05000 	mvn	r5, #0
    4df0:	e5863000 	str	r3, [r6]
    4df4:	eaffffdd 	b	4d70 <__swbuf_r+0xa8>

00004df8 <__swbuf>:
    4df8:	e1a02001 	mov	r2, r1
    4dfc:	e59f100c 	ldr	r1, [pc, #12]	; 4e10 <__swbuf+0x18>
    4e00:	e1a03000 	mov	r3, r0
    4e04:	e5910000 	ldr	r0, [r1]
    4e08:	e1a01003 	mov	r1, r3
    4e0c:	eaffffad 	b	4cc8 <__swbuf_r>
    4e10:	0000e550 	.word	0x0000e550

00004e14 <_wcrtomb_r>:
    4e14:	e92d41f0 	push	{r4, r5, r6, r7, r8, lr}
    4e18:	e2516000 	subs	r6, r1, #0
    4e1c:	e1a05003 	mov	r5, r3
    4e20:	e24dd018 	sub	sp, sp, #24
    4e24:	e1a04000 	mov	r4, r0
    4e28:	e1a07002 	mov	r7, r2
    4e2c:	e59f306c 	ldr	r3, [pc, #108]	; 4ea0 <_wcrtomb_r+0x8c>
    4e30:	0a000010 	beq	4e78 <_wcrtomb_r+0x64>
    4e34:	e5938000 	ldr	r8, [r3]
    4e38:	ebfff916 	bl	3298 <__locale_charset>
    4e3c:	e58d5000 	str	r5, [sp]
    4e40:	e1a03000 	mov	r3, r0
    4e44:	e1a01006 	mov	r1, r6
    4e48:	e1a00004 	mov	r0, r4
    4e4c:	e1a02007 	mov	r2, r7
    4e50:	e1a0e00f 	mov	lr, pc
    4e54:	e12fff18 	bx	r8
    4e58:	e3700001 	cmn	r0, #1
    4e5c:	03a03000 	moveq	r3, #0
    4e60:	05853000 	streq	r3, [r5]
    4e64:	03a0308a 	moveq	r3, #138	; 0x8a
    4e68:	05843000 	streq	r3, [r4]
    4e6c:	e28dd018 	add	sp, sp, #24
    4e70:	e8bd41f0 	pop	{r4, r5, r6, r7, r8, lr}
    4e74:	e12fff1e 	bx	lr
    4e78:	e5937000 	ldr	r7, [r3]
    4e7c:	ebfff905 	bl	3298 <__locale_charset>
    4e80:	e58d5000 	str	r5, [sp]
    4e84:	e1a03000 	mov	r3, r0
    4e88:	e28d100c 	add	r1, sp, #12
    4e8c:	e1a00004 	mov	r0, r4
    4e90:	e1a02006 	mov	r2, r6
    4e94:	e1a0e00f 	mov	lr, pc
    4e98:	e12fff17 	bx	r7
    4e9c:	eaffffed 	b	4e58 <_wcrtomb_r+0x44>
    4ea0:	0000ee0c 	.word	0x0000ee0c

00004ea4 <wcrtomb>:
    4ea4:	e92d45f0 	push	{r4, r5, r6, r7, r8, r10, lr}
    4ea8:	e2506000 	subs	r6, r0, #0
    4eac:	e24dd01c 	sub	sp, sp, #28
    4eb0:	e59f5088 	ldr	r5, [pc, #136]	; 4f40 <wcrtomb+0x9c>
    4eb4:	e1a07001 	mov	r7, r1
    4eb8:	e1a04002 	mov	r4, r2
    4ebc:	0a000013 	beq	4f10 <wcrtomb+0x6c>
    4ec0:	e59f307c 	ldr	r3, [pc, #124]	; 4f44 <wcrtomb+0xa0>
    4ec4:	e595a000 	ldr	r10, [r5]
    4ec8:	e5938000 	ldr	r8, [r3]
    4ecc:	ebfff8f1 	bl	3298 <__locale_charset>
    4ed0:	e58d4000 	str	r4, [sp]
    4ed4:	e1a03000 	mov	r3, r0
    4ed8:	e1a01006 	mov	r1, r6
    4edc:	e1a0000a 	mov	r0, r10
    4ee0:	e1a02007 	mov	r2, r7
    4ee4:	e1a0e00f 	mov	lr, pc
    4ee8:	e12fff18 	bx	r8
    4eec:	e3700001 	cmn	r0, #1
    4ef0:	03a02000 	moveq	r2, #0
    4ef4:	05953000 	ldreq	r3, [r5]
    4ef8:	05842000 	streq	r2, [r4]
    4efc:	03a0208a 	moveq	r2, #138	; 0x8a
    4f00:	05832000 	streq	r2, [r3]
    4f04:	e28dd01c 	add	sp, sp, #28
    4f08:	e8bd45f0 	pop	{r4, r5, r6, r7, r8, r10, lr}
    4f0c:	e12fff1e 	bx	lr
    4f10:	e59f302c 	ldr	r3, [pc, #44]	; 4f44 <wcrtomb+0xa0>
    4f14:	e5958000 	ldr	r8, [r5]
    4f18:	e5937000 	ldr	r7, [r3]
    4f1c:	ebfff8dd 	bl	3298 <__locale_charset>
    4f20:	e58d4000 	str	r4, [sp]
    4f24:	e1a03000 	mov	r3, r0
    4f28:	e28d100c 	add	r1, sp, #12
    4f2c:	e1a00008 	mov	r0, r8
    4f30:	e1a02006 	mov	r2, r6
    4f34:	e1a0e00f 	mov	lr, pc
    4f38:	e12fff17 	bx	r7
    4f3c:	eaffffea 	b	4eec <wcrtomb+0x48>
    4f40:	0000e550 	.word	0x0000e550
    4f44:	0000ee0c 	.word	0x0000ee0c

00004f48 <__ascii_wctomb>:
    4f48:	e3510000 	cmp	r1, #0
    4f4c:	0a000006 	beq	4f6c <__ascii_wctomb+0x24>
    4f50:	e35200ff 	cmp	r2, #255	; 0xff
    4f54:	83a0308a 	movhi	r3, #138	; 0x8a
    4f58:	85803000 	strhi	r3, [r0]
    4f5c:	95c12000 	strbls	r2, [r1]
    4f60:	83e00000 	mvnhi	r0, #0
    4f64:	93a00001 	movls	r0, #1
    4f68:	e12fff1e 	bx	lr
    4f6c:	e1a00001 	mov	r0, r1
    4f70:	e12fff1e 	bx	lr

00004f74 <_wctomb_r>:
    4f74:	e92d41f0 	push	{r4, r5, r6, r7, r8, lr}
    4f78:	e1a06003 	mov	r6, r3
    4f7c:	e59f303c 	ldr	r3, [pc, #60]	; 4fc0 <_wctomb_r+0x4c>
    4f80:	e24dd008 	sub	sp, sp, #8
    4f84:	e1a05000 	mov	r5, r0
    4f88:	e1a08001 	mov	r8, r1
    4f8c:	e1a07002 	mov	r7, r2
    4f90:	e5934000 	ldr	r4, [r3]
    4f94:	ebfff8bf 	bl	3298 <__locale_charset>
    4f98:	e58d6000 	str	r6, [sp]
    4f9c:	e1a03000 	mov	r3, r0
    4fa0:	e1a01008 	mov	r1, r8
    4fa4:	e1a00005 	mov	r0, r5
    4fa8:	e1a02007 	mov	r2, r7
    4fac:	e1a0e00f 	mov	lr, pc
    4fb0:	e12fff14 	bx	r4
    4fb4:	e28dd008 	add	sp, sp, #8
    4fb8:	e8bd41f0 	pop	{r4, r5, r6, r7, r8, lr}
    4fbc:	e12fff1e 	bx	lr
    4fc0:	0000ee0c 	.word	0x0000ee0c

00004fc4 <_write_r>:
    4fc4:	e92d4038 	push	{r3, r4, r5, lr}
    4fc8:	e59f4034 	ldr	r4, [pc, #52]	; 5004 <_write_r+0x40>
    4fcc:	e1a05000 	mov	r5, r0
    4fd0:	e1a00001 	mov	r0, r1
    4fd4:	e1a01002 	mov	r1, r2
    4fd8:	e1a02003 	mov	r2, r3
    4fdc:	e3a03000 	mov	r3, #0
    4fe0:	e5843000 	str	r3, [r4]
    4fe4:	eb000494 	bl	623c <_write>
    4fe8:	e3700001 	cmn	r0, #1
    4fec:	1a000002 	bne	4ffc <_write_r+0x38>
    4ff0:	e5943000 	ldr	r3, [r4]
    4ff4:	e3530000 	cmp	r3, #0
    4ff8:	15853000 	strne	r3, [r5]
    4ffc:	e8bd4038 	pop	{r3, r4, r5, lr}
    5000:	e12fff1e 	bx	lr
    5004:	00043fe8 	.word	0x00043fe8

00005008 <_close_r>:
    5008:	e92d4038 	push	{r3, r4, r5, lr}
    500c:	e59f402c 	ldr	r4, [pc, #44]	; 5040 <_close_r+0x38>
    5010:	e3a03000 	mov	r3, #0
    5014:	e1a05000 	mov	r5, r0
    5018:	e1a00001 	mov	r0, r1
    501c:	e5843000 	str	r3, [r4]
    5020:	eb0003eb 	bl	5fd4 <_close>
    5024:	e3700001 	cmn	r0, #1
    5028:	1a000002 	bne	5038 <_close_r+0x30>
    502c:	e5943000 	ldr	r3, [r4]
    5030:	e3530000 	cmp	r3, #0
    5034:	15853000 	strne	r3, [r5]
    5038:	e8bd4038 	pop	{r3, r4, r5, lr}
    503c:	e12fff1e 	bx	lr
    5040:	00043fe8 	.word	0x00043fe8

00005044 <_fclose_r>:
    5044:	e92d4070 	push	{r4, r5, r6, lr}
    5048:	e2514000 	subs	r4, r1, #0
    504c:	e1a05000 	mov	r5, r0
    5050:	01a06004 	moveq	r6, r4
    5054:	0a00002b 	beq	5108 <_fclose_r+0xc4>
    5058:	ebfff595 	bl	26b4 <__sfp_lock_acquire>
    505c:	e3550000 	cmp	r5, #0
    5060:	0a000002 	beq	5070 <_fclose_r+0x2c>
    5064:	e5953038 	ldr	r3, [r5, #56]	; 0x38
    5068:	e3530000 	cmp	r3, #0
    506c:	0a000028 	beq	5114 <_fclose_r+0xd0>
    5070:	e1d460fc 	ldrsh	r6, [r4, #12]
    5074:	e3560000 	cmp	r6, #0
    5078:	0a000021 	beq	5104 <_fclose_r+0xc0>
    507c:	e1a00005 	mov	r0, r5
    5080:	e1a01004 	mov	r1, r4
    5084:	ebfff454 	bl	21dc <_fflush_r>
    5088:	e594302c 	ldr	r3, [r4, #44]	; 0x2c
    508c:	e3530000 	cmp	r3, #0
    5090:	e1a06000 	mov	r6, r0
    5094:	0a000005 	beq	50b0 <_fclose_r+0x6c>
    5098:	e1a00005 	mov	r0, r5
    509c:	e594101c 	ldr	r1, [r4, #28]
    50a0:	e1a0e00f 	mov	lr, pc
    50a4:	e12fff13 	bx	r3
    50a8:	e3500000 	cmp	r0, #0
    50ac:	b3e06000 	mvnlt	r6, #0
    50b0:	e1d430bc 	ldrh	r3, [r4, #12]
    50b4:	e3130080 	tst	r3, #128	; 0x80
    50b8:	1a00001b 	bne	512c <_fclose_r+0xe8>
    50bc:	e5941030 	ldr	r1, [r4, #48]	; 0x30
    50c0:	e3510000 	cmp	r1, #0
    50c4:	0a000005 	beq	50e0 <_fclose_r+0x9c>
    50c8:	e2843040 	add	r3, r4, #64	; 0x40
    50cc:	e1510003 	cmp	r1, r3
    50d0:	11a00005 	movne	r0, r5
    50d4:	1bfff643 	blne	29e8 <_free_r>
    50d8:	e3a03000 	mov	r3, #0
    50dc:	e5843030 	str	r3, [r4, #48]	; 0x30
    50e0:	e5941044 	ldr	r1, [r4, #68]	; 0x44
    50e4:	e3510000 	cmp	r1, #0
    50e8:	0a000003 	beq	50fc <_fclose_r+0xb8>
    50ec:	e1a00005 	mov	r0, r5
    50f0:	ebfff63c 	bl	29e8 <_free_r>
    50f4:	e3a03000 	mov	r3, #0
    50f8:	e5843044 	str	r3, [r4, #68]	; 0x44
    50fc:	e3a03000 	mov	r3, #0
    5100:	e1c430bc 	strh	r3, [r4, #12]
    5104:	ebfff56b 	bl	26b8 <__sfp_lock_release>
    5108:	e1a00006 	mov	r0, r6
    510c:	e8bd4070 	pop	{r4, r5, r6, lr}
    5110:	e12fff1e 	bx	lr
    5114:	e1a00005 	mov	r0, r5
    5118:	ebfff509 	bl	2544 <__sinit>
    511c:	e1d460fc 	ldrsh	r6, [r4, #12]
    5120:	e3560000 	cmp	r6, #0
    5124:	1affffd4 	bne	507c <_fclose_r+0x38>
    5128:	eafffff5 	b	5104 <_fclose_r+0xc0>
    512c:	e1a00005 	mov	r0, r5
    5130:	e5941010 	ldr	r1, [r4, #16]
    5134:	ebfff62b 	bl	29e8 <_free_r>
    5138:	eaffffdf 	b	50bc <_fclose_r+0x78>

0000513c <fclose>:
    513c:	e59f3008 	ldr	r3, [pc, #8]	; 514c <fclose+0x10>
    5140:	e1a01000 	mov	r1, r0
    5144:	e5930000 	ldr	r0, [r3]
    5148:	eaffffbd 	b	5044 <_fclose_r>
    514c:	0000e550 	.word	0x0000e550

00005150 <_fstat_r>:
    5150:	e92d4038 	push	{r3, r4, r5, lr}
    5154:	e59f4030 	ldr	r4, [pc, #48]	; 518c <_fstat_r+0x3c>
    5158:	e3a03000 	mov	r3, #0
    515c:	e1a05000 	mov	r5, r0
    5160:	e1a00001 	mov	r0, r1
    5164:	e1a01002 	mov	r1, r2
    5168:	e5843000 	str	r3, [r4]
    516c:	eb0003bc 	bl	6064 <_fstat>
    5170:	e3700001 	cmn	r0, #1
    5174:	1a000002 	bne	5184 <_fstat_r+0x34>
    5178:	e5943000 	ldr	r3, [r4]
    517c:	e3530000 	cmp	r3, #0
    5180:	15853000 	strne	r3, [r5]
    5184:	e8bd4038 	pop	{r3, r4, r5, lr}
    5188:	e12fff1e 	bx	lr
    518c:	00043fe8 	.word	0x00043fe8

00005190 <_isatty_r>:
    5190:	e92d4038 	push	{r3, r4, r5, lr}
    5194:	e59f402c 	ldr	r4, [pc, #44]	; 51c8 <_isatty_r+0x38>
    5198:	e3a03000 	mov	r3, #0
    519c:	e1a05000 	mov	r5, r0
    51a0:	e1a00001 	mov	r0, r1
    51a4:	e5843000 	str	r3, [r4]
    51a8:	eb0003c5 	bl	60c4 <_isatty>
    51ac:	e3700001 	cmn	r0, #1
    51b0:	1a000002 	bne	51c0 <_isatty_r+0x30>
    51b4:	e5943000 	ldr	r3, [r4]
    51b8:	e3530000 	cmp	r3, #0
    51bc:	15853000 	strne	r3, [r5]
    51c0:	e8bd4038 	pop	{r3, r4, r5, lr}
    51c4:	e12fff1e 	bx	lr
    51c8:	00043fe8 	.word	0x00043fe8

000051cc <_lseek_r>:
    51cc:	e92d4038 	push	{r3, r4, r5, lr}
    51d0:	e59f4034 	ldr	r4, [pc, #52]	; 520c <_lseek_r+0x40>
    51d4:	e1a05000 	mov	r5, r0
    51d8:	e1a00001 	mov	r0, r1
    51dc:	e1a01002 	mov	r1, r2
    51e0:	e1a02003 	mov	r2, r3
    51e4:	e3a03000 	mov	r3, #0
    51e8:	e5843000 	str	r3, [r4]
    51ec:	eb0003ce 	bl	612c <_lseek>
    51f0:	e3700001 	cmn	r0, #1
    51f4:	1a000002 	bne	5204 <_lseek_r+0x38>
    51f8:	e5943000 	ldr	r3, [r4]
    51fc:	e3530000 	cmp	r3, #0
    5200:	15853000 	strne	r3, [r5]
    5204:	e8bd4038 	pop	{r3, r4, r5, lr}
    5208:	e12fff1e 	bx	lr
    520c:	00043fe8 	.word	0x00043fe8

00005210 <_read_r>:
    5210:	e92d4038 	push	{r3, r4, r5, lr}
    5214:	e59f4034 	ldr	r4, [pc, #52]	; 5250 <_read_r+0x40>
    5218:	e1a05000 	mov	r5, r0
    521c:	e1a00001 	mov	r0, r1
    5220:	e1a01002 	mov	r1, r2
    5224:	e1a02003 	mov	r2, r3
    5228:	e3a03000 	mov	r3, #0
    522c:	e5843000 	str	r3, [r4]
    5230:	eb0003e9 	bl	61dc <_read>
    5234:	e3700001 	cmn	r0, #1
    5238:	1a000002 	bne	5248 <_read_r+0x38>
    523c:	e5943000 	ldr	r3, [r4]
    5240:	e3530000 	cmp	r3, #0
    5244:	15853000 	strne	r3, [r5]
    5248:	e8bd4038 	pop	{r3, r4, r5, lr}
    524c:	e12fff1e 	bx	lr
    5250:	00043fe8 	.word	0x00043fe8

00005254 <cleanup_glue>:
    5254:	e92d4038 	push	{r3, r4, r5, lr}
    5258:	e1a04001 	mov	r4, r1
    525c:	e5911000 	ldr	r1, [r1]
    5260:	e3510000 	cmp	r1, #0
    5264:	e1a05000 	mov	r5, r0
    5268:	1bfffff9 	blne	5254 <cleanup_glue>
    526c:	e1a00005 	mov	r0, r5
    5270:	e1a01004 	mov	r1, r4
    5274:	ebfff5db 	bl	29e8 <_free_r>
    5278:	e8bd4038 	pop	{r3, r4, r5, lr}
    527c:	e12fff1e 	bx	lr

00005280 <_reclaim_reent>:
    5280:	e59f30f0 	ldr	r3, [pc, #240]	; 5378 <_reclaim_reent+0xf8>
    5284:	e5933000 	ldr	r3, [r3]
    5288:	e1500003 	cmp	r0, r3
    528c:	e92d4070 	push	{r4, r5, r6, lr}
    5290:	e1a05000 	mov	r5, r0
    5294:	0a00002b 	beq	5348 <_reclaim_reent+0xc8>
    5298:	e590204c 	ldr	r2, [r0, #76]	; 0x4c
    529c:	e3520000 	cmp	r2, #0
    52a0:	0a000011 	beq	52ec <_reclaim_reent+0x6c>
    52a4:	e3a03000 	mov	r3, #0
    52a8:	e1a06003 	mov	r6, r3
    52ac:	e7921103 	ldr	r1, [r2, r3, lsl #2]
    52b0:	e3510000 	cmp	r1, #0
    52b4:	0a000005 	beq	52d0 <_reclaim_reent+0x50>
    52b8:	e5914000 	ldr	r4, [r1]
    52bc:	e1a00005 	mov	r0, r5
    52c0:	ebfff5c8 	bl	29e8 <_free_r>
    52c4:	e2541000 	subs	r1, r4, #0
    52c8:	1afffffa 	bne	52b8 <_reclaim_reent+0x38>
    52cc:	e595204c 	ldr	r2, [r5, #76]	; 0x4c
    52d0:	e2866001 	add	r6, r6, #1
    52d4:	e3560020 	cmp	r6, #32
    52d8:	e1a03006 	mov	r3, r6
    52dc:	1afffff2 	bne	52ac <_reclaim_reent+0x2c>
    52e0:	e1a00005 	mov	r0, r5
    52e4:	e1a01002 	mov	r1, r2
    52e8:	ebfff5be 	bl	29e8 <_free_r>
    52ec:	e5951040 	ldr	r1, [r5, #64]	; 0x40
    52f0:	e3510000 	cmp	r1, #0
    52f4:	11a00005 	movne	r0, r5
    52f8:	1bfff5ba 	blne	29e8 <_free_r>
    52fc:	e5951148 	ldr	r1, [r5, #328]	; 0x148
    5300:	e3510000 	cmp	r1, #0
    5304:	0a000008 	beq	532c <_reclaim_reent+0xac>
    5308:	e2856f53 	add	r6, r5, #332	; 0x14c
    530c:	e1510006 	cmp	r1, r6
    5310:	0a000005 	beq	532c <_reclaim_reent+0xac>
    5314:	e5914000 	ldr	r4, [r1]
    5318:	e1a00005 	mov	r0, r5
    531c:	ebfff5b1 	bl	29e8 <_free_r>
    5320:	e1560004 	cmp	r6, r4
    5324:	e1a01004 	mov	r1, r4
    5328:	1afffff9 	bne	5314 <_reclaim_reent+0x94>
    532c:	e5951054 	ldr	r1, [r5, #84]	; 0x54
    5330:	e3510000 	cmp	r1, #0
    5334:	11a00005 	movne	r0, r5
    5338:	1bfff5aa 	blne	29e8 <_free_r>
    533c:	e5953038 	ldr	r3, [r5, #56]	; 0x38
    5340:	e3530000 	cmp	r3, #0
    5344:	1a000001 	bne	5350 <_reclaim_reent+0xd0>
    5348:	e8bd4070 	pop	{r4, r5, r6, lr}
    534c:	e12fff1e 	bx	lr
    5350:	e1a00005 	mov	r0, r5
    5354:	e595c03c 	ldr	r12, [r5, #60]	; 0x3c
    5358:	e1a0e00f 	mov	lr, pc
    535c:	e12fff1c 	bx	r12
    5360:	e59512e0 	ldr	r1, [r5, #736]	; 0x2e0
    5364:	e3510000 	cmp	r1, #0
    5368:	0afffff6 	beq	5348 <_reclaim_reent+0xc8>
    536c:	e1a00005 	mov	r0, r5
    5370:	e8bd4070 	pop	{r4, r5, r6, lr}
    5374:	eaffffb6 	b	5254 <cleanup_glue>
    5378:	0000e550 	.word	0x0000e550

0000537c <_wrapup_reent>:
    537c:	e92d40f8 	push	{r3, r4, r5, r6, r7, lr}
    5380:	e2507000 	subs	r7, r0, #0
    5384:	059f3060 	ldreq	r3, [pc, #96]	; 53ec <_wrapup_reent+0x70>
    5388:	05937000 	ldreq	r7, [r3]
    538c:	e5976148 	ldr	r6, [r7, #328]	; 0x148
    5390:	e3560000 	cmp	r6, #0
    5394:	0a00000d 	beq	53d0 <_wrapup_reent+0x54>
    5398:	e5965004 	ldr	r5, [r6, #4]
    539c:	e2554001 	subs	r4, r5, #1
    53a0:	52855002 	addpl	r5, r5, #2
    53a4:	50865105 	addpl	r5, r6, r5, lsl #2
    53a8:	4a000005 	bmi	53c4 <_wrapup_reent+0x48>
    53ac:	e5353004 	ldr	r3, [r5, #-4]!
    53b0:	e2444001 	sub	r4, r4, #1
    53b4:	e1a0e00f 	mov	lr, pc
    53b8:	e12fff13 	bx	r3
    53bc:	e3740001 	cmn	r4, #1
    53c0:	1afffff9 	bne	53ac <_wrapup_reent+0x30>
    53c4:	e5966000 	ldr	r6, [r6]
    53c8:	e3560000 	cmp	r6, #0
    53cc:	1afffff1 	bne	5398 <_wrapup_reent+0x1c>
    53d0:	e597303c 	ldr	r3, [r7, #60]	; 0x3c
    53d4:	e3530000 	cmp	r3, #0
    53d8:	11a00007 	movne	r0, r7
    53dc:	11a0e00f 	movne	lr, pc
    53e0:	112fff13 	bxne	r3
    53e4:	e8bd40f8 	pop	{r3, r4, r5, r6, r7, lr}
    53e8:	e12fff1e 	bx	lr
    53ec:	0000e550 	.word	0x0000e550

000053f0 <__aeabi_uldivmod>:
    53f0:	e3530000 	cmp	r3, #0
    53f4:	03520000 	cmpeq	r2, #0
    53f8:	1a000004 	bne	5410 <__aeabi_uldivmod+0x20>
    53fc:	e3510000 	cmp	r1, #0
    5400:	03500000 	cmpeq	r0, #0
    5404:	13e01000 	mvnne	r1, #0
    5408:	13e00000 	mvnne	r0, #0
    540c:	ea000027 	b	54b0 <__aeabi_idiv0>
    5410:	e24dd008 	sub	sp, sp, #8
    5414:	e92d6000 	push	{sp, lr}
    5418:	eb000014 	bl	5470 <__gnu_uldivmod_helper>
    541c:	e59de004 	ldr	lr, [sp, #4]
    5420:	e28dd008 	add	sp, sp, #8
    5424:	e8bd000c 	pop	{r2, r3}
    5428:	e12fff1e 	bx	lr

0000542c <__gnu_ldivmod_helper>:
    542c:	e92d45f8 	push	{r3, r4, r5, r6, r7, r8, r10, lr}
    5430:	e1a08002 	mov	r8, r2
    5434:	e1a0a003 	mov	r10, r3
    5438:	e1a06000 	mov	r6, r0
    543c:	e1a07001 	mov	r7, r1
    5440:	eb00001b 	bl	54b4 <__divdi3>
    5444:	e0030198 	mul	r3, r8, r1
    5448:	e1a02000 	mov	r2, r0
    544c:	e0854098 	umull	r4, r5, r8, r0
    5450:	e022329a 	mla	r2, r10, r2, r3
    5454:	e59d3020 	ldr	r3, [sp, #32]
    5458:	e0825005 	add	r5, r2, r5
    545c:	e0564004 	subs	r4, r6, r4
    5460:	e0c75005 	sbc	r5, r7, r5
    5464:	e8830030 	stm	r3, {r4, r5}
    5468:	e8bd45f8 	pop	{r3, r4, r5, r6, r7, r8, r10, lr}
    546c:	e12fff1e 	bx	lr

00005470 <__gnu_uldivmod_helper>:
    5470:	e92d41f0 	push	{r4, r5, r6, r7, r8, lr}
    5474:	e1a08002 	mov	r8, r2
    5478:	e1a06000 	mov	r6, r0
    547c:	e1a07001 	mov	r7, r1
    5480:	e1a04003 	mov	r4, r3
    5484:	eb000146 	bl	59a4 <__udivdi3>
    5488:	e0030490 	mul	r3, r0, r4
    548c:	e0854890 	umull	r4, r5, r0, r8
    5490:	e0283891 	mla	r8, r1, r8, r3
    5494:	e59d3018 	ldr	r3, [sp, #24]
    5498:	e0885005 	add	r5, r8, r5
    549c:	e0564004 	subs	r4, r6, r4
    54a0:	e0c75005 	sbc	r5, r7, r5
    54a4:	e8830030 	stm	r3, {r4, r5}
    54a8:	e8bd41f0 	pop	{r4, r5, r6, r7, r8, lr}
    54ac:	e12fff1e 	bx	lr

000054b0 <__aeabi_idiv0>:
    54b0:	e12fff1e 	bx	lr

000054b4 <__divdi3>:
    54b4:	e92d4ff0 	push	{r4, r5, r6, r7, r8, r9, r10, r11, lr}
    54b8:	e3510000 	cmp	r1, #0
    54bc:	e24dd00c 	sub	sp, sp, #12
    54c0:	e1a0c003 	mov	r12, r3
    54c4:	a3a05000 	movge	r5, #0
    54c8:	ba00009b 	blt	573c <__divdi3+0x288>
    54cc:	e35c0000 	cmp	r12, #0
    54d0:	ba000095 	blt	572c <__divdi3+0x278>
    54d4:	e2539000 	subs	r9, r3, #0
    54d8:	e1a08000 	mov	r8, r0
    54dc:	e1a0a001 	mov	r10, r1
    54e0:	e1a0b002 	mov	r11, r2
    54e4:	e1a04002 	mov	r4, r2
    54e8:	e1a06000 	mov	r6, r0
    54ec:	e1a07001 	mov	r7, r1
    54f0:	1a000042 	bne	5600 <__divdi3+0x14c>
    54f4:	e1520001 	cmp	r2, r1
    54f8:	9a000050 	bls	5640 <__divdi3+0x18c>
    54fc:	e1a00002 	mov	r0, r2
    5500:	eb00028e 	bl	5f40 <__clzsi2>
    5504:	e3500000 	cmp	r0, #0
    5508:	12603020 	rsbne	r3, r0, #32
    550c:	11a03338 	lsrne	r3, r8, r3
    5510:	11a0401b 	lslne	r4, r11, r0
    5514:	1183701a 	orrne	r7, r3, r10, lsl r0
    5518:	11a06018 	lslne	r6, r8, r0
    551c:	e1a08824 	lsr	r8, r4, #16
    5520:	e1a01008 	mov	r1, r8
    5524:	e1a00007 	mov	r0, r7
    5528:	eb00023f 	bl	5e2c <__aeabi_uidiv>
    552c:	e1a01008 	mov	r1, r8
    5530:	e1a09000 	mov	r9, r0
    5534:	e1a00007 	mov	r0, r7
    5538:	eb000278 	bl	5f20 <__aeabi_uidivmod>
    553c:	e1a0a804 	lsl	r10, r4, #16
    5540:	e1a0a82a 	lsr	r10, r10, #16
    5544:	e000099a 	mul	r0, r10, r9
    5548:	e1a03826 	lsr	r3, r6, #16
    554c:	e1831801 	orr	r1, r3, r1, lsl #16
    5550:	e1500001 	cmp	r0, r1
    5554:	9a000007 	bls	5578 <__divdi3+0xc4>
    5558:	e0911004 	adds	r1, r1, r4
    555c:	e2492001 	sub	r2, r9, #1
    5560:	2a000003 	bcs	5574 <__divdi3+0xc0>
    5564:	e1500001 	cmp	r0, r1
    5568:	82499002 	subhi	r9, r9, #2
    556c:	80811004 	addhi	r1, r1, r4
    5570:	8a000000 	bhi	5578 <__divdi3+0xc4>
    5574:	e1a09002 	mov	r9, r2
    5578:	e060b001 	rsb	r11, r0, r1
    557c:	e1a0000b 	mov	r0, r11
    5580:	e1a01008 	mov	r1, r8
    5584:	eb000228 	bl	5e2c <__aeabi_uidiv>
    5588:	e1a01008 	mov	r1, r8
    558c:	e1a07000 	mov	r7, r0
    5590:	e1a0000b 	mov	r0, r11
    5594:	eb000261 	bl	5f20 <__aeabi_uidivmod>
    5598:	e00a0a97 	mul	r10, r7, r10
    559c:	e1a06806 	lsl	r6, r6, #16
    55a0:	e1a06826 	lsr	r6, r6, #16
    55a4:	e1861801 	orr	r1, r6, r1, lsl #16
    55a8:	e15a0001 	cmp	r10, r1
    55ac:	9a000006 	bls	55cc <__divdi3+0x118>
    55b0:	e0914004 	adds	r4, r1, r4
    55b4:	e2473001 	sub	r3, r7, #1
    55b8:	2a000002 	bcs	55c8 <__divdi3+0x114>
    55bc:	e15a0004 	cmp	r10, r4
    55c0:	82477002 	subhi	r7, r7, #2
    55c4:	8a000000 	bhi	55cc <__divdi3+0x118>
    55c8:	e1a07003 	mov	r7, r3
    55cc:	e1870809 	orr	r0, r7, r9, lsl #16
    55d0:	e3a08000 	mov	r8, #0
    55d4:	e3550000 	cmp	r5, #0
    55d8:	e1a02000 	mov	r2, r0
    55dc:	e1a03008 	mov	r3, r8
    55e0:	0a000001 	beq	55ec <__divdi3+0x138>
    55e4:	e2722000 	rsbs	r2, r2, #0
    55e8:	e2e33000 	rsc	r3, r3, #0
    55ec:	e1a00002 	mov	r0, r2
    55f0:	e1a01003 	mov	r1, r3
    55f4:	e28dd00c 	add	sp, sp, #12
    55f8:	e8bd4ff0 	pop	{r4, r5, r6, r7, r8, r9, r10, r11, lr}
    55fc:	e12fff1e 	bx	lr
    5600:	e1590001 	cmp	r9, r1
    5604:	83a08000 	movhi	r8, #0
    5608:	81a00008 	movhi	r0, r8
    560c:	8afffff0 	bhi	55d4 <__divdi3+0x120>
    5610:	e1a00003 	mov	r0, r3
    5614:	eb000249 	bl	5f40 <__clzsi2>
    5618:	e2504000 	subs	r4, r0, #0
    561c:	1a000083 	bne	5830 <__divdi3+0x37c>
    5620:	e159000a 	cmp	r9, r10
    5624:	215b0008 	cmpcs	r11, r8
    5628:	83a08000 	movhi	r8, #0
    562c:	93a08001 	movls	r8, #1
    5630:	93a00001 	movls	r0, #1
    5634:	91a08004 	movls	r8, r4
    5638:	81a00008 	movhi	r0, r8
    563c:	eaffffe4 	b	55d4 <__divdi3+0x120>
    5640:	e3520000 	cmp	r2, #0
    5644:	1a000003 	bne	5658 <__divdi3+0x1a4>
    5648:	e3a00001 	mov	r0, #1
    564c:	e1a01002 	mov	r1, r2
    5650:	eb0001f5 	bl	5e2c <__aeabi_uidiv>
    5654:	e1a04000 	mov	r4, r0
    5658:	e1a00004 	mov	r0, r4
    565c:	eb000237 	bl	5f40 <__clzsi2>
    5660:	e2503000 	subs	r3, r0, #0
    5664:	1a000038 	bne	574c <__divdi3+0x298>
    5668:	e1a09804 	lsl	r9, r4, #16
    566c:	e0647007 	rsb	r7, r4, r7
    5670:	e1a0a824 	lsr	r10, r4, #16
    5674:	e1a09829 	lsr	r9, r9, #16
    5678:	e3a08001 	mov	r8, #1
    567c:	e1a0100a 	mov	r1, r10
    5680:	e1a00007 	mov	r0, r7
    5684:	eb0001e8 	bl	5e2c <__aeabi_uidiv>
    5688:	e1a0100a 	mov	r1, r10
    568c:	e1a0b000 	mov	r11, r0
    5690:	e1a00007 	mov	r0, r7
    5694:	eb000221 	bl	5f20 <__aeabi_uidivmod>
    5698:	e0000b99 	mul	r0, r9, r11
    569c:	e1a03826 	lsr	r3, r6, #16
    56a0:	e1831801 	orr	r1, r3, r1, lsl #16
    56a4:	e1500001 	cmp	r0, r1
    56a8:	9a000006 	bls	56c8 <__divdi3+0x214>
    56ac:	e0911004 	adds	r1, r1, r4
    56b0:	e24b3001 	sub	r3, r11, #1
    56b4:	2a0000b2 	bcs	5984 <__divdi3+0x4d0>
    56b8:	e1500001 	cmp	r0, r1
    56bc:	824bb002 	subhi	r11, r11, #2
    56c0:	80811004 	addhi	r1, r1, r4
    56c4:	9a0000ae 	bls	5984 <__divdi3+0x4d0>
    56c8:	e0603001 	rsb	r3, r0, r1
    56cc:	e1a00003 	mov	r0, r3
    56d0:	e1a0100a 	mov	r1, r10
    56d4:	e58d3000 	str	r3, [sp]
    56d8:	eb0001d3 	bl	5e2c <__aeabi_uidiv>
    56dc:	e59d3000 	ldr	r3, [sp]
    56e0:	e1a07000 	mov	r7, r0
    56e4:	e1a0100a 	mov	r1, r10
    56e8:	e1a00003 	mov	r0, r3
    56ec:	eb00020b 	bl	5f20 <__aeabi_uidivmod>
    56f0:	e0090997 	mul	r9, r7, r9
    56f4:	e1a06806 	lsl	r6, r6, #16
    56f8:	e1a06826 	lsr	r6, r6, #16
    56fc:	e1861801 	orr	r1, r6, r1, lsl #16
    5700:	e1590001 	cmp	r9, r1
    5704:	9a000006 	bls	5724 <__divdi3+0x270>
    5708:	e0914004 	adds	r4, r1, r4
    570c:	e2473001 	sub	r3, r7, #1
    5710:	2a000002 	bcs	5720 <__divdi3+0x26c>
    5714:	e1590004 	cmp	r9, r4
    5718:	82477002 	subhi	r7, r7, #2
    571c:	8a000000 	bhi	5724 <__divdi3+0x270>
    5720:	e1a07003 	mov	r7, r3
    5724:	e187080b 	orr	r0, r7, r11, lsl #16
    5728:	eaffffa9 	b	55d4 <__divdi3+0x120>
    572c:	e1e05005 	mvn	r5, r5
    5730:	e2722000 	rsbs	r2, r2, #0
    5734:	e2e33000 	rsc	r3, r3, #0
    5738:	eaffff65 	b	54d4 <__divdi3+0x20>
    573c:	e2700000 	rsbs	r0, r0, #0
    5740:	e2e11000 	rsc	r1, r1, #0
    5744:	e3e05000 	mvn	r5, #0
    5748:	eaffff5f 	b	54cc <__divdi3+0x18>
    574c:	e1a04314 	lsl	r4, r4, r3
    5750:	e263b020 	rsb	r11, r3, #32
    5754:	e1a08b37 	lsr	r8, r7, r11
    5758:	e1a0bb36 	lsr	r11, r6, r11
    575c:	e1a0a824 	lsr	r10, r4, #16
    5760:	e1a0100a 	mov	r1, r10
    5764:	e1a00008 	mov	r0, r8
    5768:	e18bb317 	orr	r11, r11, r7, lsl r3
    576c:	e1a06316 	lsl	r6, r6, r3
    5770:	eb0001ad 	bl	5e2c <__aeabi_uidiv>
    5774:	e1a0100a 	mov	r1, r10
    5778:	e1a03000 	mov	r3, r0
    577c:	e1a00008 	mov	r0, r8
    5780:	e58d3000 	str	r3, [sp]
    5784:	eb0001e5 	bl	5f20 <__aeabi_uidivmod>
    5788:	e1a09804 	lsl	r9, r4, #16
    578c:	e59d3000 	ldr	r3, [sp]
    5790:	e1a09829 	lsr	r9, r9, #16
    5794:	e0000399 	mul	r0, r9, r3
    5798:	e1a0282b 	lsr	r2, r11, #16
    579c:	e1821801 	orr	r1, r2, r1, lsl #16
    57a0:	e1500001 	cmp	r0, r1
    57a4:	9a000006 	bls	57c4 <__divdi3+0x310>
    57a8:	e0911004 	adds	r1, r1, r4
    57ac:	e2432001 	sub	r2, r3, #1
    57b0:	2a000079 	bcs	599c <__divdi3+0x4e8>
    57b4:	e1500001 	cmp	r0, r1
    57b8:	82433002 	subhi	r3, r3, #2
    57bc:	80811004 	addhi	r1, r1, r4
    57c0:	9a000075 	bls	599c <__divdi3+0x4e8>
    57c4:	e0607001 	rsb	r7, r0, r1
    57c8:	e1a00007 	mov	r0, r7
    57cc:	e1a0100a 	mov	r1, r10
    57d0:	e58d3000 	str	r3, [sp]
    57d4:	eb000194 	bl	5e2c <__aeabi_uidiv>
    57d8:	e1a0100a 	mov	r1, r10
    57dc:	e1a08000 	mov	r8, r0
    57e0:	e1a00007 	mov	r0, r7
    57e4:	eb0001cd 	bl	5f20 <__aeabi_uidivmod>
    57e8:	e0070899 	mul	r7, r9, r8
    57ec:	e1a0b80b 	lsl	r11, r11, #16
    57f0:	e1a0b82b 	lsr	r11, r11, #16
    57f4:	e18b1801 	orr	r1, r11, r1, lsl #16
    57f8:	e1570001 	cmp	r7, r1
    57fc:	e59d3000 	ldr	r3, [sp]
    5800:	9a000007 	bls	5824 <__divdi3+0x370>
    5804:	e0911004 	adds	r1, r1, r4
    5808:	e2482001 	sub	r2, r8, #1
    580c:	2a000003 	bcs	5820 <__divdi3+0x36c>
    5810:	e1570001 	cmp	r7, r1
    5814:	82488002 	subhi	r8, r8, #2
    5818:	80811004 	addhi	r1, r1, r4
    581c:	8a000000 	bhi	5824 <__divdi3+0x370>
    5820:	e1a08002 	mov	r8, r2
    5824:	e0677001 	rsb	r7, r7, r1
    5828:	e1888803 	orr	r8, r8, r3, lsl #16
    582c:	eaffff92 	b	567c <__divdi3+0x1c8>
    5830:	e2643020 	rsb	r3, r4, #32
    5834:	e1a0233b 	lsr	r2, r11, r3
    5838:	e1829419 	orr	r9, r2, r9, lsl r4
    583c:	e1a0233a 	lsr	r2, r10, r3
    5840:	e1a03336 	lsr	r3, r6, r3
    5844:	e1a07829 	lsr	r7, r9, #16
    5848:	e1a01007 	mov	r1, r7
    584c:	e1a00002 	mov	r0, r2
    5850:	e183a41a 	orr	r10, r3, r10, lsl r4
    5854:	e58d2004 	str	r2, [sp, #4]
    5858:	eb000173 	bl	5e2c <__aeabi_uidiv>
    585c:	e59d2004 	ldr	r2, [sp, #4]
    5860:	e1a03000 	mov	r3, r0
    5864:	e1a01007 	mov	r1, r7
    5868:	e1a00002 	mov	r0, r2
    586c:	e58d3000 	str	r3, [sp]
    5870:	eb0001aa 	bl	5f20 <__aeabi_uidivmod>
    5874:	e1a08809 	lsl	r8, r9, #16
    5878:	e59d3000 	ldr	r3, [sp]
    587c:	e1a08828 	lsr	r8, r8, #16
    5880:	e0000398 	mul	r0, r8, r3
    5884:	e1a0282a 	lsr	r2, r10, #16
    5888:	e1821801 	orr	r1, r2, r1, lsl #16
    588c:	e1500001 	cmp	r0, r1
    5890:	e1a0b41b 	lsl	r11, r11, r4
    5894:	9a000006 	bls	58b4 <__divdi3+0x400>
    5898:	e0911009 	adds	r1, r1, r9
    589c:	e2432001 	sub	r2, r3, #1
    58a0:	2a00003b 	bcs	5994 <__divdi3+0x4e0>
    58a4:	e1500001 	cmp	r0, r1
    58a8:	82433002 	subhi	r3, r3, #2
    58ac:	80811009 	addhi	r1, r1, r9
    58b0:	9a000037 	bls	5994 <__divdi3+0x4e0>
    58b4:	e060c001 	rsb	r12, r0, r1
    58b8:	e1a0000c 	mov	r0, r12
    58bc:	e1a01007 	mov	r1, r7
    58c0:	e88d1008 	stm	sp, {r3, r12}
    58c4:	eb000158 	bl	5e2c <__aeabi_uidiv>
    58c8:	e59dc004 	ldr	r12, [sp, #4]
    58cc:	e1a02000 	mov	r2, r0
    58d0:	e1a01007 	mov	r1, r7
    58d4:	e1a0000c 	mov	r0, r12
    58d8:	e58d2004 	str	r2, [sp, #4]
    58dc:	eb00018f 	bl	5f20 <__aeabi_uidivmod>
    58e0:	e59d2004 	ldr	r2, [sp, #4]
    58e4:	e0080892 	mul	r8, r2, r8
    58e8:	e1a0a80a 	lsl	r10, r10, #16
    58ec:	e1a0a82a 	lsr	r10, r10, #16
    58f0:	e18a1801 	orr	r1, r10, r1, lsl #16
    58f4:	e1580001 	cmp	r8, r1
    58f8:	e59d3000 	ldr	r3, [sp]
    58fc:	9a000006 	bls	591c <__divdi3+0x468>
    5900:	e0911009 	adds	r1, r1, r9
    5904:	e2420001 	sub	r0, r2, #1
    5908:	2a00001f 	bcs	598c <__divdi3+0x4d8>
    590c:	e1580001 	cmp	r8, r1
    5910:	82422002 	subhi	r2, r2, #2
    5914:	80811009 	addhi	r1, r1, r9
    5918:	9a00001b 	bls	598c <__divdi3+0x4d8>
    591c:	e0688001 	rsb	r8, r8, r1
    5920:	e1820803 	orr	r0, r2, r3, lsl #16
    5924:	e1a01820 	lsr	r1, r0, #16
    5928:	e1a0382b 	lsr	r3, r11, #16
    592c:	e1c0c801 	bic	r12, r0, r1, lsl #16
    5930:	e1cbb803 	bic	r11, r11, r3, lsl #16
    5934:	e0020b9c 	mul	r2, r12, r11
    5938:	e00b0b91 	mul	r11, r1, r11
    593c:	e00c0c93 	mul	r12, r3, r12
    5940:	e0030391 	mul	r3, r1, r3
    5944:	e09bc00c 	adds	r12, r11, r12
    5948:	22833801 	addcs	r3, r3, #65536	; 0x10000
    594c:	e092280c 	adds	r2, r2, r12, lsl #16
    5950:	e0a3382c 	adc	r3, r3, r12, lsr #16
    5954:	e1580003 	cmp	r8, r3
    5958:	3a000006 	bcc	5978 <__divdi3+0x4c4>
    595c:	13a08000 	movne	r8, #0
    5960:	03a08001 	moveq	r8, #1
    5964:	e1520416 	cmp	r2, r6, lsl r4
    5968:	93a08000 	movls	r8, #0
    596c:	82088001 	andhi	r8, r8, #1
    5970:	e3580000 	cmp	r8, #0
    5974:	0affff16 	beq	55d4 <__divdi3+0x120>
    5978:	e2400001 	sub	r0, r0, #1
    597c:	e3a08000 	mov	r8, #0
    5980:	eaffff13 	b	55d4 <__divdi3+0x120>
    5984:	e1a0b003 	mov	r11, r3
    5988:	eaffff4e 	b	56c8 <__divdi3+0x214>
    598c:	e1a02000 	mov	r2, r0
    5990:	eaffffe1 	b	591c <__divdi3+0x468>
    5994:	e1a03002 	mov	r3, r2
    5998:	eaffffc5 	b	58b4 <__divdi3+0x400>
    599c:	e1a03002 	mov	r3, r2
    59a0:	eaffff87 	b	57c4 <__divdi3+0x310>

000059a4 <__udivdi3>:
    59a4:	e92d4ff0 	push	{r4, r5, r6, r7, r8, r9, r10, r11, lr}
    59a8:	e253a000 	subs	r10, r3, #0
    59ac:	e24dd00c 	sub	sp, sp, #12
    59b0:	e1a06000 	mov	r6, r0
    59b4:	e1a05001 	mov	r5, r1
    59b8:	e1a07002 	mov	r7, r2
    59bc:	e1a04002 	mov	r4, r2
    59c0:	e1a08000 	mov	r8, r0
    59c4:	e1a09001 	mov	r9, r1
    59c8:	1a00003a 	bne	5ab8 <__udivdi3+0x114>
    59cc:	e1520001 	cmp	r2, r1
    59d0:	9a000048 	bls	5af8 <__udivdi3+0x154>
    59d4:	e1a00002 	mov	r0, r2
    59d8:	eb000158 	bl	5f40 <__clzsi2>
    59dc:	e3500000 	cmp	r0, #0
    59e0:	12603020 	rsbne	r3, r0, #32
    59e4:	11a03336 	lsrne	r3, r6, r3
    59e8:	11a04017 	lslne	r4, r7, r0
    59ec:	11839015 	orrne	r9, r3, r5, lsl r0
    59f0:	e1a05824 	lsr	r5, r4, #16
    59f4:	11a08016 	lslne	r8, r6, r0
    59f8:	e1a01005 	mov	r1, r5
    59fc:	e1a00009 	mov	r0, r9
    5a00:	eb000109 	bl	5e2c <__aeabi_uidiv>
    5a04:	e1a01005 	mov	r1, r5
    5a08:	e1a07000 	mov	r7, r0
    5a0c:	e1a00009 	mov	r0, r9
    5a10:	eb000142 	bl	5f20 <__aeabi_uidivmod>
    5a14:	e1a0a804 	lsl	r10, r4, #16
    5a18:	e1a0a82a 	lsr	r10, r10, #16
    5a1c:	e000079a 	mul	r0, r10, r7
    5a20:	e1a03828 	lsr	r3, r8, #16
    5a24:	e1831801 	orr	r1, r3, r1, lsl #16
    5a28:	e1500001 	cmp	r0, r1
    5a2c:	9a000007 	bls	5a50 <__udivdi3+0xac>
    5a30:	e0911004 	adds	r1, r1, r4
    5a34:	e2472001 	sub	r2, r7, #1
    5a38:	2a000003 	bcs	5a4c <__udivdi3+0xa8>
    5a3c:	e1500001 	cmp	r0, r1
    5a40:	82477002 	subhi	r7, r7, #2
    5a44:	80811004 	addhi	r1, r1, r4
    5a48:	8a000000 	bhi	5a50 <__udivdi3+0xac>
    5a4c:	e1a07002 	mov	r7, r2
    5a50:	e0609001 	rsb	r9, r0, r1
    5a54:	e1a00009 	mov	r0, r9
    5a58:	e1a01005 	mov	r1, r5
    5a5c:	eb0000f2 	bl	5e2c <__aeabi_uidiv>
    5a60:	e1a01005 	mov	r1, r5
    5a64:	e1a06000 	mov	r6, r0
    5a68:	e1a00009 	mov	r0, r9
    5a6c:	eb00012b 	bl	5f20 <__aeabi_uidivmod>
    5a70:	e00a0a96 	mul	r10, r6, r10
    5a74:	e1a08808 	lsl	r8, r8, #16
    5a78:	e1a08828 	lsr	r8, r8, #16
    5a7c:	e1881801 	orr	r1, r8, r1, lsl #16
    5a80:	e15a0001 	cmp	r10, r1
    5a84:	9a000005 	bls	5aa0 <__udivdi3+0xfc>
    5a88:	e0914004 	adds	r4, r1, r4
    5a8c:	e2463001 	sub	r3, r6, #1
    5a90:	2a0000d3 	bcs	5de4 <__udivdi3+0x440>
    5a94:	e15a0004 	cmp	r10, r4
    5a98:	82466002 	subhi	r6, r6, #2
    5a9c:	9a0000d0 	bls	5de4 <__udivdi3+0x440>
    5aa0:	e1860807 	orr	r0, r6, r7, lsl #16
    5aa4:	e3a06000 	mov	r6, #0
    5aa8:	e1a01006 	mov	r1, r6
    5aac:	e28dd00c 	add	sp, sp, #12
    5ab0:	e8bd4ff0 	pop	{r4, r5, r6, r7, r8, r9, r10, r11, lr}
    5ab4:	e12fff1e 	bx	lr
    5ab8:	e15a0001 	cmp	r10, r1
    5abc:	83a06000 	movhi	r6, #0
    5ac0:	81a00006 	movhi	r0, r6
    5ac4:	8afffff7 	bhi	5aa8 <__udivdi3+0x104>
    5ac8:	e1a0000a 	mov	r0, r10
    5acc:	eb00011b 	bl	5f40 <__clzsi2>
    5ad0:	e2504000 	subs	r4, r0, #0
    5ad4:	1a00003f 	bne	5bd8 <__udivdi3+0x234>
    5ad8:	e15a0005 	cmp	r10, r5
    5adc:	21570006 	cmpcs	r7, r6
    5ae0:	83a06000 	movhi	r6, #0
    5ae4:	93a06001 	movls	r6, #1
    5ae8:	93a00001 	movls	r0, #1
    5aec:	91a06004 	movls	r6, r4
    5af0:	81a00006 	movhi	r0, r6
    5af4:	eaffffeb 	b	5aa8 <__udivdi3+0x104>
    5af8:	e3520000 	cmp	r2, #0
    5afc:	1a000003 	bne	5b10 <__udivdi3+0x16c>
    5b00:	e3a00001 	mov	r0, #1
    5b04:	e1a01002 	mov	r1, r2
    5b08:	eb0000c7 	bl	5e2c <__aeabi_uidiv>
    5b0c:	e1a04000 	mov	r4, r0
    5b10:	e1a00004 	mov	r0, r4
    5b14:	eb000109 	bl	5f40 <__clzsi2>
    5b18:	e2503000 	subs	r3, r0, #0
    5b1c:	1a000079 	bne	5d08 <__udivdi3+0x364>
    5b20:	e1a09804 	lsl	r9, r4, #16
    5b24:	e0645005 	rsb	r5, r4, r5
    5b28:	e1a0a824 	lsr	r10, r4, #16
    5b2c:	e1a09829 	lsr	r9, r9, #16
    5b30:	e3a06001 	mov	r6, #1
    5b34:	e1a0100a 	mov	r1, r10
    5b38:	e1a00005 	mov	r0, r5
    5b3c:	eb0000ba 	bl	5e2c <__aeabi_uidiv>
    5b40:	e1a0100a 	mov	r1, r10
    5b44:	e1a07000 	mov	r7, r0
    5b48:	e1a00005 	mov	r0, r5
    5b4c:	eb0000f3 	bl	5f20 <__aeabi_uidivmod>
    5b50:	e0000799 	mul	r0, r9, r7
    5b54:	e1a03828 	lsr	r3, r8, #16
    5b58:	e1831801 	orr	r1, r3, r1, lsl #16
    5b5c:	e1500001 	cmp	r0, r1
    5b60:	9a000006 	bls	5b80 <__udivdi3+0x1dc>
    5b64:	e0911004 	adds	r1, r1, r4
    5b68:	e2473001 	sub	r3, r7, #1
    5b6c:	2a00009e 	bcs	5dec <__udivdi3+0x448>
    5b70:	e1500001 	cmp	r0, r1
    5b74:	82477002 	subhi	r7, r7, #2
    5b78:	80811004 	addhi	r1, r1, r4
    5b7c:	9a00009a 	bls	5dec <__udivdi3+0x448>
    5b80:	e060b001 	rsb	r11, r0, r1
    5b84:	e1a0000b 	mov	r0, r11
    5b88:	e1a0100a 	mov	r1, r10
    5b8c:	eb0000a6 	bl	5e2c <__aeabi_uidiv>
    5b90:	e1a0100a 	mov	r1, r10
    5b94:	e1a05000 	mov	r5, r0
    5b98:	e1a0000b 	mov	r0, r11
    5b9c:	eb0000df 	bl	5f20 <__aeabi_uidivmod>
    5ba0:	e0090995 	mul	r9, r5, r9
    5ba4:	e1a08808 	lsl	r8, r8, #16
    5ba8:	e1a08828 	lsr	r8, r8, #16
    5bac:	e1881801 	orr	r1, r8, r1, lsl #16
    5bb0:	e1590001 	cmp	r9, r1
    5bb4:	9a000005 	bls	5bd0 <__udivdi3+0x22c>
    5bb8:	e0914004 	adds	r4, r1, r4
    5bbc:	e2453001 	sub	r3, r5, #1
    5bc0:	2a00008b 	bcs	5df4 <__udivdi3+0x450>
    5bc4:	e1590004 	cmp	r9, r4
    5bc8:	82455002 	subhi	r5, r5, #2
    5bcc:	9a000088 	bls	5df4 <__udivdi3+0x450>
    5bd0:	e1850807 	orr	r0, r5, r7, lsl #16
    5bd4:	eaffffb3 	b	5aa8 <__udivdi3+0x104>
    5bd8:	e2643020 	rsb	r3, r4, #32
    5bdc:	e1a02337 	lsr	r2, r7, r3
    5be0:	e182a41a 	orr	r10, r2, r10, lsl r4
    5be4:	e1a02335 	lsr	r2, r5, r3
    5be8:	e1a03336 	lsr	r3, r6, r3
    5bec:	e1a0882a 	lsr	r8, r10, #16
    5bf0:	e1a01008 	mov	r1, r8
    5bf4:	e1a00002 	mov	r0, r2
    5bf8:	e1835415 	orr	r5, r3, r5, lsl r4
    5bfc:	e58d2004 	str	r2, [sp, #4]
    5c00:	eb000089 	bl	5e2c <__aeabi_uidiv>
    5c04:	e59d2004 	ldr	r2, [sp, #4]
    5c08:	e1a0b000 	mov	r11, r0
    5c0c:	e1a01008 	mov	r1, r8
    5c10:	e1a00002 	mov	r0, r2
    5c14:	eb0000c1 	bl	5f20 <__aeabi_uidivmod>
    5c18:	e1a0980a 	lsl	r9, r10, #16
    5c1c:	e1a09829 	lsr	r9, r9, #16
    5c20:	e0000b99 	mul	r0, r9, r11
    5c24:	e1a03825 	lsr	r3, r5, #16
    5c28:	e1831801 	orr	r1, r3, r1, lsl #16
    5c2c:	e1500001 	cmp	r0, r1
    5c30:	e1a07417 	lsl	r7, r7, r4
    5c34:	9a000003 	bls	5c48 <__udivdi3+0x2a4>
    5c38:	e091100a 	adds	r1, r1, r10
    5c3c:	e24b2001 	sub	r2, r11, #1
    5c40:	3a000072 	bcc	5e10 <__udivdi3+0x46c>
    5c44:	e1a0b002 	mov	r11, r2
    5c48:	e0603001 	rsb	r3, r0, r1
    5c4c:	e1a00003 	mov	r0, r3
    5c50:	e1a01008 	mov	r1, r8
    5c54:	e58d3004 	str	r3, [sp, #4]
    5c58:	eb000073 	bl	5e2c <__aeabi_uidiv>
    5c5c:	e59d3004 	ldr	r3, [sp, #4]
    5c60:	e1a02000 	mov	r2, r0
    5c64:	e1a01008 	mov	r1, r8
    5c68:	e1a00003 	mov	r0, r3
    5c6c:	e58d2004 	str	r2, [sp, #4]
    5c70:	eb0000aa 	bl	5f20 <__aeabi_uidivmod>
    5c74:	e59d2004 	ldr	r2, [sp, #4]
    5c78:	e0090992 	mul	r9, r2, r9
    5c7c:	e1a05805 	lsl	r5, r5, #16
    5c80:	e1a05825 	lsr	r5, r5, #16
    5c84:	e1851801 	orr	r1, r5, r1, lsl #16
    5c88:	e1590001 	cmp	r9, r1
    5c8c:	9a000003 	bls	5ca0 <__udivdi3+0x2fc>
    5c90:	e091100a 	adds	r1, r1, r10
    5c94:	e2423001 	sub	r3, r2, #1
    5c98:	3a000057 	bcc	5dfc <__udivdi3+0x458>
    5c9c:	e1a02003 	mov	r2, r3
    5ca0:	e0699001 	rsb	r9, r9, r1
    5ca4:	e182080b 	orr	r0, r2, r11, lsl #16
    5ca8:	e1a01820 	lsr	r1, r0, #16
    5cac:	e1a03827 	lsr	r3, r7, #16
    5cb0:	e1c0c801 	bic	r12, r0, r1, lsl #16
    5cb4:	e1c77803 	bic	r7, r7, r3, lsl #16
    5cb8:	e002079c 	mul	r2, r12, r7
    5cbc:	e0070791 	mul	r7, r1, r7
    5cc0:	e00c0c93 	mul	r12, r3, r12
    5cc4:	e0030391 	mul	r3, r1, r3
    5cc8:	e097c00c 	adds	r12, r7, r12
    5ccc:	22833801 	addcs	r3, r3, #65536	; 0x10000
    5cd0:	e092280c 	adds	r2, r2, r12, lsl #16
    5cd4:	e0a3382c 	adc	r3, r3, r12, lsr #16
    5cd8:	e1590003 	cmp	r9, r3
    5cdc:	3a000006 	bcc	5cfc <__udivdi3+0x358>
    5ce0:	13a03000 	movne	r3, #0
    5ce4:	03a03001 	moveq	r3, #1
    5ce8:	e1520416 	cmp	r2, r6, lsl r4
    5cec:	93a06000 	movls	r6, #0
    5cf0:	82036001 	andhi	r6, r3, #1
    5cf4:	e3560000 	cmp	r6, #0
    5cf8:	0affff6a 	beq	5aa8 <__udivdi3+0x104>
    5cfc:	e2400001 	sub	r0, r0, #1
    5d00:	e3a06000 	mov	r6, #0
    5d04:	eaffff67 	b	5aa8 <__udivdi3+0x104>
    5d08:	e1a04314 	lsl	r4, r4, r3
    5d0c:	e263b020 	rsb	r11, r3, #32
    5d10:	e1a02b35 	lsr	r2, r5, r11
    5d14:	e1a0bb36 	lsr	r11, r6, r11
    5d18:	e1a0a824 	lsr	r10, r4, #16
    5d1c:	e1a0100a 	mov	r1, r10
    5d20:	e1a00002 	mov	r0, r2
    5d24:	e18bb315 	orr	r11, r11, r5, lsl r3
    5d28:	e1a08316 	lsl	r8, r6, r3
    5d2c:	e58d2004 	str	r2, [sp, #4]
    5d30:	eb00003d 	bl	5e2c <__aeabi_uidiv>
    5d34:	e59d2004 	ldr	r2, [sp, #4]
    5d38:	e1a07000 	mov	r7, r0
    5d3c:	e1a0100a 	mov	r1, r10
    5d40:	e1a00002 	mov	r0, r2
    5d44:	eb000075 	bl	5f20 <__aeabi_uidivmod>
    5d48:	e1a09804 	lsl	r9, r4, #16
    5d4c:	e1a09829 	lsr	r9, r9, #16
    5d50:	e0000799 	mul	r0, r9, r7
    5d54:	e1a0382b 	lsr	r3, r11, #16
    5d58:	e1831801 	orr	r1, r3, r1, lsl #16
    5d5c:	e1500001 	cmp	r0, r1
    5d60:	9a000006 	bls	5d80 <__udivdi3+0x3dc>
    5d64:	e0911004 	adds	r1, r1, r4
    5d68:	e2473001 	sub	r3, r7, #1
    5d6c:	2a00002c 	bcs	5e24 <__udivdi3+0x480>
    5d70:	e1500001 	cmp	r0, r1
    5d74:	82477002 	subhi	r7, r7, #2
    5d78:	80811004 	addhi	r1, r1, r4
    5d7c:	9a000028 	bls	5e24 <__udivdi3+0x480>
    5d80:	e0605001 	rsb	r5, r0, r1
    5d84:	e1a00005 	mov	r0, r5
    5d88:	e1a0100a 	mov	r1, r10
    5d8c:	eb000026 	bl	5e2c <__aeabi_uidiv>
    5d90:	e1a0100a 	mov	r1, r10
    5d94:	e1a06000 	mov	r6, r0
    5d98:	e1a00005 	mov	r0, r5
    5d9c:	eb00005f 	bl	5f20 <__aeabi_uidivmod>
    5da0:	e0050699 	mul	r5, r9, r6
    5da4:	e1a0b80b 	lsl	r11, r11, #16
    5da8:	e1a0b82b 	lsr	r11, r11, #16
    5dac:	e18b1801 	orr	r1, r11, r1, lsl #16
    5db0:	e1550001 	cmp	r5, r1
    5db4:	9a000007 	bls	5dd8 <__udivdi3+0x434>
    5db8:	e0911004 	adds	r1, r1, r4
    5dbc:	e2463001 	sub	r3, r6, #1
    5dc0:	2a000003 	bcs	5dd4 <__udivdi3+0x430>
    5dc4:	e1550001 	cmp	r5, r1
    5dc8:	82466002 	subhi	r6, r6, #2
    5dcc:	80811004 	addhi	r1, r1, r4
    5dd0:	8a000000 	bhi	5dd8 <__udivdi3+0x434>
    5dd4:	e1a06003 	mov	r6, r3
    5dd8:	e0655001 	rsb	r5, r5, r1
    5ddc:	e1866807 	orr	r6, r6, r7, lsl #16
    5de0:	eaffff53 	b	5b34 <__udivdi3+0x190>
    5de4:	e1a06003 	mov	r6, r3
    5de8:	eaffff2c 	b	5aa0 <__udivdi3+0xfc>
    5dec:	e1a07003 	mov	r7, r3
    5df0:	eaffff62 	b	5b80 <__udivdi3+0x1dc>
    5df4:	e1a05003 	mov	r5, r3
    5df8:	eaffff74 	b	5bd0 <__udivdi3+0x22c>
    5dfc:	e1590001 	cmp	r9, r1
    5e00:	82422002 	subhi	r2, r2, #2
    5e04:	8081100a 	addhi	r1, r1, r10
    5e08:	8affffa4 	bhi	5ca0 <__udivdi3+0x2fc>
    5e0c:	eaffffa2 	b	5c9c <__udivdi3+0x2f8>
    5e10:	e1500001 	cmp	r0, r1
    5e14:	824bb002 	subhi	r11, r11, #2
    5e18:	8081100a 	addhi	r1, r1, r10
    5e1c:	8affff89 	bhi	5c48 <__udivdi3+0x2a4>
    5e20:	eaffff87 	b	5c44 <__udivdi3+0x2a0>
    5e24:	e1a07003 	mov	r7, r3
    5e28:	eaffffd4 	b	5d80 <__udivdi3+0x3dc>

00005e2c <__aeabi_uidiv>:
    5e2c:	e2512001 	subs	r2, r1, #1
    5e30:	012fff1e 	bxeq	lr
    5e34:	3a000036 	bcc	5f14 <__aeabi_uidiv+0xe8>
    5e38:	e1500001 	cmp	r0, r1
    5e3c:	9a000022 	bls	5ecc <__aeabi_uidiv+0xa0>
    5e40:	e1110002 	tst	r1, r2
    5e44:	0a000023 	beq	5ed8 <__aeabi_uidiv+0xac>
    5e48:	e311020e 	tst	r1, #-536870912	; 0xe0000000
    5e4c:	01a01181 	lsleq	r1, r1, #3
    5e50:	03a03008 	moveq	r3, #8
    5e54:	13a03001 	movne	r3, #1
    5e58:	e3510201 	cmp	r1, #268435456	; 0x10000000
    5e5c:	31510000 	cmpcc	r1, r0
    5e60:	31a01201 	lslcc	r1, r1, #4
    5e64:	31a03203 	lslcc	r3, r3, #4
    5e68:	3afffffa 	bcc	5e58 <__aeabi_uidiv+0x2c>
    5e6c:	e3510102 	cmp	r1, #-2147483648	; 0x80000000
    5e70:	31510000 	cmpcc	r1, r0
    5e74:	31a01081 	lslcc	r1, r1, #1
    5e78:	31a03083 	lslcc	r3, r3, #1
    5e7c:	3afffffa 	bcc	5e6c <__aeabi_uidiv+0x40>
    5e80:	e3a02000 	mov	r2, #0
    5e84:	e1500001 	cmp	r0, r1
    5e88:	20400001 	subcs	r0, r0, r1
    5e8c:	21822003 	orrcs	r2, r2, r3
    5e90:	e15000a1 	cmp	r0, r1, lsr #1
    5e94:	204000a1 	subcs	r0, r0, r1, lsr #1
    5e98:	218220a3 	orrcs	r2, r2, r3, lsr #1
    5e9c:	e1500121 	cmp	r0, r1, lsr #2
    5ea0:	20400121 	subcs	r0, r0, r1, lsr #2
    5ea4:	21822123 	orrcs	r2, r2, r3, lsr #2
    5ea8:	e15001a1 	cmp	r0, r1, lsr #3
    5eac:	204001a1 	subcs	r0, r0, r1, lsr #3
    5eb0:	218221a3 	orrcs	r2, r2, r3, lsr #3
    5eb4:	e3500000 	cmp	r0, #0
    5eb8:	11b03223 	lsrsne	r3, r3, #4
    5ebc:	11a01221 	lsrne	r1, r1, #4
    5ec0:	1affffef 	bne	5e84 <__aeabi_uidiv+0x58>
    5ec4:	e1a00002 	mov	r0, r2
    5ec8:	e12fff1e 	bx	lr
    5ecc:	03a00001 	moveq	r0, #1
    5ed0:	13a00000 	movne	r0, #0
    5ed4:	e12fff1e 	bx	lr
    5ed8:	e3510801 	cmp	r1, #65536	; 0x10000
    5edc:	21a01821 	lsrcs	r1, r1, #16
    5ee0:	23a02010 	movcs	r2, #16
    5ee4:	33a02000 	movcc	r2, #0
    5ee8:	e3510c01 	cmp	r1, #256	; 0x100
    5eec:	21a01421 	lsrcs	r1, r1, #8
    5ef0:	22822008 	addcs	r2, r2, #8
    5ef4:	e3510010 	cmp	r1, #16
    5ef8:	21a01221 	lsrcs	r1, r1, #4
    5efc:	22822004 	addcs	r2, r2, #4
    5f00:	e3510004 	cmp	r1, #4
    5f04:	82822003 	addhi	r2, r2, #3
    5f08:	908220a1 	addls	r2, r2, r1, lsr #1
    5f0c:	e1a00230 	lsr	r0, r0, r2
    5f10:	e12fff1e 	bx	lr
    5f14:	e3500000 	cmp	r0, #0
    5f18:	13e00000 	mvnne	r0, #0
    5f1c:	eafffd63 	b	54b0 <__aeabi_idiv0>

00005f20 <__aeabi_uidivmod>:
    5f20:	e3510000 	cmp	r1, #0
    5f24:	0afffffa 	beq	5f14 <__aeabi_uidiv+0xe8>
    5f28:	e92d4003 	push	{r0, r1, lr}
    5f2c:	ebffffbe 	bl	5e2c <__aeabi_uidiv>
    5f30:	e8bd4006 	pop	{r1, r2, lr}
    5f34:	e0030092 	mul	r3, r2, r0
    5f38:	e0411003 	sub	r1, r1, r3
    5f3c:	e12fff1e 	bx	lr

00005f40 <__clzsi2>:
    5f40:	e3a0101c 	mov	r1, #28
    5f44:	e3500801 	cmp	r0, #65536	; 0x10000
    5f48:	21a00820 	lsrcs	r0, r0, #16
    5f4c:	22411010 	subcs	r1, r1, #16
    5f50:	e3500c01 	cmp	r0, #256	; 0x100
    5f54:	21a00420 	lsrcs	r0, r0, #8
    5f58:	22411008 	subcs	r1, r1, #8
    5f5c:	e3500010 	cmp	r0, #16
    5f60:	21a00220 	lsrcs	r0, r0, #4
    5f64:	22411004 	subcs	r1, r1, #4
    5f68:	e28f2008 	add	r2, pc, #8
    5f6c:	e7d20000 	ldrb	r0, [r2, r0]
    5f70:	e0800001 	add	r0, r0, r1
    5f74:	e12fff1e 	bx	lr
    5f78:	02020304 	.word	0x02020304
    5f7c:	01010101 	.word	0x01010101
	...

00005f88 <__cs3_premain>:
    5f88:	e92d4008 	push	{r3, lr}
    5f8c:	eb0001b1 	bl	6658 <__libc_init_array>
    5f90:	e59f3030 	ldr	r3, [pc, #48]	; 5fc8 <__cs3_premain+0x40>
    5f94:	e3530000 	cmp	r3, #0
    5f98:	15930000 	ldrne	r0, [r3]
    5f9c:	01a00003 	moveq	r0, r3
    5fa0:	e59f3024 	ldr	r3, [pc, #36]	; 5fcc <__cs3_premain+0x44>
    5fa4:	e3530000 	cmp	r3, #0
    5fa8:	15931000 	ldrne	r1, [r3]
    5fac:	01a01003 	moveq	r1, r3
    5fb0:	e3a02000 	mov	r2, #0
    5fb4:	ebffea8f 	bl	9f8 <main>
    5fb8:	e59f3010 	ldr	r3, [pc, #16]	; 5fd0 <__cs3_premain+0x48>
    5fbc:	e3530000 	cmp	r3, #0
    5fc0:	1bffeab3 	blne	a94 <exit>
    5fc4:	eafffffe 	b	5fc4 <__cs3_premain+0x3c>
    5fc8:	00044090 	.word	0x00044090
    5fcc:	00044094 	.word	0x00044094
    5fd0:	00000a94 	.word	0x00000a94

00005fd4 <_close>:
    5fd4:	e92d4038 	push	{r3, r4, r5, lr}
    5fd8:	e1a05000 	mov	r5, r0
    5fdc:	eb0000fa 	bl	63cc <__cs3_openslot>
    5fe0:	e2504000 	subs	r4, r0, #0
    5fe4:	0a000016 	beq	6044 <_close+0x70>
    5fe8:	e2453001 	sub	r3, r5, #1
    5fec:	e3530001 	cmp	r3, #1
    5ff0:	9a000008 	bls	6018 <_close+0x44>
    5ff4:	e3a00002 	mov	r0, #2
    5ff8:	e1a01004 	mov	r1, r4
    5ffc:	ef123456 	svc	0x00123456
    6000:	e3500000 	cmp	r0, #0
    6004:	03e03000 	mvneq	r3, #0
    6008:	05843000 	streq	r3, [r4]
    600c:	eb00011c 	bl	6484 <__cs3_checkerror>
    6010:	e8bd4038 	pop	{r3, r4, r5, lr}
    6014:	e12fff1e 	bx	lr
    6018:	e3550001 	cmp	r5, #1
    601c:	13e03007 	mvnne	r3, #7
    6020:	03a03008 	moveq	r3, #8
    6024:	e7943003 	ldr	r3, [r4, r3]
    6028:	e5942000 	ldr	r2, [r4]
    602c:	e1520003 	cmp	r2, r3
    6030:	03e03000 	mvneq	r3, #0
    6034:	05843000 	streq	r3, [r4]
    6038:	03a00000 	moveq	r0, #0
    603c:	1affffec 	bne	5ff4 <_close+0x20>
    6040:	eafffff2 	b	6010 <_close+0x3c>
    6044:	e3e00000 	mvn	r0, #0
    6048:	eafffff0 	b	6010 <_close+0x3c>

0000604c <_exit>:
    604c:	e52de004 	push	{lr}		; (str lr, [sp, #-4]!)
    6050:	e3a00018 	mov	r0, #24
    6054:	e59f1004 	ldr	r1, [pc, #4]	; 6060 <_exit+0x14>
    6058:	ef123456 	svc	0x00123456
    605c:	eafffffe 	b	605c <_exit+0x10>
    6060:	00020026 	.word	0x00020026

00006064 <_fstat>:
    6064:	e92d4038 	push	{r3, r4, r5, lr}
    6068:	e1a04001 	mov	r4, r1
    606c:	eb0000d6 	bl	63cc <__cs3_openslot>
    6070:	e2505000 	subs	r5, r0, #0
    6074:	0a000010 	beq	60bc <_fstat+0x58>
    6078:	e1a00004 	mov	r0, r4
    607c:	e3a01000 	mov	r1, #0
    6080:	e3a0203c 	mov	r2, #60	; 0x3c
    6084:	ebfff7d1 	bl	3fd0 <memset>
    6088:	e3a03a02 	mov	r3, #8192	; 0x2000
    608c:	e5843004 	str	r3, [r4, #4]
    6090:	e3a03b01 	mov	r3, #1024	; 0x400
    6094:	e584302c 	str	r3, [r4, #44]	; 0x2c
    6098:	e3a0000c 	mov	r0, #12
    609c:	e1a01005 	mov	r1, r5
    60a0:	ef123456 	svc	0x00123456
    60a4:	e3700001 	cmn	r0, #1
    60a8:	15840010 	strne	r0, [r4, #16]
    60ac:	13a00000 	movne	r0, #0
    60b0:	eb0000f3 	bl	6484 <__cs3_checkerror>
    60b4:	e8bd4038 	pop	{r3, r4, r5, lr}
    60b8:	e12fff1e 	bx	lr
    60bc:	e3e00000 	mvn	r0, #0
    60c0:	eafffffb 	b	60b4 <_fstat+0x50>

000060c4 <_isatty>:
    60c4:	e92d4008 	push	{r3, lr}
    60c8:	eb0000bf 	bl	63cc <__cs3_openslot>
    60cc:	e2501000 	subs	r1, r0, #0
    60d0:	01a00001 	moveq	r0, r1
    60d4:	0a000002 	beq	60e4 <_isatty+0x20>
    60d8:	e3a00009 	mov	r0, #9
    60dc:	ef123456 	svc	0x00123456
    60e0:	eb0000e7 	bl	6484 <__cs3_checkerror>
    60e4:	e8bd4008 	pop	{r3, lr}
    60e8:	e12fff1e 	bx	lr

000060ec <_kill>:
    60ec:	e3500001 	cmp	r0, #1
    60f0:	e52de004 	push	{lr}		; (str lr, [sp, #-4]!)
    60f4:	0a000002 	beq	6104 <_kill+0x18>
    60f8:	e3a00000 	mov	r0, #0
    60fc:	e49de004 	pop	{lr}		; (ldr lr, [sp], #4)
    6100:	e12fff1e 	bx	lr
    6104:	e59f3018 	ldr	r3, [pc, #24]	; 6124 <_kill+0x38>
    6108:	e59f2018 	ldr	r2, [pc, #24]	; 6128 <_kill+0x3c>
    610c:	e3510006 	cmp	r1, #6
    6110:	e3a00018 	mov	r0, #24
    6114:	11a01002 	movne	r1, r2
    6118:	01a01003 	moveq	r1, r3
    611c:	ef123456 	svc	0x00123456
    6120:	eafffffe 	b	6120 <_kill+0x34>
    6124:	00020023 	.word	0x00020023
    6128:	00020026 	.word	0x00020026

0000612c <_lseek>:
    612c:	e92d4070 	push	{r4, r5, r6, lr}
    6130:	e24dd008 	sub	sp, sp, #8
    6134:	e1a04001 	mov	r4, r1
    6138:	e1a05002 	mov	r5, r2
    613c:	eb0000a2 	bl	63cc <__cs3_openslot>
    6140:	e2506000 	subs	r6, r0, #0
    6144:	0a000022 	beq	61d4 <_lseek+0xa8>
    6148:	e3550001 	cmp	r5, #1
    614c:	0a00001d 	beq	61c8 <_lseek+0x9c>
    6150:	e3550002 	cmp	r5, #2
    6154:	0a000014 	beq	61ac <_lseek+0x80>
    6158:	e3550000 	cmp	r5, #0
    615c:	1a00000d 	bne	6198 <_lseek+0x6c>
    6160:	e5963000 	ldr	r3, [r6]
    6164:	e3540000 	cmp	r4, #0
    6168:	e88d0018 	stm	sp, {r3, r4}
    616c:	ba000009 	blt	6198 <_lseek+0x6c>
    6170:	e3a0000a 	mov	r0, #10
    6174:	e1a0100d 	mov	r1, sp
    6178:	ef123456 	svc	0x00123456
    617c:	e3700001 	cmn	r0, #1
    6180:	15864004 	strne	r4, [r6, #4]
    6184:	11a00004 	movne	r0, r4
    6188:	eb0000bd 	bl	6484 <__cs3_checkerror>
    618c:	e28dd008 	add	sp, sp, #8
    6190:	e8bd4070 	pop	{r4, r5, r6, lr}
    6194:	e12fff1e 	bx	lr
    6198:	eb00012a 	bl	6648 <__errno>
    619c:	e3a03016 	mov	r3, #22
    61a0:	e5803000 	str	r3, [r0]
    61a4:	e3e00000 	mvn	r0, #0
    61a8:	eafffff7 	b	618c <_lseek+0x60>
    61ac:	e3a0000c 	mov	r0, #12
    61b0:	e1a01006 	mov	r1, r6
    61b4:	ef123456 	svc	0x00123456
    61b8:	e3700001 	cmn	r0, #1
    61bc:	10844000 	addne	r4, r4, r0
    61c0:	1affffe6 	bne	6160 <_lseek+0x34>
    61c4:	eaffffef 	b	6188 <_lseek+0x5c>
    61c8:	e5963004 	ldr	r3, [r6, #4]
    61cc:	e0844003 	add	r4, r4, r3
    61d0:	eaffffe2 	b	6160 <_lseek+0x34>
    61d4:	e3e00000 	mvn	r0, #0
    61d8:	eaffffeb 	b	618c <_lseek+0x60>

000061dc <_read>:
    61dc:	e92d4070 	push	{r4, r5, r6, lr}
    61e0:	e24dd010 	sub	sp, sp, #16
    61e4:	e1a06001 	mov	r6, r1
    61e8:	e1a05002 	mov	r5, r2
    61ec:	eb000076 	bl	63cc <__cs3_openslot>
    61f0:	e2504000 	subs	r4, r0, #0
    61f4:	0a00000e 	beq	6234 <_read+0x58>
    61f8:	e5943000 	ldr	r3, [r4]
    61fc:	e98d0048 	stmib	sp, {r3, r6}
    6200:	e58d500c 	str	r5, [sp, #12]
    6204:	e3a00006 	mov	r0, #6
    6208:	e28d1004 	add	r1, sp, #4
    620c:	ef123456 	svc	0x00123456
    6210:	e3700001 	cmn	r0, #1
    6214:	15943004 	ldrne	r3, [r4, #4]
    6218:	10600005 	rsbne	r0, r0, r5
    621c:	10833000 	addne	r3, r3, r0
    6220:	15843004 	strne	r3, [r4, #4]
    6224:	eb000096 	bl	6484 <__cs3_checkerror>
    6228:	e28dd010 	add	sp, sp, #16
    622c:	e8bd4070 	pop	{r4, r5, r6, lr}
    6230:	e12fff1e 	bx	lr
    6234:	e3e00000 	mvn	r0, #0
    6238:	eafffffa 	b	6228 <_read+0x4c>

0000623c <_write>:
    623c:	e92d4070 	push	{r4, r5, r6, lr}
    6240:	e24dd010 	sub	sp, sp, #16
    6244:	e1a06001 	mov	r6, r1
    6248:	e1a05002 	mov	r5, r2
    624c:	eb00005e 	bl	63cc <__cs3_openslot>
    6250:	e2504000 	subs	r4, r0, #0
    6254:	0a00000e 	beq	6294 <_write+0x58>
    6258:	e5943000 	ldr	r3, [r4]
    625c:	e98d0048 	stmib	sp, {r3, r6}
    6260:	e58d500c 	str	r5, [sp, #12]
    6264:	e3a00005 	mov	r0, #5
    6268:	e28d1004 	add	r1, sp, #4
    626c:	ef123456 	svc	0x00123456
    6270:	e3700001 	cmn	r0, #1
    6274:	15943004 	ldrne	r3, [r4, #4]
    6278:	10600005 	rsbne	r0, r0, r5
    627c:	10833000 	addne	r3, r3, r0
    6280:	15843004 	strne	r3, [r4, #4]
    6284:	eb00007e 	bl	6484 <__cs3_checkerror>
    6288:	e28dd010 	add	sp, sp, #16
    628c:	e8bd4070 	pop	{r4, r5, r6, lr}
    6290:	e12fff1e 	bx	lr
    6294:	e3e00000 	mvn	r0, #0
    6298:	eafffffa 	b	6288 <_write+0x4c>

0000629c <_sbrk>:
    629c:	e92d4008 	push	{r3, lr}
    62a0:	e59f305c 	ldr	r3, [pc, #92]	; 6304 <_sbrk+0x68>
    62a4:	e59f105c 	ldr	r1, [pc, #92]	; 6308 <_sbrk+0x6c>
    62a8:	e5932000 	ldr	r2, [r3]
    62ac:	e5913000 	ldr	r3, [r1]
    62b0:	e3520000 	cmp	r2, #0
    62b4:	e0830000 	add	r0, r3, r0
    62b8:	0a000002 	beq	62c8 <_sbrk+0x2c>
    62bc:	e0602002 	rsb	r2, r0, r2
    62c0:	e3520000 	cmp	r2, #0
    62c4:	ba000009 	blt	62f0 <_sbrk+0x54>
    62c8:	e04d2003 	sub	r2, sp, r3
    62cc:	e3520000 	cmp	r2, #0
    62d0:	ba000002 	blt	62e0 <_sbrk+0x44>
    62d4:	e04d2000 	sub	r2, sp, r0
    62d8:	e35200ff 	cmp	r2, #255	; 0xff
    62dc:	da000003 	ble	62f0 <_sbrk+0x54>
    62e0:	e5810000 	str	r0, [r1]
    62e4:	e1a00003 	mov	r0, r3
    62e8:	e8bd4008 	pop	{r3, lr}
    62ec:	e12fff1e 	bx	lr
    62f0:	eb0000d4 	bl	6648 <__errno>
    62f4:	e3a0300c 	mov	r3, #12
    62f8:	e5803000 	str	r3, [r0]
    62fc:	e3e03000 	mvn	r3, #0
    6300:	eafffff7 	b	62e4 <_sbrk+0x48>
    6304:	0000ee10 	.word	0x0000ee10
    6308:	0000ee14 	.word	0x0000ee14

0000630c <_getpid>:
    630c:	e3a00001 	mov	r0, #1
    6310:	e12fff1e 	bx	lr

00006314 <initialize_monitor_handles.part.0>:
    6314:	e92d40f0 	push	{r4, r5, r6, r7, lr}
    6318:	e59f50a4 	ldr	r5, [pc, #164]	; 63c4 <initialize_monitor_handles.part.0+0xb0>
    631c:	e24dd014 	sub	sp, sp, #20
    6320:	e3a03000 	mov	r3, #0
    6324:	e3e02000 	mvn	r2, #0
    6328:	e7852003 	str	r2, [r5, r3]
    632c:	e2833008 	add	r3, r3, #8
    6330:	e35300a0 	cmp	r3, #160	; 0xa0
    6334:	e59f4088 	ldr	r4, [pc, #136]	; 63c4 <initialize_monitor_handles.part.0+0xb0>
    6338:	1afffffa 	bne	6328 <initialize_monitor_handles.part.0+0x14>
    633c:	e59f7084 	ldr	r7, [pc, #132]	; 63c8 <initialize_monitor_handles.part.0+0xb4>
    6340:	e3a06003 	mov	r6, #3
    6344:	e3a03000 	mov	r3, #0
    6348:	e58d7004 	str	r7, [sp, #4]
    634c:	e58d600c 	str	r6, [sp, #12]
    6350:	e58d3008 	str	r3, [sp, #8]
    6354:	e3a00001 	mov	r0, #1
    6358:	e28d1004 	add	r1, sp, #4
    635c:	ef123456 	svc	0x00123456
    6360:	e3a03004 	mov	r3, #4
    6364:	e5840000 	str	r0, [r4]
    6368:	e58d7004 	str	r7, [sp, #4]
    636c:	e58d600c 	str	r6, [sp, #12]
    6370:	e58d3008 	str	r3, [sp, #8]
    6374:	e3a00001 	mov	r0, #1
    6378:	e08d1003 	add	r1, sp, r3
    637c:	ef123456 	svc	0x00123456
    6380:	e3a03008 	mov	r3, #8
    6384:	e5840008 	str	r0, [r4, #8]
    6388:	e58d7004 	str	r7, [sp, #4]
    638c:	e58d600c 	str	r6, [sp, #12]
    6390:	e58d3008 	str	r3, [sp, #8]
    6394:	e3a00001 	mov	r0, #1
    6398:	e28d1004 	add	r1, sp, #4
    639c:	ef123456 	svc	0x00123456
    63a0:	e3700001 	cmn	r0, #1
    63a4:	05943008 	ldreq	r3, [r4, #8]
    63a8:	e5840010 	str	r0, [r4, #16]
    63ac:	05843010 	streq	r3, [r4, #16]
    63b0:	e3a03001 	mov	r3, #1
    63b4:	e58530a0 	str	r3, [r5, #160]	; 0xa0
    63b8:	e28dd014 	add	sp, sp, #20
    63bc:	e8bd40f0 	pop	{r4, r5, r6, r7, lr}
    63c0:	e12fff1e 	bx	lr
    63c4:	00043fec 	.word	0x00043fec
    63c8:	0000e4f0 	.word	0x0000e4f0

000063cc <__cs3_openslot>:
    63cc:	e92d4038 	push	{r3, r4, r5, lr}
    63d0:	e59f5044 	ldr	r5, [pc, #68]	; 641c <__cs3_openslot+0x50>
    63d4:	e59530a0 	ldr	r3, [r5, #160]	; 0xa0
    63d8:	e3530000 	cmp	r3, #0
    63dc:	e1a04000 	mov	r4, r0
    63e0:	0bffffcb 	bleq	6314 <initialize_monitor_handles.part.0>
    63e4:	e3540013 	cmp	r4, #19
    63e8:	8a000006 	bhi	6408 <__cs3_openslot+0x3c>
    63ec:	e7953184 	ldr	r3, [r5, r4, lsl #3]
    63f0:	e3730001 	cmn	r3, #1
    63f4:	159f0020 	ldrne	r0, [pc, #32]	; 641c <__cs3_openslot+0x50>
    63f8:	10800184 	addne	r0, r0, r4, lsl #3
    63fc:	0a000001 	beq	6408 <__cs3_openslot+0x3c>
    6400:	e8bd4038 	pop	{r3, r4, r5, lr}
    6404:	e12fff1e 	bx	lr
    6408:	eb00008e 	bl	6648 <__errno>
    640c:	e3a03009 	mov	r3, #9
    6410:	e5803000 	str	r3, [r0]
    6414:	e3a00000 	mov	r0, #0
    6418:	eafffff8 	b	6400 <__cs3_openslot+0x34>
    641c:	00043fec 	.word	0x00043fec

00006420 <__cs3_newslot>:
    6420:	e92d4038 	push	{r3, r4, r5, lr}
    6424:	e59f4054 	ldr	r4, [pc, #84]	; 6480 <__cs3_newslot+0x60>
    6428:	e59430a0 	ldr	r3, [r4, #160]	; 0xa0
    642c:	e3530000 	cmp	r3, #0
    6430:	e1a05000 	mov	r5, r0
    6434:	0bffffb6 	bleq	6314 <initialize_monitor_handles.part.0>
    6438:	e3a03000 	mov	r3, #0
    643c:	e7942183 	ldr	r2, [r4, r3, lsl #3]
    6440:	e3720001 	cmn	r2, #1
    6444:	e1a02183 	lsl	r2, r3, #3
    6448:	0a000008 	beq	6470 <__cs3_newslot+0x50>
    644c:	e2833001 	add	r3, r3, #1
    6450:	e3530014 	cmp	r3, #20
    6454:	1afffff8 	bne	643c <__cs3_newslot+0x1c>
    6458:	eb00007a 	bl	6648 <__errno>
    645c:	e3a03018 	mov	r3, #24
    6460:	e5803000 	str	r3, [r0]
    6464:	e3a00000 	mov	r0, #0
    6468:	e8bd4038 	pop	{r3, r4, r5, lr}
    646c:	e12fff1e 	bx	lr
    6470:	e59f0008 	ldr	r0, [pc, #8]	; 6480 <__cs3_newslot+0x60>
    6474:	e5853000 	str	r3, [r5]
    6478:	e0800002 	add	r0, r0, r2
    647c:	eafffff9 	b	6468 <__cs3_newslot+0x48>
    6480:	00043fec 	.word	0x00043fec

00006484 <__cs3_checkerror>:
    6484:	e3700001 	cmn	r0, #1
    6488:	e92d4038 	push	{r3, r4, r5, lr}
    648c:	e1a04000 	mov	r4, r0
    6490:	0a000002 	beq	64a0 <__cs3_checkerror+0x1c>
    6494:	e1a00004 	mov	r0, r4
    6498:	e8bd4038 	pop	{r3, r4, r5, lr}
    649c:	e12fff1e 	bx	lr
    64a0:	eb000068 	bl	6648 <__errno>
    64a4:	e3a01000 	mov	r1, #0
    64a8:	e1a05000 	mov	r5, r0
    64ac:	e3a00013 	mov	r0, #19
    64b0:	ef123456 	svc	0x00123456
    64b4:	e5850000 	str	r0, [r5]
    64b8:	eafffff5 	b	6494 <__cs3_checkerror+0x10>

000064bc <initialize_argv>:
    64bc:	e92d47f0 	push	{r4, r5, r6, r7, r8, r9, r10, lr}
    64c0:	e3a00c01 	mov	r0, #256	; 0x100
    64c4:	e24dd008 	sub	sp, sp, #8
    64c8:	ebffff73 	bl	629c <_sbrk>
    64cc:	e3700001 	cmn	r0, #1
    64d0:	e1a07000 	mov	r7, r0
    64d4:	0a000039 	beq	65c0 <initialize_argv+0x104>
    64d8:	e3a05000 	mov	r5, #0
    64dc:	e3a03c01 	mov	r3, #256	; 0x100
    64e0:	e5c05000 	strb	r5, [r0]
    64e4:	e1a0100d 	mov	r1, sp
    64e8:	e3a00015 	mov	r0, #21
    64ec:	e58d7000 	str	r7, [sp]
    64f0:	e58d3004 	str	r3, [sp, #4]
    64f4:	ef123456 	svc	0x00123456
    64f8:	e59f8140 	ldr	r8, [pc, #320]	; 6640 <initialize_argv+0x184>
    64fc:	e1a00005 	mov	r0, r5
    6500:	e3a09001 	mov	r9, #1
    6504:	e1a0a005 	mov	r10, r5
    6508:	e588a0a4 	str	r10, [r8, #164]	; 0xa4
    650c:	e1a0c007 	mov	r12, r7
    6510:	e1a04007 	mov	r4, r7
    6514:	e3a06000 	mov	r6, #0
    6518:	e5d41000 	ldrb	r1, [r4]
    651c:	e3510000 	cmp	r1, #0
    6520:	0a00001d 	beq	659c <initialize_argv+0xe0>
    6524:	e3560000 	cmp	r6, #0
    6528:	e2842001 	add	r2, r4, #1
    652c:	1a000006 	bne	654c <initialize_argv+0x90>
    6530:	e3500000 	cmp	r0, #0
    6534:	159830a4 	ldrne	r3, [r8, #164]	; 0xa4
    6538:	1780c103 	strne	r12, [r0, r3, lsl #2]
    653c:	e59830a4 	ldr	r3, [r8, #164]	; 0xa4
    6540:	e2833001 	add	r3, r3, #1
    6544:	e58830a4 	str	r3, [r8, #164]	; 0xa4
    6548:	e3a06001 	mov	r6, #1
    654c:	e3510020 	cmp	r1, #32
    6550:	0a000022 	beq	65e0 <initialize_argv+0x124>
    6554:	e3510022 	cmp	r1, #34	; 0x22
    6558:	13510027 	cmpne	r1, #39	; 0x27
    655c:	1a00001a 	bne	65cc <initialize_argv+0x110>
    6560:	e5d43001 	ldrb	r3, [r4, #1]
    6564:	e3530000 	cmp	r3, #0
    6568:	0a000032 	beq	6638 <initialize_argv+0x17c>
    656c:	e1510003 	cmp	r1, r3
    6570:	0a00001f 	beq	65f4 <initialize_argv+0x138>
    6574:	e2842002 	add	r2, r4, #2
    6578:	ea000001 	b	6584 <initialize_argv+0xc8>
    657c:	e1510003 	cmp	r1, r3
    6580:	0a00001c 	beq	65f8 <initialize_argv+0x13c>
    6584:	e3500000 	cmp	r0, #0
    6588:	14cc3001 	strbne	r3, [r12], #1
    658c:	e1a04002 	mov	r4, r2
    6590:	e4d23001 	ldrb	r3, [r2], #1
    6594:	e3530000 	cmp	r3, #0
    6598:	1afffff7 	bne	657c <initialize_argv+0xc0>
    659c:	e3590001 	cmp	r9, #1
    65a0:	0a000016 	beq	6600 <initialize_argv+0x144>
    65a4:	e3590002 	cmp	r9, #2
    65a8:	1a000020 	bne	6630 <initialize_argv+0x174>
    65ac:	e3a03000 	mov	r3, #0
    65b0:	e5cc3000 	strb	r3, [r12]
    65b4:	e59820a4 	ldr	r2, [r8, #164]	; 0xa4
    65b8:	e7803102 	str	r3, [r0, r2, lsl #2]
    65bc:	e58800a8 	str	r0, [r8, #168]	; 0xa8
    65c0:	e28dd008 	add	sp, sp, #8
    65c4:	e8bd47f0 	pop	{r4, r5, r6, r7, r8, r9, r10, lr}
    65c8:	e12fff1e 	bx	lr
    65cc:	e3500000 	cmp	r0, #0
    65d0:	01a04002 	moveq	r4, r2
    65d4:	14cc1001 	strbne	r1, [r12], #1
    65d8:	11a04002 	movne	r4, r2
    65dc:	eaffffcd 	b	6518 <initialize_argv+0x5c>
    65e0:	e3500000 	cmp	r0, #0
    65e4:	14cca001 	strbne	r10, [r12], #1
    65e8:	e1a04002 	mov	r4, r2
    65ec:	e3a06000 	mov	r6, #0
    65f0:	eaffffc8 	b	6518 <initialize_argv+0x5c>
    65f4:	e1a04002 	mov	r4, r2
    65f8:	e2844001 	add	r4, r4, #1
    65fc:	eaffffc5 	b	6518 <initialize_argv+0x5c>
    6600:	e0670004 	rsb	r0, r7, r4
    6604:	e2800010 	add	r0, r0, #16
    6608:	e3c0000f 	bic	r0, r0, #15
    660c:	e2400c01 	sub	r0, r0, #256	; 0x100
    6610:	ebffff21 	bl	629c <_sbrk>
    6614:	e59800a4 	ldr	r0, [r8, #164]	; 0xa4
    6618:	e2800004 	add	r0, r0, #4
    661c:	e3c00003 	bic	r0, r0, #3
    6620:	e1a00100 	lsl	r0, r0, #2
    6624:	ebffff1c 	bl	629c <_sbrk>
    6628:	e3700001 	cmn	r0, #1
    662c:	0affffe3 	beq	65c0 <initialize_argv+0x104>
    6630:	e2899001 	add	r9, r9, #1
    6634:	eaffffb3 	b	6508 <initialize_argv+0x4c>
    6638:	e1a04002 	mov	r4, r2
    663c:	eaffffd6 	b	659c <initialize_argv+0xe0>
    6640:	00043fec 	.word	0x00043fec

00006644 <__cs3_isr_interrupt>:
    6644:	eafffffe 	b	6644 <__cs3_isr_interrupt>

00006648 <__errno>:
    6648:	e59f3004 	ldr	r3, [pc, #4]	; 6654 <__errno+0xc>
    664c:	e5930000 	ldr	r0, [r3]
    6650:	e12fff1e 	bx	lr
    6654:	0000e550 	.word	0x0000e550

00006658 <__libc_init_array>:
    6658:	e92d4070 	push	{r4, r5, r6, lr}
    665c:	e59f506c 	ldr	r5, [pc, #108]	; 66d0 <__libc_init_array+0x78>
    6660:	e59f606c 	ldr	r6, [pc, #108]	; 66d4 <__libc_init_array+0x7c>
    6664:	e0656006 	rsb	r6, r5, r6
    6668:	e1b06146 	asrs	r6, r6, #2
    666c:	12455004 	subne	r5, r5, #4
    6670:	13a04000 	movne	r4, #0
    6674:	0a000005 	beq	6690 <__libc_init_array+0x38>
    6678:	e5b53004 	ldr	r3, [r5, #4]!
    667c:	e2844001 	add	r4, r4, #1
    6680:	e1a0e00f 	mov	lr, pc
    6684:	e12fff13 	bx	r3
    6688:	e1560004 	cmp	r6, r4
    668c:	1afffff9 	bne	6678 <__libc_init_array+0x20>
    6690:	e59f5040 	ldr	r5, [pc, #64]	; 66d8 <__libc_init_array+0x80>
    6694:	e59f6040 	ldr	r6, [pc, #64]	; 66dc <__libc_init_array+0x84>
    6698:	e0656006 	rsb	r6, r5, r6
    669c:	eb001f94 	bl	e4f4 <_init>
    66a0:	e1b06146 	asrs	r6, r6, #2
    66a4:	12455004 	subne	r5, r5, #4
    66a8:	13a04000 	movne	r4, #0
    66ac:	0a000005 	beq	66c8 <__libc_init_array+0x70>
    66b0:	e5b53004 	ldr	r3, [r5, #4]!
    66b4:	e2844001 	add	r4, r4, #1
    66b8:	e1a0e00f 	mov	lr, pc
    66bc:	e12fff13 	bx	r3
    66c0:	e1560004 	cmp	r6, r4
    66c4:	1afffff9 	bne	66b0 <__libc_init_array+0x58>
    66c8:	e8bd4070 	pop	{r4, r5, r6, lr}
    66cc:	e12fff1e 	bx	lr
    66d0:	0000e50c 	.word	0x0000e50c
    66d4:	0000e50c 	.word	0x0000e50c
    66d8:	0000e50c 	.word	0x0000e50c
    66dc:	0000e518 	.word	0x0000e518

Disassembly of section .rodata:

000066ec <sin_LUT>:
    66ec:	00000000 000cde33 0019bc65 00269a96     ....3...e.....&.
    66fc:	003378c6 004056f3 004d351e 005a1346     .x3..V@..5M.F.Z.
    670c:	0066f16a 0073cf8b 0080ada6 008d8bbc     j.f...s.........
    671c:	009a69cc 00a747d7 00b425da 00c103d6     .i...G...%......
    672c:	00cde1cb 00dabfb7 00e79d9a 00f47b74     ............t{..
    673c:	01015944 010e3709 011b14c4 0127f273     DY...7......s.'.
    674c:	0134d016 0141adad 014e8b36 015b68b3     ..4...A.6.N..h[.
    675c:	01684621 01752380 018200d1 018ede12     !Fh..#u.........
    676c:	019bbb43 01a89863 01b57572 01c2526f     C...c...ru..oR..
    677c:	01cf2f5a 01dc0c32 01e8e8f7 01f5c5a9     Z/..2...........
    678c:	0202a246 020f7ece 021c5b41 0229379e     F....~..A[...7).
    679c:	023613e5 0242f015 024fcc2d 025ca82d     ..6...B.-.O.-.\.
    67ac:	02698415 02765fe5 02833b9a 02901736     ..i.._v..;..6...
    67bc:	029cf2b7 02a9ce1d 02b6a967 02c38496     ........g.......
    67cc:	02d05fa8 02dd3a9c 02ea1573 02f6f02c     ._...:..s...,...
    67dc:	0303cac6 0310a541 031d7f9d 032a59d8     ....A........Y*.
    67ec:	033733f2 03440deb 0350e7c2 035dc177     .37...D...P.w.].
    67fc:	036a9b09 03777478 03844dc2 039126e9     ..j.xtw..M...&..
    680c:	039dffea 03aad8c6 03b7b17c 03c48a0c     ........|.......
    681c:	03d16275 03de3ab6 03eb12cf 03f7eabf     ub...:..........
    682c:	0404c287 04119a25 041e7199 042b48e2     ....%....q...H+.
    683c:	04382000 0444f6f2 0451cdb8 045ea452     . 8...D...Q.R.^.
    684c:	046b7abe 047850fc 0485270d 0491fcee     .zk..Px..'......
    685c:	049ed2a0 04aba823 04b87d75 04c55296     ....#...u}...R..
    686c:	04d22786 04defc43 04ebd0cf 04f8a527     .'..C.......'...
    687c:	0505794d 05124d3e 051f20fa 052bf482     My..>M... ....+.
    688c:	0538c7d4 05459af0 05526dd6 055f4084     ..8...E..mR..@_.
    689c:	056c12fb 0578e53a 0585b740 0592890d     ..l.:.x.@.......
    68ac:	059f5aa0 05ac2bf9 05b8fd18 05c5cdfb     .Z...+..........
    68bc:	05d29ea2 05df6f0d 05ec3f3c 05f90f2d     .....o..<?..-...
    68cc:	0605dee0 0612ae55 061f7d8b 062c4c82     ....U....}...L,.
    68dc:	06391b39 0645e9af 0652b7e5 065f85d9     9.9...E...R..._.
    68ec:	066c538b 067920fa 0685ee27 0692bb10     .Sl.. y.'.......
    68fc:	069f87b5 06ac5416 06b92031 06c5ec07     .....T..1 ......
    690c:	06d2b797 06df82e0 06ec4de3 06f9189d     .........M......
    691c:	0705e30f 0712ad39 071f7719 072c40b0     ....9....w...@,.
    692c:	073909fd 0745d2fe 07529bb5 075f641f     ..9...E...R..d_.
    693c:	076c2c3e 0778f40f 0785bb94 079282ca     >,l...x.........
    694c:	079f49b2 07ac104b 07b8d695 07c59c8f     .I..K...........
    695c:	07d26238 07df2790 07ebec97 07f8b14c     8b...'......L...
    696c:	080575af 081239be 081efd7a 082bc0e2     .u...9..z.....+.
    697c:	083883f5 084546b4 0852091c 085ecb2f     ..8..FE...R./.^.
    698c:	086b8ceb 08784e50 08850f5d 0891d012     ..k.PNx.].......
    699c:	089e906e 08ab5071 08b8101b 08c4cf6a     n...qP......j...
    69ac:	08d18e5e 08de4cf7 08eb0b35 08f7c916     ^....L..5.......
    69bc:	0904869a 091143c1 091e008a 092abcf4     .....C........*.
    69cc:	09377900 094434ad 0950eff9 095daae6     .y7..4D...P...].
    69dc:	096a6571 09771f9b 0983d962 099092c8     qej...w.b.......
    69ec:	099d4bca 09aa0469 09b6bca4 09c3747a     .K..i.......zt..
    69fc:	09d02beb 09dce2f7 09e9999d 09f64fdc     .+...........O..
    6a0c:	0a0305b4 0a0fbb24 0a1c702c 0a2924cc     ....$...,p...$).
    6a1c:	0a35d902 0a428ccf 0a4f4032 0a5bf32a     ..5...B.2@O.*.[.
    6a2c:	0a68a5b6 0a7557d7 0a82098c 0a8ebad4     ..h..Wu.........
    6a3c:	0a9b6baf 0aa81c1c 0ab4cc1a 0ac17baa     .k...........{..
    6a4c:	0ace2acb 0adad97c 0ae787bc 0af4358c     .*..|........5..
    6a5c:	0b00e2ea 0b0d8fd6 0b1a3c50 0b26e857     ........P<..W.&.
    6a6c:	0b3393eb 0b403f0a 0b4ce9b6 0b5993ec     ..3..?@...L...Y.
    6a7c:	0b663dad 0b72e6f8 0b7f8fcc 0b8c3829     .=f...r.....)8..
    6a8c:	0b98e00f 0ba5877d 0bb22e72 0bbed4ef     ....}...r.......
    6a9c:	0bcb7af1 0bd8207a 0be4c588 0bf16a1b     .z..z .......j..
    6aac:	0bfe0e33 0c0ab1ce 0c1754ec 0c23f78e     3........T....#.
    6abc:	0c3099b2 0c3d3b58 0c49dc7f 0c567d27     ..0.X;=...I.'}V.
    6acc:	0c631d4f 0c6fbcf7 0c7c5c1e 0c88fac4     O.c...o..\|.....
    6adc:	0c9598e9 0ca2368b 0caed3aa 0cbb7046     .....6......Fp..
    6aec:	0cc80c5f 0cd4a7f3 0ce14302 0ceddd8c     _........C......
    6afc:	0cfa7790 0d07110e 0d13aa05 0d204275     .w..........uB .
    6b0c:	0d2cda5d 0d3971bd 0d460893 0d529ee1     ].,..q9...F...R.
    6b1c:	0d5f34a4 0d6bc9dd 0d785e8b 0d84f2ae     .4_...k..^x.....
    6b2c:	0d918645 0d9e194f 0daaabcd 0db73dbd     E...O........=..
    6b3c:	0dc3cf1f 0dd05ff3 0ddcf037 0de97fed     ....._..7.......
    6b4c:	0df60f12 0e029da7 0e0f2baa 0e1bb91d     .........+......
    6b5c:	0e2845fd 0e34d24b 0e415e06 0e4de92d     .E(.K.4..^A.-.M.
    6b6c:	0e5a73c0 0e66fdbf 0e738728 0e800ffc     .sZ...f.(.s.....
    6b7c:	0e8c983a 0e991fe2 0ea5a6f2 0eb22d6b     :...........k-..
    6b8c:	0ebeb34b 0ecb3893 0ed7bd42 0ee44158     K....8..B...XA..
    6b9c:	0ef0c4d3 0efd47b3 0f09c9f9 0f164ba3     .....G.......K..
    6bac:	0f22ccb0 0f2f4d22 0f3bccf5 0f484c2c     .."."M/...;.,LH.
    6bbc:	0f54cac4 0f6148bd 0f6dc618 0f7a42d2     ..T..Ha...m..Bz.
    6bcc:	0f86beed 0f933a66 0f9fb53f 0fac2f76     ....f:..?...v/..
    6bdc:	0fb8a90a 0fc521fc 0fd19a4b 0fde11f6     .....!..K.......
    6bec:	0fea88fd 0ff6ff5f 1003751c 100fea33     ...._....u..3...
    6bfc:	101c5ea4 1028d26e 10354591 1041b80d     .^..n.(..E5...A.
    6c0c:	104e29e0 105a9b0a 10670b8b 10737b62     .)N...Z...g.b{s.
    6c1c:	107fea8f 108c5912 1098c6e9 10a53414     .....Y.......4..
    6c2c:	10b1a093 10be0c65 10ca778a 10d6e201     ....e....w......
    6c3c:	10e34bca 10efb4e4 10fc1d4f 1108850a     .K......O.......
    6c4c:	1114ec15 1121526f 112db818 113a1d0f     ....oR!...-...:.
    6c5c:	11468153 1152e4e5 115f47c4 116ba9ef     S.F...R..G_...k.
    6c6c:	11780b65 11846c27 1190cc33 119d2b8a     e.x.'l..3....+..
    6c7c:	11a98a2a 11b5e814 11c24546 11cea1c1     *.......FE......
    6c8c:	11dafd83 11e7588d 11f3b2dd 12000c73     .....X......s...
    6c9c:	120c654f 1218bd71 122514d7 12316b81     Oe..q.....%..k1.
    6cac:	123dc16f 124a16a0 12566b14 1262beca     o.=...J..kV...b.
    6cbc:	126f11c2 127b63fb 1287b575 1294062f     ..o..c{.u.../...
    6ccc:	12a05629 12aca562 12b8f3d9 12c5418f     )V..b........A..
    6cdc:	12d18e83 12dddab4 12ea2622 12f670cc     ........"&...p..
    6cec:	1302bab2 130f03d3 131b4c2e 132793c4     .........L....'.
    6cfc:	1333da94 1340209d 134c65df 1358aa59     ..3.. @..eL.Y.X.
    6d0c:	1364ee0b 137130f4 137d7314 1389b46b     ..d..0q..s}.k...
    6d1c:	1395f4f7 13a234b8 13ae73ae 13bab1d9     .....4...s......
    6d2c:	13c6ef37 13d32bc9 13df678d 13eba284     7....+...g......
    6d3c:	13f7dcad 14041607 14104e92 141c864d     .........N..M...
    6d4c:	1428bd38 1434f353 1441289c 144d5d14     8.(.S.4..(A..]M.
    6d5c:	145990b9 1465c38c 1471f58c 147e26b9     ..Y...e...q..&~.
    6d6c:	148a5711 14968695 14a2b543 14aee31c     .W......C.......
    6d7c:	14bb101f 14c73c4c 14d367a1 14df921f     ....L<...g......
    6d8c:	14ebbbc5 14f7e493 15040c87 151033a2     .............3..
    6d9c:	151c59e3 15287f49 1534a3d5 1540c785     .Y..I.(...4...@.
    6dac:	154cea59 15590c50 15652d6b 15714da8     Y.L.P.Y.k-e..Mq.
    6dbc:	157d6d08 15898b89 1595a92b 15a1c5ee     .m}.....+.......
    6dcc:	15ade1d0 15b9fcd3 15c616f4 15d23035     ............50..
    6ddc:	15de4893 15ea600f 15f676a9 16028c5f     .H...`...v.._...
    6dec:	160ea131 161ab51f 1626c828 1632da4c     1.......(.&.L.2.
    6dfc:	163eeb8a 164afbe2 16570b54 166319de     ..>...J.T.W...c.
    6e0c:	166f2780 167b343b 1687400c 16934af5     .'o.;4{..@...J..
    6e1c:	169f54f3 16ab5e08 16b76632 16c36d71     .T...^..2f..qm..
    6e2c:	16cf73c5 16db792c 16e77da7 16f38135     .s..,y...}..5...
    6e3c:	16ff83d5 170b8587 1717864b 17238620     ........K... .#.
    6e4c:	172f8505 173b82fa 17477fff 17537c13     ../...;...G..|S.
    6e5c:	175f7736 176b7167 17776aa5 178362f1     6w_.gqk..jw..b..
    6e6c:	178f5a49 179b50ad 17a7461d 17b33a98     IZ...P...F...:..
    6e7c:	17bf2e1e 17cb20ae 17d71248 17e302ec     ..... ..H.......
    6e8c:	17eef298 17fae14c 1806cf08 1812bbcc     ....L...........
    6e9c:	181ea796 182a9267 18367c3e 1842651a     ....g.*.>|6..eB.
    6eac:	184e4cfb 185a33e0 186619ca 1871feb7     .LN..3Z...f...q.
    6ebc:	187de2a7 1889c599 1895a78e 18a18884     ..}.............
    6ecc:	18ad687b 18b94773 18c5256b 18d10263     {h..sG..k%..c...
    6edc:	18dcde59 18e8b94f 18f49343 19006c34     Y...O...C...4l..
    6eec:	190c4423 19181b0e 1923f0f6 192fc5da     #D........#.../.
    6efc:	193b99b9 19476c93 19533e67 195f0f35     ..;..lG.g>S.5._.
    6f0c:	196adefc 1976adbd 19827b76 198e4827     ..j...v.v{..'H..
    6f1c:	199a13cf 19a5de6f 19b1a805 19bd7091     ....o........p..
    6f2c:	19c93813 19d4fe8a 19e0c3f6 19ec8856     .8..........V...
    6f3c:	19f84ba9 1a040df0 1a0fcf29 1a1b8f55     .K......)...U...
    6f4c:	1a274e73 1a330c82 1a3ec982 1a4a8572     sN'...3...>.r.J.
    6f5c:	1a564052 1a61fa22 1a6db2e0 1a796a8d     R@V.".a...m..jy.
    6f6c:	1a852128 1a90d6b1 1a9c8b26 1aa83e89     (!......&....>..
    6f7c:	1ab3f0d7 1abfa211 1acb5236 1ad70146     ........6R..F...
    6f8c:	1ae2af40 1aee5c24 1afa07f1 1b05b2a7     @...$\..........
    6f9c:	1b115c46 1b1d04cc 1b28ac3a 1b34528e     F\......:.(..R4.
    6fac:	1b3ff7c9 1b4b9bea 1b573ef1 1b62e0dc     ..?...K..>W...b.
    6fbc:	1b6e81ac 1b7a2161 1b85bff9 1b915d74     ..n.a!z.....t]..
    6fcc:	1b9cf9d1 1ba89511 1bb42f33 1bbfc836     ........3/..6...
    6fdc:	1bcb601a 1bd6f6de 1be28c83 1bee2106     .`...........!..
    6fec:	1bf9b469 1c0546aa 1c10d7c9 1c1c67c5     i....F.......g..
    6ffc:	1c27f69f 1c338455 1c3f10e7 1c4a9c55     ..'.U.3...?.U.J.
    700c:	1c56269f 1c61afc3 1c6d37c1 1c78be99     .&V...a..7m...x.
    701c:	1c84444a 1c8fc8d5 1c9b4c37 1ca6ce72     JD......7L..r...
    702c:	1cb24f84 1cbdcf6d 1cc94e2d 1cd4cbc3     .O..m...-N......
    703c:	1ce0482e 1cebc36f 1cf73d84 1d02b66e     .H..o....=..n...
    704c:	1d0e2e2b 1d19a4bc 1d251a1f 1d308e55     +.........%.U.0.
    705c:	1d3c015d 1d477336 1d52e3e0 1d5e535b     ].<.6sG...R.[S^.
    706c:	1d69c1a6 1d752ec0 1d809aaa 1d8c0562     ..i...u.....b...
    707c:	1d976ee8 1da2d73d 1dae3e5e 1db9a44c     .n..=...^>..L...
    708c:	1dc50907 1dd06c8e 1ddbcee0 1de72ffd     .....l......./..
    709c:	1df28fe4 1dfdee96 1e094c11 1e14a856     .........L..V...
    70ac:	1e200363 1e2b5d38 1e36b5d5 1e420d3a     c. .8]+...6.:.B.
    70bc:	1e4d6365 1e58b857 1e640c0e 1e6f5e8b     ecM.W.X...d..^o.
    70cc:	1e7aafcd 1e85ffd4 1e914e9f 1e9c9c2d     ..z......N..-...
    70dc:	1ea7e87f 1eb33394 1ebe7d6a 1ec9c603     .....3..j}......
    70ec:	1ed50d5d 1ee05378 1eeb9853 1ef6dbee     ]...xS..S.......
    70fc:	1f021e49 1f0d5f63 1f189f3b 1f23ddd2     I...c_..;.....#.
    710c:	1f2f1b27 1f3a5739 1f459207 1f50cb92     './.9W:...E...P.
    711c:	1f5c03d9 1f673adb 1f727099 1f7da510     ..\..:g..pr...}.
    712c:	1f88d842 1f940a2e 1f9f3ad3 1faa6a30     B........:..0j..
    713c:	1fb59846 1fc0c514 1fcbf099 1fd71ad5     F...............
    714c:	1fe243c8 1fed6b70 1ff891ce 2003b6e2     .C..pk......... 
    715c:	200edaaa 2019fd26 20251e56 20303e39     ... &.. V.% 9>0 
    716c:	203b5ccf 20467a18 20519612 205cb0be     .\; .zF ..Q ..\ 
    717c:	2067ca1c 2072e229 207df8e7 20890e55     ..g ).r ..} U.. 
    718c:	20942272 209f353e 20aa46b8 20b556e1     r". >5. .F. .V. 
    719c:	20c065b6 20cb7339 20d67f69 20e18a44     .e. 9s. i.. D.. 
    71ac:	20ec93cb 20f79bfe 2102a2db 210da863     ... ... ...!c..!
    71bc:	2118ac95 2123af70 212eb0f4 2139b121     ...!p.#!...!!.9!
    71cc:	2144aff6 214fad72 215aa996 2165a461     ..D!r.O!..Z!a.e!
    71dc:	21709dd2 217b95e9 21868ca5 21918207     ..p!..{!...!...!
    71ec:	219c760d 21a768b7 21b25a05 21bd49f7     .v.!.h.!.Z.!.I.!
    71fc:	21c8388b 21d325c1 21de119a 21e8fc14     .8.!.%.!...!...!
    720c:	21f3e52f 21feccea 2209b346 22149842     /..!...!F.."B.."
    721c:	221f7bdd 222a5e16 22353eee 22401e65     .{.".^*".>5"e.@"
    722c:	224afc78 2255d929 2260b476 226b8e60     x.J").U"v.`"`.k"
    723c:	227666e5 22813e06 228c13c2 2296e818     .fv".>."..."..."
    724c:	22a1bb08 22ac8c92 22b75cb5 22c22b71     ..."...".\."q+."
    725c:	22ccf8c5 22d7c4b0 22e28f34 22ed584e     ..."..."4.."NX."
    726c:	22f81ffe 2302e645 230dab22 23186e94     ..."E..#"..#.n.#
    727c:	2323309a 232df135 2338b064 23436e26     .0##5.-#d.8#&nC#
    728c:	234e2a7b 2358e563 23639edd 236e56e9     {*N#c.X#..c#.Vn#
    729c:	23790d87 2383c2b5 238e7673 239928c2     ..y#...#sv.#.(.#
    72ac:	23a3d9a0 23ae890e 23b9370a 23c3e394     ...#...#.7.#...#
    72bc:	23ce8eac 23d93852 23e3e085 23ee8744     ...#R8.#...#D..#
    72cc:	23f92c8f 2403d066 240e72c9 241913b6     .,.#f..$.r.$...$
    72dc:	2423b32e 242e512f 2438edbb 244388cf     ..#$/Q.$..8$..C$
    72ec:	244e226c 2458ba91 2463513f 246de673     l"N$..X$?Qc$s.m$
    72fc:	24787a2f 24830c71 248d9d39 24982c87     /zx$q..$9..$.,.$
    730c:	24a2ba5b 24ad46b3 24b7d18f 24c25af0     [..$.F.$...$.Z.$
    731c:	24cce2d4 24d7693b 24e1ee25 24ec7192     ...$;i.$%..$.q.$
    732c:	24f6f380 250173f0 250bf2e0 25167052     ...$.s.%...%Rp.%
    733c:	2520ec43 252b66b4 2535dfa5 25405715     C. %.f+%..5%.W@%
    734c:	254acd02 2555416e 255fb458 256a25bf     ..J%nAU%X._%.%j%
    735c:	257495a3 257f0403 258970df 2593dc36     ..t%...%.p.%6..%
    736c:	259e4609 25a8ae56 25b3151e 25bd7a5f     .F.%V..%...%_z.%
    737c:	25c7de1a 25d2404e 25dca0fa 25e7001f     ...%N@.%...%...%
    738c:	25f15dbb 25fbb9cf 2606145a 26106d5b     .].%...%Z..&[m.&
    739c:	261ac4d2 26251abf 262f6f21 2639c1f8     ...&..%&!o/&..9&
    73ac:	26441343 264e6302 2658b135 2662fddb     C.D&.cN&5.X&..b&
    73bc:	266d48f4 2677927f 2681da7c 268c20ea     .Hm&..w&|..&. .&
    73cc:	269665ca 26a0a91a 26aaeada 26b52b0b     .e.&...&...&.+.&
    73dc:	26bf69aa 26c9a6b9 26d3e236 26de1c22     .i.&...&6..&"..&
    73ec:	26e8547b 26f28b41 26fcc075 2706f415     {T.&A..&u..&...'
    73fc:	27112621 271b5698 2725857b 272fb2c9     !&.'.V.'{.%'../'
    740c:	2739de82 274408a4 274e3130 27585825     ..9'..D'01N'%XX'
    741c:	27627d84 276ca14a 2776c379 2780e40f     .}b'J.l'y.v'...'
    742c:	278b030c 27952070 279f3c3a 27a9566b     ...'p .':<.'kV.'
    743c:	27b36f01 27bd85fc 27c79b5b 27d1af1f     .o.'...'[..'...'
    744c:	27dbc147 27e5d1d3 27efe0c1 27f9ee13     G..'...'...'...'
    745c:	2803f9c6 280e03dc 28180c53 2822132b     ...(...(S..(+."(
    746c:	282c1863 28361bfc 28401df5 284a1e4d     c.,(..6(..@(M.J(
    747c:	28541d04 285e1a1a 2868158e 28720f60     ..T(..^(..h(`.r(
    748c:	287c078f 2885fe1c 288ff305 2899e64a     ..|(...(...(J..(
    749c:	28a3d7eb 28adc7e8 28b7b63f 28c1a2f1     ...(...(?..(...(
    74ac:	28cb8dfd 28d57764 28df5f23 28e9453c     ...(dw.(#_.(<E.(
    74bc:	28f329ad 28fd0c76 2906ed97 2910cd10     .).(v..(...)...)
    74cc:	291aaadf 29248705 292e6182 29383a54     ...)..$).a.)T:8)
    74dc:	2942117c 294be6f8 2955baca 295f8cef     |.B)..K)..U).._)
    74ec:	29695d68 29732c35 297cf955 2986c4c7     h]i)5,s)U.|)...)
    74fc:	29908e8c 299a56a3 29a41d0a 29ade1c3     ...).V.)...)...)
    750c:	29b7a4cd 29c16627 29cb25d1 29d4e3ca     ...)'f.).%.)...)
    751c:	29dea013 29e85aaa 29f2138f 29fbcac2     ...).Z.)...)...)
    752c:	2a058043 2a0f3411 2a18e62b 2a229692     C..*.4.*+..*.."*
    753c:	2a2c4545 2a35f244 2a3f9d8d 2a494722     EE,*D.5*..?*"GI*
    754c:	2a52ef01 2a5c9529 2a66399c 2a6fdc57     ..R*).\*.9f*W.o*
    755c:	2a797d5b 2a831ca8 2a8cba3d 2a96561a     [}y*...*=..*.V.*
    756c:	2a9ff03d 2aa988a8 2ab31f59 2abcb450     =..*...*Y..*P..*
    757c:	2ac6478d 2acfd90f 2ad968d7 2ae2f6e2     .G.*...*.h.*...*
    758c:	2aec8332 2af60dc6 2aff969d 2b091db7     2..*...*...*...+
    759c:	2b12a314 2b1c26b3 2b25a894 2b2f28b6     ...+.&.+..%+.(/+
    75ac:	2b38a719 2b4223bd 2b4b9ea2 2b5517c6     ..8+.#B+..K+..U+
    75bc:	2b5e8f2a 2b6804cd 2b7178af 2b7aeacf     *.^+..h+.xq+..z+
    75cc:	2b845b2d 2b8dc9c9 2b9736a2 2ba0a1b8     -[.+...+.6.+...+
    75dc:	2baa0b0b 2bb37299 2bbcd864 2bc63c69     ...+.r.+d..+i<.+
    75ec:	2bcf9eaa 2bd8ff25 2be25ddb 2bebbaca     ...+%..+.].+...+
    75fc:	2bf515f3 2bfe6f55 2c07c6f0 2c111cc3     ...+Uo.+...,...,
    760c:	2c1a70ce 2c23c310 2c2d138a 2c36623a     .p.,..#,..-,:b6,
    761c:	2c3faf21 2c48fa3e 2c524391 2c5b8b19     !.?,>.H,.CR,..[,
    762c:	2c64d0d6 2c6e14c7 2c7756ed 2c809747     ..d,..n,.Vw,G..,
    763c:	2c89d5d4 2c931294 2c9c4d86 2ca586ab     ...,...,.M.,...,
    764c:	2caebe02 2cb7f38b 2cc12745 2cca592f     ...,...,E'.,/Y.,
    765c:	2cd3894b 2cdcb796 2ce5e411 2cef0ebb     K..,...,...,...,
    766c:	2cf83794 2d015e9c 2d0a83d2 2d13a736     .7.,.^.-...-6..-
    767c:	2d1cc8c8 2d25e886 2d2f0671 2d382289     ...-..%-q./-."8-
    768c:	2d413ccd 2d4a553c 2d536bd7 2d5c809d     .<A-<UJ-.kS-..\-
    769c:	2d65938d 2d6ea4a7 2d77b3ec 2d80c159     ..e-..n-..w-Y..-
    76ac:	2d89ccf0 2d92d6af 2d9bde97 2da4e4a7     ...-...-...-...-
    76bc:	2dade8de 2db6eb3d 2dbfebc3 2dc8ea6f     ...-=..-...-o..-
    76cc:	2dd1e741 2ddae239 2de3db57 2decd299     A..-9..-W..-...-
    76dc:	2df5c801 2dfebb8d 2e07ad3c 2e109d10     ...-...-<.......
    76ec:	2e198b06 2e227720 2e2b615c 2e3449ba     .... w".\a+..I4.
    76fc:	2e3d303a 2e4614dc 2e4ef79e 2e57d882     :0=...F...N...W.
    770c:	2e60b786 2e6994aa 2e726fed 2e7b4950     ..`...i..or.PI{.
    771c:	2e8420d2 2e8cf672 2e95ca31 2e9e9c0e     . ..r...1.......
    772c:	2ea76c08 2eb03a1f 2eb90653 2ec1d0a4     .l...:..S.......
    773c:	2eca9910 2ed35f99 2edc243c 2ee4e6fb     ....._..<$......
    774c:	2eeda7d5 2ef666c9 2eff23d7 2f07defe     .....f...#...../
    775c:	2f10983f 2f194f99 2f22050b 2f2ab895     ?../.O./.."/..*/
    776c:	2f336a38 2f3c19f2 2f44c7c3 2f4d73ab     8j3/..</..D/.sM/
    777c:	2f561da9 2f5ec5bd 2f676be8 2f701027     ..V/..^/.kg/'.p/
    778c:	2f78b27c 2f8152e5 2f89f163 2f928df5     |.x/.R./c../.../
    779c:	2f9b289a 2fa3c153 2fac581f 2fb4ecfd     .(./S../.X./.../
    77ac:	2fbd7fee 2fc610f1 2fcea005 2fd72d2a     .../.../.../*-./
    77bc:	2fdfb861 2fe841a8 2ff0c8ff 2ff94e66     a../.A./.../fN./
    77cc:	3001d1dc 300a5362 3012d2f6 301b5099     ...0bS.0...0.P.0
    77dc:	3023cc4a 302c4609 3034bdd6 303d33af     J.#0.F,0..40.3=0
    77ec:	3045a795 304e1988 30568987 305ef791     ..E0..N0..V0..^0
    77fc:	306763a7 306fcdc8 307835f4 30809c2a     .cg0..o0.5x0*..0
    780c:	3089006a 309162b4 3099c307 30a22164     j..0.b.0...0d!.0
    781c:	30aa7dc8 30b2d836 30bb30ab 30c38728     .}.06..0.0.0(..0
    782c:	30cbdbac 30d42e38 30dc7eca 30e4cd62     ...08..0.~.0b..0
    783c:	30ed1a01 30f564a5 30fdad4e 3105f3fc     ...0.d.0N..0...1
    784c:	310e38af 31167b67 311ebc22 3126fae1     .8.1g{.1"..1..&1
    785c:	312f37a3 31377268 313fab30 3147e1fa     .7/1hr710.?1..G1
    786c:	315016c7 31584995 31607a64 3168a934     ..P1.IX1dz`14.h1
    787c:	3170d605 317900d6 318129a7 31895078     ..p1..y1.).1xP.1
    788c:	31917549 31999818 31a1b8e6 31a9d7b2     Iu.1...1...1...1
    789c:	31b1f47c 31ba0f44 31c2280a 31ca3ecc     |..1D..1.(.1.>.1
    78ac:	31d2538c 31da6647 31e276ff 31ea85b2     .S.1Gf.1.v.1...1
    78bc:	31f29261 31fa9d0b 3202a5b0 320aac4f     a..1...1...2O..2
    78cc:	3212b0e8 321ab37b 3222b408 322ab28d     ...2{..2.."2..*2
    78dc:	3232af0c 323aa983 3242a1f2 324a9859     ..22..:2..B2Y.J2
    78ec:	32528cb7 325a7f0d 32626f5a 326a5d9d     ..R2..Z2Zob2.]j2
    78fc:	327249d6 327a3406 32821c2b 328a0245     .Ir2.4z2+..2E..2
    790c:	3291e654 3299c858 32a1a850 32a9863d     T..2X..2P..2=..2
    791c:	32b1621d 32b93bf0 32c113b6 32c8e96f     .b.2.;.2...2o..2
    792c:	32d0bd1b 32d88eb9 32e05e48 32e82bc9     ...2...2H^.2.+.2
    793c:	32eff73b 32f7c09e 32ff87f1 33074d35     ;..2...2...25M.3
    794c:	330f1069 3316d18c 331e909e 33264da0     i..3...3...3.M&3
    795c:	332e0890 3335c16e 333d783b 33452cf5     ...3n.53;x=3.,E3
    796c:	334cdf9c 33549031 335c3eb2 3363eb20     ..L31.T3.>\3 .c3
    797c:	336b957a 33733dc0 337ae3f2 3382880e     z.k3.=s3..z3...3
    798c:	338a2a16 3391ca08 339967e5 33a103ab     .*.3...3.g.3...3
    799c:	33a89d5c 33b034f5 33b7ca78 33bf5de3     \..3.4.3x..3.].3
    79ac:	33c6ef37 33ce7e73 33d60b97 33dd96a3     7..3s~.3...3...3
    79bc:	33e51f95 33eca66f 33f42b2f 33fbadd6     ...3o..3/+.3...3
    79cc:	34032e62 340aacd5 3412292d 3419a369     b..4...4-).4i..4
    79dc:	34211b8b 34289191 3430057c 3437774a     ..!4..(4|.04Jw74
    79ec:	343ee6fc 34465491 344dc00a 34552965     ..>4.TF4..M4e)U4
    79fc:	345c90a2 3463f5c1 346b58c3 3472b9a5     ..\4..c4.Xk4..r4
    7a0c:	347a1869 3481750e 3488cf94 349027fa     i.z4.u.4...4.'.4
    7a1c:	34977e40 349ed265 34a6246a 34ad744e     @~.4e..4j$.4Nt.4
    7a2c:	34b4c212 34bc0db3 34c35733 34ca9e91     ...4...43W.4...4
    7a3c:	34d1e3cc 34d926e5 34e067db 34e7a6ad     ...4.&.4.g.4...4
    7a4c:	34eee35c 34f61de8 34fd564f 35048c92     \..4...4OV.4...5
    7a5c:	350bc0b0 3512f2a9 351a227d 3521502b     ...5...5}".5+P!5
    7a6c:	35287bb4 352fa516 3536cc52 353df167     .{(5../5R.65g.=5
    7a7c:	35451456 354c351c 355353bc 355a7033     V.E5.5L5.SS53pZ5
    7a8c:	35618a83 3568a2aa 356fb8a8 3576cc7d     ..a5..h5..o5}.v5
    7a9c:	357dde29 3584edab 358bfb03 35930632     ).}5...5...52..5
    7aac:	359a0f35 35a1160e 35a81abc 35af1d3f     5..5...5...5?..5
    7abc:	35b61d96 35bd1bc2 35c417c1 35cb1194     ...5...5...5...5
    7acc:	35d2093a 35d8feb3 35dff1ff 35e6e31d     :..5...5...5...5
    7adc:	35edd20d 35f4becf 35fba963 360291c9     ...5...5c..5...6
    7aec:	360977ff 36105c06 36173ddd 361e1d85     .w.6.\.6.=.6...6
    7afc:	3624fafd 362bd644 3632af5b 36398641     ..$6D.+6[.26A.96
    7b0c:	36405af5 36472d78 364dfdca 3654cbe9     .Z@6x-G6..M6..T6
    7b1c:	365b97d7 36626191 36692919 366fee6e     ..[6.ab6.)i6n.o6
    7b2c:	3676b18f 367d727d 36843137 368aedbc     ..v6}r}671.6...6
    7b3c:	3691a80d 3698602a 369f1611 36a5c9c3     ...6*`.6...6...6
    7b4c:	36ac7b40 36b32a86 36b9d797 36c08271     @{.6.*.6...6q..6
    7b5c:	36c72b15 36cdd182 36d475b7 36db17b6     .+.6...6.u.6...6
    7b6c:	36e1b77c 36e8550a 36eef061 36f5897e     |..6.U.6a..6~..6
    7b7c:	36fc2063 3702b50f 37094782 370fd7bb     c .6...7.G.7...7
    7b8c:	371665ba 371cf17f 37237b0a 372a025a     .e.7...7.{#7Z.*7
    7b9c:	3730876f 37370a49 373d8ae8 3744094b     o.07I.77..=7K.D7
    7bac:	374a8572 3750ff5d 3757770b 375dec7c     r.J7].P7.wW7|.]7
    7bbc:	37645fb1 376ad0a8 37713f62 3777abde     ._d7..j7b?q7..w7
    7bcc:	377e161c 37847e1c 378ae3dd 3791475f     ..~7.~.7...7_G.7
    7bdc:	3797a8a3 379e07a7 37a4646b 37aabef0     ...7...7kd.7...7
    7bec:	37b11734 37b76d38 37bdc0fb 37c4127e     4..78m.7...7~..7
    7bfc:	37ca61c0 37d0aec0 37d6f97e 37dd41fb     .a.7...7~..7.A.7
    7c0c:	37e38835 37e9cc2d 37f00de2 37f64d55     5..7-..7...7UM.7
    7c1c:	37fc8a84 3802c570 3808fe18 380f347d     ...7p..8...8}4.8
    7c2c:	3815689d 381b9a79 3821ca10 3827f762     .h.8y..8..!8b.'8
    7c3c:	382e226f 38344b37 383a71b9 384095f5     o".87K48.q:8..@8
    7c4c:	3846b7eb 384cd79a 3852f503 38591025     ..F8..L8..R8%.Y8
    7c5c:	385f2900 38653f93 386b53df 387165e3     .)_8.?e8.Sk8.eq8
    7c6c:	3877759f 387d8312 38838e3d 3889971f     .uw8..}8=..8...8
    7c7c:	388f9db8 3895a207 389ba40d 38a1a3c9     ...8...8...8...8
    7c8c:	38a7a13b 38ad9c63 38b39540 38b98bd2     ;..8c..8@..8...8
    7c9c:	38bf8019 38c57215 38cb61c5 38d14f2a     ...8.r.8.a.8*O.8
    7cac:	38d73a43 38dd230f 38e3098f 38e8edc2     C:.8.#.8...8...8
    7cbc:	38eecfa8 38f4af41 38fa8c8d 3900678b     ...8A..8...8.g.9
    7ccc:	3906403a 390c169c 3911eab0 3917bc75     :@.9...9...9u..9
    7cdc:	391d8beb 39235911 392923e9 392eec71     ...9.Y#9.#)9q..9
    7cec:	3934b2a9 393a7691 39403829 3945f771     ..49.v:9)8@9q.E9
    7cfc:	394bb467 39516f0d 39572762 395cdd65     g.K9.oQ9b'W9e.\9
    7d0c:	39629116 39684276 396df183 39739e3f     ..b9vBh9..m9?.s9
    7d1c:	397948a7 397ef0bd 39849680 398a39ef     .Hy9..~9...9.9.9
    7d2c:	398fdb0b 399579d4 399b1648 39a0b068     ...9.y.9H..9h..9
    7d3c:	39a64834 39abddab 39b170ce 39b7019b     4H.9...9.p.9...9
    7d4c:	39bc9013 39c21c36 39c7a602 39cd2d79     ...96..9...9y-.9
    7d5c:	39d2b29a 39d83564 39ddb5d7 39e333f4     ...9d5.9...9.3.9
    7d6c:	39e8afba 39ee2928 39f3a03f 39f914fe     ...9().9?..9...9
    7d7c:	39fe8765 3a03f774 3a09652a 3a0ed088     e..9t..:*e.:...:
    7d8c:	3a14398d 3a19a039 3a1f048c 3a246685     .9.:9..:...:.f$:
    7d9c:	3a29c625 3a2f236a 3a347e56 3a39d6e7     %.):j#/:V~4:..9:
    7dac:	3a3f2d1d 3a4480f9 3a49d279 3a4f219f     .-?:..D:y.I:.!O:
    7dbc:	3a546e69 3a59b8d7 3a5f00e9 3a6446a0     inT:..Y:.._:.Fd:
    7dcc:	3a6989fa 3a6ecaf7 3a740998 3a7945dc     ..i:..n:..t:.Ey:
    7ddc:	3a7e7fc3 3a83b74c 3a88ec78 3a8e1f46     ..~:L..:x..:F..:
    7dec:	3a934fb6 3a987dc8 3a9da97b 3aa2d2d0     .O.:.}.:{..:...:
    7dfc:	3aa7f9c6 3aad1e5d 3ab24095 3ab7606d     ...:]..:.@.:m`.:
    7e0c:	3abc7de6 3ac198ff 3ac6b1b7 3acbc810     .}.:...:...:...:
    7e1c:	3ad0dc08 3ad5ed9f 3adafcd5 3ae009aa     ...:...:...:...:
    7e2c:	3ae5141e 3aea1c31 3aef21e1 3af42530     ...:1..:.!.:0%.:
    7e3c:	3af9261d 3afe24a7 3b0320cf 3b081a94     .&.:.$.:. .;...;
    7e4c:	3b0d11f7 3b1206f6 3b16f992 3b1be9ca     ...;...;...;...;
    7e5c:	3b20d79e 3b25c30f 3b2aac1c 3b2f92c4     .. ;..%;..*;../;
    7e6c:	3b347707 3b3958e6 3b3e3860 3b431575     .w4;.X9;`8>;u.C;
    7e7c:	3b47f025 3b4cc86f 3b519e54 3b5671d2     %.G;o.L;T.Q;.qV;
    7e8c:	3b5b42eb 3b60119d 3b64dde8 3b69a7ce     .B[;..`;..d;..i;
    7e9c:	3b6e6f4c 3b733463 3b77f713 3b7cb75b     Lon;c4s;..w;[.|;
    7eac:	3b81753c 3b8630b5 3b8ae9c6 3b8fa06f     <u.;.0.;...;o..;
    7ebc:	3b9454af 3b990687 3b9db5f6 3ba262fc     .T.;...;...;.b.;
    7ecc:	3ba70d98 3babb5cc 3bb05b96 3bb4fef6     ...;...;.[.;...;
    7edc:	3bb99fec 3bbe3e79 3bc2da9b 3bc77452     ...;y>.;...;Rt.;
    7eec:	3bcc0b9f 3bd0a081 3bd532f8 3bd9c304     ...;...;.2.;...;
    7efc:	3bde50a4 3be2dbd9 3be764a2 3bebeaff     .P.;...;.d.;...;
    7f0c:	3bf06ef0 3bf4f074 3bf96f8c 3bfdec38     .n.;t..;.o.;8..;
    7f1c:	3c026676 3c06de48 3c0b53ac 3c0fc6a3     vf.<H..<.S.<...<
    7f2c:	3c14372d 3c18a548 3c1d10f6 3c217a35     -7.<H..<...<5z!<
    7f3c:	3c25e107 3c2a4569 3c2ea75d 3c3306e3     ..%<iE*<]..<..3<
    7f4c:	3c3763f9 3c3bbea0 3c4016d8 3c446ca0     .c7<..;<..@<.lD<
    7f5c:	3c48bff9 3c4d10e1 3c515f5a 3c55ab62     ..H<..M<Z_Q<b.U<
    7f6c:	3c59f4fa 3c5e3c21 3c6280d8 3c66c31e     ..Y<!<^<..b<..f<
    7f7c:	3c6b02f2 3c6f4056 3c737b47 3c77b3c8     ..k<V@o<G{s<..w<
    7f8c:	3c7be9d6 3c801d73 3c844e9d 3c887d55     ..{<s..<.N.<U}.<
    7f9c:	3c8ca99b 3c90d36e 3c94face 3c991fbb     ...<n..<...<...<
    7fac:	3c9d4236 3ca1623c 3ca57fd0 3ca99aef     6B.<<b.<...<...<
    7fbc:	3cadb39b 3cb1c9d3 3cb5dd97 3cb9eee7     ...<...<...<...<
    7fcc:	3cbdfdc2 3cc20a28 3cc6141a 3cca1b97     ...<(..<...<...<
    7fdc:	3cce209e 3cd22331 3cd6234e 3cda20f5     . .<1#.<N#.<. .<
    7fec:	3cde1c27 3ce214e2 3ce60b28 3ce9fef7     '..<...<(..<...<
    7ffc:	3cedf050 3cf1df32 3cf5cb9e 3cf9b593     P..<2..<...<...<
    800c:	3cfd9d10 3d018217 3d0564a6 3d0944be     ...<...=.d.=.D.=
    801c:	3d0d225e 3d10fd86 3d14d636 3d18ac6e     ^".=...=6..=n..=
    802c:	3d1c802e 3d205175 3d242044 3d27ec9a     ...=uQ =D $=..'=
    803c:	3d2bb677 3d2f7ddb 3d3342c6 3d370537     w.+=.}/=.B3=7.7=
    804c:	3d3ac52f 3d3e82ae 3d423db2 3d45f63c     /.:=..>=.=B=<.E=
    805c:	3d49ac4d 3d4d5fe3 3d5110ff 3d54bfa0     M.I=._M=..Q=..T=
    806c:	3d586bc6 3d5c1572 3d5fbca2 3d636157     .kX=r.\=.._=Wac=
    807c:	3d670391 3d6aa350 3d6e4093 3d71db5a     ..g=P.j=.@n=Z.q=
    808c:	3d7573a6 3d790975 3d7c9cc8 3d802d9f     .su=u.y=..|=.-.=
    809c:	3d83bbf9 3d8747d7 3d8ad138 3d8e581c     ...=.G.=8..=.X.=
    80ac:	3d91dc83 3d955e6d 3d98ddd9 3d9c5ac8     ...=m^.=...=.Z.=
    80bc:	3d9fd53a 3da34d2d 3da6c2a3 3daa359b     :..=-M.=...=.5.=
    80cc:	3dada614 3db1140f 3db47f8c 3db7e88a     ...=...=...=...=
    80dc:	3dbb4f0a 3dbeb30a 3dc2148c 3dc5738f     .O.=...=...=.s.=
    80ec:	3dc8d012 3dcc2a16 3dcf819a 3dd2d69e     ...=.*.=...=...=
    80fc:	3dd62923 3dd97928 3ddcc6ad 3de011b1     #).=(y.=...=...=
    810c:	3de35a35 3de6a039 3de9e3bc 3ded24be     5Z.=9..=...=.$.=
    811c:	3df06340 3df39f40 3df6d8bf 3dfa0fbe     @c.=@..=...=...=
    812c:	3dfd443a 3e007635 3e03a5af 3e06d2a6     :D.=5v.>...>...>
    813c:	3e09fd1c 3e0d2510 3e104a81 3e136d70     ...>.%.>.J.>pm.>
    814c:	3e168ddd 3e19abc7 3e1cc72f 3e1fe014     ...>...>/..>...>
    815c:	3e22f676 3e260a54 3e291bb0 3e2c2a88     v.">T.&>..)>.*,>
    816c:	3e2f36dd 3e3240ae 3e3547fc 3e384cc6     .6/>.@2>.G5>.L8>
    817c:	3e3b4f0c 3e3e4ece 3e414c0c 3e4446c5     .O;>.N>>.LA>.FD>
    818c:	3e473efa 3e4a34ab 3e4d27d7 3e50187e     .>G>.4J>.'M>~.P>
    819c:	3e5306a0 3e55f23d 3e58db55 3e5bc1e8     ..S>=.U>U.X>..[>
    81ac:	3e5ea5f6 3e61877e 3e646681 3e6742fd     ..^>~.a>.fd>.Bg>
    81bc:	3e6a1cf4 3e6cf465 3e6fc951 3e729bb5     ..j>e.l>Q.o>..r>
    81cc:	3e756b94 3e7838ec 3e7b03be 3e7dcc09     .ku>.8x>..{>..}>
    81dc:	3e8091cd 3e83550b 3e8615c2 3e88d3f1     ...>.U.>...>...>
    81ec:	3e8b8f9a 3e8e48bb 3e90ff54 3e93b367     ...>.H.>T..>g..>
    81fc:	3e9664f1 3e9913f4 3e9bc06f 3e9e6a62     .d.>...>o..>bj.>
    820c:	3ea111cd 3ea3b6b0 3ea6590b 3ea8f8dd     ...>...>.Y.>...>
    821c:	3eab9627 3eae30e8 3eb0c921 3eb35ed0     '..>.0.>!..>.^.>
    822c:	3eb5f1f7 3eb88295 3ebb10aa 3ebd9c35     ...>...>...>5..>
    823c:	3ec02538 3ec2abb1 3ec52fa0 3ec7b106     8%.>...>./.>...>
    824c:	3eca2fe2 3eccac34 3ecf25fc 3ed19d3b     ./.>4..>.%.>;..>
    825c:	3ed411ef 3ed68419 3ed8f3b8 3edb60ce     ...>...>...>.`.>
    826c:	3eddcb58 3ee03358 3ee298ce 3ee4fbb8     X..>X3.>...>...>
    827c:	3ee75c18 3ee9b9ed 3eec1537 3eee6df5     .\.>...>7..>.m.>
    828c:	3ef0c428 3ef317d0 3ef568ec 3ef7b77d     (..>...>.h.>}..>
    829c:	3efa0382 3efc4cfc 3efe93e9 3f00d84b     ...>.L.>...>K..?
    82ac:	3f031a20 3f05596a 3f079627 3f09d058      ..?jY.?'..?X..?
    82bc:	3f0c07fd 3f0e3d15 3f106fa0 3f129f9f     ...?.=.?.o.?...?
    82cc:	3f14cd11 3f16f7f7 3f19204f 3f1b461b     ...?...?O .?.F.?
    82dc:	3f1d6959 3f1f8a0a 3f21a82e 3f23c3c4     Yi.?...?..!?..#?
    82ec:	3f25dccd 3f27f349 3f2a0737 3f2c1897     ..%?I.'?7.*?..,?
    82fc:	3f2e276a 3f3033ae 3f323d65 3f34448e     j'.?.30?e=2?.D4?
    830c:	3f364928 3f384b35 3f3a4ab3 3f3c47a3     (I6?5K8?.J:?.G<?
    831c:	3f3e4204 3f4039d7 3f422f1b 3f4421d1     .B>?.9@?./B?.!D?
    832c:	3f4611f8 3f47ff90 3f49ea99 3f4bd313     ..F?..G?..I?..K?
    833c:	3f4db8fe 3f4f9c5a 3f517d27 3f535b64     ..M?Z.O?'}Q?d[S?
    834c:	3f553713 3f571031 3f58e6c0 3f5abac0     .7U?1.W?..X?..Z?
    835c:	3f5c8c30 3f5e5b10 3f602761 3f61f121     0.\?.[^?a'`?!.a?
    836c:	3f63b852 3f657cf2 3f673f03 3f68fe83     R.c?.|e?.?g?..h?
    837c:	3f6abb73 3f6c75d3 3f6e2da3 3f6fe2e1     s.j?.ul?.-n?..o?
    838c:	3f719590 3f7345ae 3f74f33b 3f769e38     ..q?.Es?;.t?8.v?
    839c:	3f7846a3 3f79ec7e 3f7b8fc8 3f7d3081     .Fx?~.y?..{?.0}?
    83ac:	3f7ecea9 3f806a40 3f820345 3f8399ba     ..~?@j.?E..?...?
    83bc:	3f852d9d 3f86beef 3f884daf 3f89d9de     .-.?...?.M.?...?
    83cc:	3f8b637b 3f8cea86 3f8e6f00 3f8ff0e8     {c.?...?.o.?...?
    83dc:	3f91703f 3f92ed03 3f946736 3f95ded6     ?p.?...?6g.?...?
    83ec:	3f9753e5 3f98c661 3f9a364c 3f9ba3a4     .S.?a..?L6.?...?
    83fc:	3f9d0e69 3f9e769d 3f9fdc3e 3fa13f4c     i..?.v.?>..?L?.?
    840c:	3fa29fc8 3fa3fdb2 3fa55909 3fa6b1cd     ...?...?.Y.?...?
    841c:	3fa807fe 3fa95b9d 3faaaca9 3fabfb22     ...?.[.?...?"..?
    842c:	3fad4708 3fae905b 3fafd71b 3fb11b48     .G.?[..?...?H..?
    843c:	3fb25ce1 3fb39be8 3fb4d85b 3fb6123b     .\.?...?[..?;..?
    844c:	3fb74988 3fb87e41 3fb9b067 3fbadff9     .I.?A~.?g..?...?
    845c:	3fbc0cf8 3fbd3763 3fbe5f3a 3fbf847e     ...?c7.?:_.?~..?
    846c:	3fc0a72e 3fc1c74b 3fc2e4d3 3fc3ffc8     ...?K..?...?...?
    847c:	3fc51829 3fc62df5 3fc7412e 3fc851d3     )..?.-.?.A.?.Q.?
    848c:	3fc95fe3 3fca6b60 3fcb7448 3fcc7a9c     ._.?`k.?Ht.?.z.?
    849c:	3fcd7e5c 3fce7f88 3fcf7e1f 3fd07a22     \~.?...?.~.?"z.?
    84ac:	3fd17390 3fd26a6a 3fd35eb0 3fd45061     .s.?jj.?.^.?aP.?
    84bc:	3fd53f7d 3fd62c05 3fd715f8 3fd7fd57     }?.?.,.?...?W..?
    84cc:	3fd8e220 3fd9c455 3fdaa3f5 3fdb8101      ..?U..?...?...?
    84dc:	3fdc5b77 3fdd3359 3fde08a5 3fdedb5d     w[.?Y3.?...?]..?
    84ec:	3fdfab80 3fe0790d 3fe14406 3fe20c6a     ...?.y.?.D.?j..?
    84fc:	3fe2d238 3fe39571 3fe45615 3fe51424     8..?q..?.V.?$..?
    850c:	3fe5cf9d 3fe68882 3fe73ed1 3fe7f28a     ...?...?.>.?...?
    851c:	3fe8a3af 3fe9523e 3fe9fe37 3feaa79b     ...?>R.?7..?...?
    852c:	3feb4e69 3febf2a3 3fec9446 3fed3354     iN.?...?F..?T3.?
    853c:	3fedcfcc 3fee69af 3fef00fc 3fef95b4     ...?.i.?...?...?
    854c:	3ff027d6 3ff0b762 3ff14458 3ff1ceb9     .'.?b..?XD.?...?
    855c:	3ff25684 3ff2dbb9 3ff35e58 3ff3de61     .V.?...?X^.?a..?
    856c:	3ff45bd5 3ff4d6b3 3ff54efb 3ff5c4ad     .[.?...?.N.?...?
    857c:	3ff637c9 3ff6a84f 3ff7163f 3ff78199     .7.?O..??..?...?
    858c:	3ff7ea5d 3ff8508b 3ff8b424 3ff91526     ]..?.P.?$..?&..?
    859c:	3ff97392 3ff9cf68 3ffa28a7 3ffa7f51     .s.?h..?.(.?Q..?
    85ac:	3ffad365 3ffb24e2 3ffb73ca 3ffbc01b     e..?.$.?.s.?...?
    85bc:	3ffc09d6 3ffc50fb 3ffc958a 3ffcd782     ...?.P.?...?...?
    85cc:	3ffd16e4 3ffd53b0 3ffd8de6 3ffdc586     ...?.S.?...?...?
    85dc:	3ffdfa8f 3ffe2d02 3ffe5cdf 3ffe8a26     ...?.-.?.\.?&..?
    85ec:	3ffeb4d6 3ffedcf0 3fff0274 3fff2561     ...?...?t..?a%.?
    85fc:	3fff45b8 3fff6379 3fff7ea3 3fff9737     .E.?yc.?.~.?7..?
    860c:	3fffad35 3fffc09d 3fffd16e 3fffdfa9     5..?...?n..?...?
    861c:	3fffeb4d 3ffff45b 3ffffad3 3ffffeb5     M..?[..?...?...?
    862c:	40000000 3ffffeb5 3ffffad3 3ffff45b     ...@...?...?[..?
    863c:	3fffeb4d 3fffdfa9 3fffd16e 3fffc09d     M..?...?n..?...?
    864c:	3fffad35 3fff9737 3fff7ea3 3fff6379     5..?7..?.~.?yc.?
    865c:	3fff45b8 3fff2561 3fff0274 3ffedcf0     .E.?a%.?t..?...?
    866c:	3ffeb4d6 3ffe8a26 3ffe5cdf 3ffe2d02     ...?&..?.\.?.-.?
    867c:	3ffdfa8f 3ffdc586 3ffd8de6 3ffd53b0     ...?...?...?.S.?
    868c:	3ffd16e4 3ffcd782 3ffc958a 3ffc50fb     ...?...?...?.P.?
    869c:	3ffc09d6 3ffbc01b 3ffb73ca 3ffb24e2     ...?...?.s.?.$.?
    86ac:	3ffad365 3ffa7f51 3ffa28a7 3ff9cf68     e..?Q..?.(.?h..?
    86bc:	3ff97392 3ff91526 3ff8b424 3ff8508b     .s.?&..?$..?.P.?
    86cc:	3ff7ea5d 3ff78199 3ff7163f 3ff6a84f     ]..?...??..?O..?
    86dc:	3ff637c9 3ff5c4ad 3ff54efb 3ff4d6b3     .7.?...?.N.?...?
    86ec:	3ff45bd5 3ff3de61 3ff35e58 3ff2dbb9     .[.?a..?X^.?...?
    86fc:	3ff25684 3ff1ceb9 3ff14458 3ff0b762     .V.?...?XD.?b..?
    870c:	3ff027d6 3fef95b4 3fef00fc 3fee69af     .'.?...?...?.i.?
    871c:	3fedcfcc 3fed3354 3fec9446 3febf2a3     ...?T3.?F..?...?
    872c:	3feb4e69 3feaa79b 3fe9fe37 3fe9523e     iN.?...?7..?>R.?
    873c:	3fe8a3af 3fe7f28a 3fe73ed1 3fe68882     ...?...?.>.?...?
    874c:	3fe5cf9d 3fe51424 3fe45615 3fe39571     ...?$..?.V.?q..?
    875c:	3fe2d238 3fe20c6a 3fe14406 3fe0790d     8..?j..?.D.?.y.?
    876c:	3fdfab80 3fdedb5d 3fde08a5 3fdd3359     ...?]..?...?Y3.?
    877c:	3fdc5b77 3fdb8101 3fdaa3f5 3fd9c455     w[.?...?...?U..?
    878c:	3fd8e220 3fd7fd57 3fd715f8 3fd62c05      ..?W..?...?.,.?
    879c:	3fd53f7d 3fd45061 3fd35eb0 3fd26a6a     }?.?aP.?.^.?jj.?
    87ac:	3fd17390 3fd07a22 3fcf7e1f 3fce7f88     .s.?"z.?.~.?...?
    87bc:	3fcd7e5c 3fcc7a9c 3fcb7448 3fca6b60     \~.?.z.?Ht.?`k.?
    87cc:	3fc95fe3 3fc851d3 3fc7412e 3fc62df5     ._.?.Q.?.A.?.-.?
    87dc:	3fc51829 3fc3ffc8 3fc2e4d3 3fc1c74b     )..?...?...?K..?
    87ec:	3fc0a72e 3fbf847e 3fbe5f3a 3fbd3763     ...?~..?:_.?c7.?
    87fc:	3fbc0cf8 3fbadff9 3fb9b067 3fb87e41     ...?...?g..?A~.?
    880c:	3fb74988 3fb6123b 3fb4d85b 3fb39be8     .I.?;..?[..?...?
    881c:	3fb25ce1 3fb11b48 3fafd71b 3fae905b     .\.?H..?...?[..?
    882c:	3fad4708 3fabfb22 3faaaca9 3fa95b9d     .G.?"..?...?.[.?
    883c:	3fa807fe 3fa6b1cd 3fa55909 3fa3fdb2     ...?...?.Y.?...?
    884c:	3fa29fc8 3fa13f4c 3f9fdc3e 3f9e769d     ...?L?.?>..?.v.?
    885c:	3f9d0e69 3f9ba3a4 3f9a364c 3f98c661     i..?...?L6.?a..?
    886c:	3f9753e5 3f95ded6 3f946736 3f92ed03     .S.?...?6g.?...?
    887c:	3f91703f 3f8ff0e8 3f8e6f00 3f8cea86     ?p.?...?.o.?...?
    888c:	3f8b637b 3f89d9de 3f884daf 3f86beef     {c.?...?.M.?...?
    889c:	3f852d9d 3f8399ba 3f820345 3f806a40     .-.?...?E..?@j.?
    88ac:	3f7ecea9 3f7d3081 3f7b8fc8 3f79ec7e     ..~?.0}?..{?~.y?
    88bc:	3f7846a3 3f769e38 3f74f33b 3f7345ae     .Fx?8.v?;.t?.Es?
    88cc:	3f719590 3f6fe2e1 3f6e2da3 3f6c75d3     ..q?..o?.-n?.ul?
    88dc:	3f6abb73 3f68fe83 3f673f03 3f657cf2     s.j?..h?.?g?.|e?
    88ec:	3f63b852 3f61f121 3f602761 3f5e5b10     R.c?!.a?a'`?.[^?
    88fc:	3f5c8c30 3f5abac0 3f58e6c0 3f571031     0.\?..Z?..X?1.W?
    890c:	3f553713 3f535b64 3f517d27 3f4f9c5a     .7U?d[S?'}Q?Z.O?
    891c:	3f4db8fe 3f4bd313 3f49ea99 3f47ff90     ..M?..K?..I?..G?
    892c:	3f4611f8 3f4421d1 3f422f1b 3f4039d7     ..F?.!D?./B?.9@?
    893c:	3f3e4204 3f3c47a3 3f3a4ab3 3f384b35     .B>?.G<?.J:?5K8?
    894c:	3f364928 3f34448e 3f323d65 3f3033ae     (I6?.D4?e=2?.30?
    895c:	3f2e276a 3f2c1897 3f2a0737 3f27f349     j'.?..,?7.*?I.'?
    896c:	3f25dccd 3f23c3c4 3f21a82e 3f1f8a0a     ..%?..#?..!?...?
    897c:	3f1d6959 3f1b461b 3f19204f 3f16f7f7     Yi.?.F.?O .?...?
    898c:	3f14cd11 3f129f9f 3f106fa0 3f0e3d15     ...?...?.o.?.=.?
    899c:	3f0c07fd 3f09d058 3f079627 3f05596a     ...?X..?'..?jY.?
    89ac:	3f031a20 3f00d84b 3efe93e9 3efc4cfc      ..?K..?...>.L.>
    89bc:	3efa0382 3ef7b77d 3ef568ec 3ef317d0     ...>}..>.h.>...>
    89cc:	3ef0c428 3eee6df5 3eec1537 3ee9b9ed     (..>.m.>7..>...>
    89dc:	3ee75c18 3ee4fbb8 3ee298ce 3ee03358     .\.>...>...>X3.>
    89ec:	3eddcb58 3edb60ce 3ed8f3b8 3ed68419     X..>.`.>...>...>
    89fc:	3ed411ef 3ed19d3b 3ecf25fc 3eccac34     ...>;..>.%.>4..>
    8a0c:	3eca2fe2 3ec7b106 3ec52fa0 3ec2abb1     ./.>...>./.>...>
    8a1c:	3ec02538 3ebd9c35 3ebb10aa 3eb88295     8%.>5..>...>...>
    8a2c:	3eb5f1f7 3eb35ed0 3eb0c921 3eae30e8     ...>.^.>!..>.0.>
    8a3c:	3eab9627 3ea8f8dd 3ea6590b 3ea3b6b0     '..>...>.Y.>...>
    8a4c:	3ea111cd 3e9e6a62 3e9bc06f 3e9913f4     ...>bj.>o..>...>
    8a5c:	3e9664f1 3e93b367 3e90ff54 3e8e48bb     .d.>g..>T..>.H.>
    8a6c:	3e8b8f9a 3e88d3f1 3e8615c2 3e83550b     ...>...>...>.U.>
    8a7c:	3e8091cd 3e7dcc09 3e7b03be 3e7838ec     ...>..}>..{>.8x>
    8a8c:	3e756b94 3e729bb5 3e6fc951 3e6cf465     .ku>..r>Q.o>e.l>
    8a9c:	3e6a1cf4 3e6742fd 3e646681 3e61877e     ..j>.Bg>.fd>~.a>
    8aac:	3e5ea5f6 3e5bc1e8 3e58db55 3e55f23d     ..^>..[>U.X>=.U>
    8abc:	3e5306a0 3e50187e 3e4d27d7 3e4a34ab     ..S>~.P>.'M>.4J>
    8acc:	3e473efa 3e4446c5 3e414c0c 3e3e4ece     .>G>.FD>.LA>.N>>
    8adc:	3e3b4f0c 3e384cc6 3e3547fc 3e3240ae     .O;>.L8>.G5>.@2>
    8aec:	3e2f36dd 3e2c2a88 3e291bb0 3e260a54     .6/>.*,>..)>T.&>
    8afc:	3e22f676 3e1fe014 3e1cc72f 3e19abc7     v.">...>/..>...>
    8b0c:	3e168ddd 3e136d70 3e104a81 3e0d2510     ...>pm.>.J.>.%.>
    8b1c:	3e09fd1c 3e06d2a6 3e03a5af 3e007635     ...>...>...>5v.>
    8b2c:	3dfd443a 3dfa0fbe 3df6d8bf 3df39f40     :D.=...=...=@..=
    8b3c:	3df06340 3ded24be 3de9e3bc 3de6a039     @c.=.$.=...=9..=
    8b4c:	3de35a35 3de011b1 3ddcc6ad 3dd97928     5Z.=...=...=(y.=
    8b5c:	3dd62923 3dd2d69e 3dcf819a 3dcc2a16     #).=...=...=.*.=
    8b6c:	3dc8d012 3dc5738f 3dc2148c 3dbeb30a     ...=.s.=...=...=
    8b7c:	3dbb4f0a 3db7e88a 3db47f8c 3db1140f     .O.=...=...=...=
    8b8c:	3dada614 3daa359b 3da6c2a3 3da34d2d     ...=.5.=...=-M.=
    8b9c:	3d9fd53a 3d9c5ac8 3d98ddd9 3d955e6d     :..=.Z.=...=m^.=
    8bac:	3d91dc83 3d8e581c 3d8ad138 3d8747d7     ...=.X.=8..=.G.=
    8bbc:	3d83bbf9 3d802d9f 3d7c9cc8 3d790975     ...=.-.=..|=u.y=
    8bcc:	3d7573a6 3d71db5a 3d6e4093 3d6aa350     .su=Z.q=.@n=P.j=
    8bdc:	3d670391 3d636157 3d5fbca2 3d5c1572     ..g=Wac=.._=r.\=
    8bec:	3d586bc6 3d54bfa0 3d5110ff 3d4d5fe3     .kX=..T=..Q=._M=
    8bfc:	3d49ac4d 3d45f63c 3d423db2 3d3e82ae     M.I=<.E=.=B=..>=
    8c0c:	3d3ac52f 3d370537 3d3342c6 3d2f7ddb     /.:=7.7=.B3=.}/=
    8c1c:	3d2bb677 3d27ec9a 3d242044 3d205175     w.+=..'=D $=uQ =
    8c2c:	3d1c802e 3d18ac6e 3d14d636 3d10fd86     ...=n..=6..=...=
    8c3c:	3d0d225e 3d0944be 3d0564a6 3d018217     ^".=.D.=.d.=...=
    8c4c:	3cfd9d10 3cf9b593 3cf5cb9e 3cf1df32     ...<...<...<2..<
    8c5c:	3cedf050 3ce9fef7 3ce60b28 3ce214e2     P..<...<(..<...<
    8c6c:	3cde1c27 3cda20f5 3cd6234e 3cd22331     '..<. .<N#.<1#.<
    8c7c:	3cce209e 3cca1b97 3cc6141a 3cc20a28     . .<...<...<(..<
    8c8c:	3cbdfdc2 3cb9eee7 3cb5dd97 3cb1c9d3     ...<...<...<...<
    8c9c:	3cadb39b 3ca99aef 3ca57fd0 3ca1623c     ...<...<...<<b.<
    8cac:	3c9d4236 3c991fbb 3c94face 3c90d36e     6B.<...<...<n..<
    8cbc:	3c8ca99b 3c887d55 3c844e9d 3c801d73     ...<U}.<.N.<s..<
    8ccc:	3c7be9d6 3c77b3c8 3c737b47 3c6f4056     ..{<..w<G{s<V@o<
    8cdc:	3c6b02f2 3c66c31e 3c6280d8 3c5e3c21     ..k<..f<..b<!<^<
    8cec:	3c59f4fa 3c55ab62 3c515f5a 3c4d10e1     ..Y<b.U<Z_Q<..M<
    8cfc:	3c48bff9 3c446ca0 3c4016d8 3c3bbea0     ..H<.lD<..@<..;<
    8d0c:	3c3763f9 3c3306e3 3c2ea75d 3c2a4569     .c7<..3<]..<iE*<
    8d1c:	3c25e107 3c217a35 3c1d10f6 3c18a548     ..%<5z!<...<H..<
    8d2c:	3c14372d 3c0fc6a3 3c0b53ac 3c06de48     -7.<...<.S.<H..<
    8d3c:	3c026676 3bfdec38 3bf96f8c 3bf4f074     vf.<8..;.o.;t..;
    8d4c:	3bf06ef0 3bebeaff 3be764a2 3be2dbd9     .n.;...;.d.;...;
    8d5c:	3bde50a4 3bd9c304 3bd532f8 3bd0a081     .P.;...;.2.;...;
    8d6c:	3bcc0b9f 3bc77452 3bc2da9b 3bbe3e79     ...;Rt.;...;y>.;
    8d7c:	3bb99fec 3bb4fef6 3bb05b96 3babb5cc     ...;...;.[.;...;
    8d8c:	3ba70d98 3ba262fc 3b9db5f6 3b990687     ...;.b.;...;...;
    8d9c:	3b9454af 3b8fa06f 3b8ae9c6 3b8630b5     .T.;o..;...;.0.;
    8dac:	3b81753c 3b7cb75b 3b77f713 3b733463     <u.;[.|;..w;c4s;
    8dbc:	3b6e6f4c 3b69a7ce 3b64dde8 3b60119d     Lon;..i;..d;..`;
    8dcc:	3b5b42eb 3b5671d2 3b519e54 3b4cc86f     .B[;.qV;T.Q;o.L;
    8ddc:	3b47f025 3b431575 3b3e3860 3b3958e6     %.G;u.C;`8>;.X9;
    8dec:	3b347707 3b2f92c4 3b2aac1c 3b25c30f     .w4;../;..*;..%;
    8dfc:	3b20d79e 3b1be9ca 3b16f992 3b1206f6     .. ;...;...;...;
    8e0c:	3b0d11f7 3b081a94 3b0320cf 3afe24a7     ...;...;. .;.$.:
    8e1c:	3af9261d 3af42530 3aef21e1 3aea1c31     .&.:0%.:.!.:1..:
    8e2c:	3ae5141e 3ae009aa 3adafcd5 3ad5ed9f     ...:...:...:...:
    8e3c:	3ad0dc08 3acbc810 3ac6b1b7 3ac198ff     ...:...:...:...:
    8e4c:	3abc7de6 3ab7606d 3ab24095 3aad1e5d     .}.:m`.:.@.:]..:
    8e5c:	3aa7f9c6 3aa2d2d0 3a9da97b 3a987dc8     ...:...:{..:.}.:
    8e6c:	3a934fb6 3a8e1f46 3a88ec78 3a83b74c     .O.:F..:x..:L..:
    8e7c:	3a7e7fc3 3a7945dc 3a740998 3a6ecaf7     ..~:.Ey:..t:..n:
    8e8c:	3a6989fa 3a6446a0 3a5f00e9 3a59b8d7     ..i:.Fd:.._:..Y:
    8e9c:	3a546e69 3a4f219f 3a49d279 3a4480f9     inT:.!O:y.I:..D:
    8eac:	3a3f2d1d 3a39d6e7 3a347e56 3a2f236a     .-?:..9:V~4:j#/:
    8ebc:	3a29c625 3a246685 3a1f048c 3a19a039     %.):.f$:...:9..:
    8ecc:	3a14398d 3a0ed088 3a09652a 3a03f774     .9.:...:*e.:t..:
    8edc:	39fe8765 39f914fe 39f3a03f 39ee2928     e..9...9?..9().9
    8eec:	39e8afba 39e333f4 39ddb5d7 39d83564     ...9.3.9...9d5.9
    8efc:	39d2b29a 39cd2d79 39c7a602 39c21c36     ...9y-.9...96..9
    8f0c:	39bc9013 39b7019b 39b170ce 39abddab     ...9...9.p.9...9
    8f1c:	39a64834 39a0b068 399b1648 399579d4     4H.9h..9H..9.y.9
    8f2c:	398fdb0b 398a39ef 39849680 397ef0bd     ...9.9.9...9..~9
    8f3c:	397948a7 39739e3f 396df183 39684276     .Hy9?.s9..m9vBh9
    8f4c:	39629116 395cdd65 39572762 39516f0d     ..b9e.\9b'W9.oQ9
    8f5c:	394bb467 3945f771 39403829 393a7691     g.K9q.E9)8@9.v:9
    8f6c:	3934b2a9 392eec71 392923e9 39235911     ..49q..9.#)9.Y#9
    8f7c:	391d8beb 3917bc75 3911eab0 390c169c     ...9u..9...9...9
    8f8c:	3906403a 3900678b 38fa8c8d 38f4af41     :@.9.g.9...8A..8
    8f9c:	38eecfa8 38e8edc2 38e3098f 38dd230f     ...8...8...8.#.8
    8fac:	38d73a43 38d14f2a 38cb61c5 38c57215     C:.8*O.8.a.8.r.8
    8fbc:	38bf8019 38b98bd2 38b39540 38ad9c63     ...8...8@..8c..8
    8fcc:	38a7a13b 38a1a3c9 389ba40d 3895a207     ;..8...8...8...8
    8fdc:	388f9db8 3889971f 38838e3d 387d8312     ...8...8=..8..}8
    8fec:	3877759f 387165e3 386b53df 38653f93     .uw8.eq8.Sk8.?e8
    8ffc:	385f2900 38591025 3852f503 384cd79a     .)_8%.Y8..R8..L8
    900c:	3846b7eb 384095f5 383a71b9 38344b37     ..F8..@8.q:87K48
    901c:	382e226f 3827f762 3821ca10 381b9a79     o".8b.'8..!8y..8
    902c:	3815689d 380f347d 3808fe18 3802c570     .h.8}4.8...8p..8
    903c:	37fc8a84 37f64d55 37f00de2 37e9cc2d     ...7UM.7...7-..7
    904c:	37e38835 37dd41fb 37d6f97e 37d0aec0     5..7.A.7~..7...7
    905c:	37ca61c0 37c4127e 37bdc0fb 37b76d38     .a.7~..7...78m.7
    906c:	37b11734 37aabef0 37a4646b 379e07a7     4..7...7kd.7...7
    907c:	3797a8a3 3791475f 378ae3dd 37847e1c     ...7_G.7...7.~.7
    908c:	377e161c 3777abde 37713f62 376ad0a8     ..~7..w7b?q7..j7
    909c:	37645fb1 375dec7c 3757770b 3750ff5d     ._d7|.]7.wW7].P7
    90ac:	374a8572 3744094b 373d8ae8 37370a49     r.J7K.D7..=7I.77
    90bc:	3730876f 372a025a 37237b0a 371cf17f     o.07Z.*7.{#7...7
    90cc:	371665ba 370fd7bb 37094782 3702b50f     .e.7...7.G.7...7
    90dc:	36fc2063 36f5897e 36eef061 36e8550a     c .6~..6a..6.U.6
    90ec:	36e1b77c 36db17b6 36d475b7 36cdd182     |..6...6.u.6...6
    90fc:	36c72b15 36c08271 36b9d797 36b32a86     .+.6q..6...6.*.6
    910c:	36ac7b40 36a5c9c3 369f1611 3698602a     @{.6...6...6*`.6
    911c:	3691a80d 368aedbc 36843137 367d727d     ...6...671.6}r}6
    912c:	3676b18f 366fee6e 36692919 36626191     ..v6n.o6.)i6.ab6
    913c:	365b97d7 3654cbe9 364dfdca 36472d78     ..[6..T6..M6x-G6
    914c:	36405af5 36398641 3632af5b 362bd644     .Z@6A.96[.26D.+6
    915c:	3624fafd 361e1d85 36173ddd 36105c06     ..$6...6.=.6.\.6
    916c:	360977ff 360291c9 35fba963 35f4becf     .w.6...6c..5...5
    917c:	35edd20d 35e6e31d 35dff1ff 35d8feb3     ...5...5...5...5
    918c:	35d2093a 35cb1194 35c417c1 35bd1bc2     :..5...5...5...5
    919c:	35b61d96 35af1d3f 35a81abc 35a1160e     ...5?..5...5...5
    91ac:	359a0f35 35930632 358bfb03 3584edab     5..52..5...5...5
    91bc:	357dde29 3576cc7d 356fb8a8 3568a2aa     ).}5}.v5..o5..h5
    91cc:	35618a83 355a7033 355353bc 354c351c     ..a53pZ5.SS5.5L5
    91dc:	35451456 353df167 3536cc52 352fa516     V.E5g.=5R.65../5
    91ec:	35287bb4 3521502b 351a227d 3512f2a9     .{(5+P!5}".5...5
    91fc:	350bc0b0 35048c92 34fd564f 34f61de8     ...5...5OV.4...4
    920c:	34eee35c 34e7a6ad 34e067db 34d926e5     \..4...4.g.4.&.4
    921c:	34d1e3cc 34ca9e91 34c35733 34bc0db3     ...4...43W.4...4
    922c:	34b4c212 34ad744e 34a6246a 349ed265     ...4Nt.4j$.4e..4
    923c:	34977e40 349027fa 3488cf94 3481750e     @~.4.'.4...4.u.4
    924c:	347a1869 3472b9a5 346b58c3 3463f5c1     i.z4..r4.Xk4..c4
    925c:	345c90a2 34552965 344dc00a 34465491     ..\4e)U4..M4.TF4
    926c:	343ee6fc 3437774a 3430057c 34289191     ..>4Jw74|.04..(4
    927c:	34211b8b 3419a369 3412292d 340aacd5     ..!4i..4-).4...4
    928c:	34032e62 33fbadd6 33f42b2f 33eca66f     b..4...3/+.3o..3
    929c:	33e51f95 33dd96a3 33d60b97 33ce7e73     ...3...3...3s~.3
    92ac:	33c6ef37 33bf5de3 33b7ca78 33b034f5     7..3.].3x..3.4.3
    92bc:	33a89d5c 33a103ab 339967e5 3391ca08     \..3...3.g.3...3
    92cc:	338a2a16 3382880e 337ae3f2 33733dc0     .*.3...3..z3.=s3
    92dc:	336b957a 3363eb20 335c3eb2 33549031     z.k3 .c3.>\31.T3
    92ec:	334cdf9c 33452cf5 333d783b 3335c16e     ..L3.,E3;x=3n.53
    92fc:	332e0890 33264da0 331e909e 3316d18c     ...3.M&3...3...3
    930c:	330f1069 33074d35 32ff87f1 32f7c09e     i..35M.3...2...2
    931c:	32eff73b 32e82bc9 32e05e48 32d88eb9     ;..2.+.2H^.2...2
    932c:	32d0bd1b 32c8e96f 32c113b6 32b93bf0     ...2o..2...2.;.2
    933c:	32b1621d 32a9863d 32a1a850 3299c858     .b.2=..2P..2X..2
    934c:	3291e654 328a0245 32821c2b 327a3406     T..2E..2+..2.4z2
    935c:	327249d6 326a5d9d 32626f5a 325a7f0d     .Ir2.]j2Zob2..Z2
    936c:	32528cb7 324a9859 3242a1f2 323aa983     ..R2Y.J2..B2..:2
    937c:	3232af0c 322ab28d 3222b408 321ab37b     ..22..*2.."2{..2
    938c:	3212b0e8 320aac4f 3202a5b0 31fa9d0b     ...2O..2...2...1
    939c:	31f29261 31ea85b2 31e276ff 31da6647     a..1...1.v.1Gf.1
    93ac:	31d2538c 31ca3ecc 31c2280a 31ba0f44     .S.1.>.1.(.1D..1
    93bc:	31b1f47c 31a9d7b2 31a1b8e6 31999818     |..1...1...1...1
    93cc:	31917549 31895078 318129a7 317900d6     Iu.1xP.1.).1..y1
    93dc:	3170d605 3168a934 31607a64 31584995     ..p14.h1dz`1.IX1
    93ec:	315016c7 3147e1fa 313fab30 31377268     ..P1..G10.?1hr71
    93fc:	312f37a3 3126fae1 311ebc22 31167b67     .7/1..&1"..1g{.1
    940c:	310e38af 3105f3fc 30fdad4e 30f564a5     .8.1...1N..0.d.0
    941c:	30ed1a01 30e4cd62 30dc7eca 30d42e38     ...0b..0.~.08..0
    942c:	30cbdbac 30c38728 30bb30ab 30b2d836     ...0(..0.0.06..0
    943c:	30aa7dc8 30a22164 3099c307 309162b4     .}.0d!.0...0.b.0
    944c:	3089006a 30809c2a 307835f4 306fcdc8     j..0*..0.5x0..o0
    945c:	306763a7 305ef791 30568987 304e1988     .cg0..^0..V0..N0
    946c:	3045a795 303d33af 3034bdd6 302c4609     ..E0.3=0..40.F,0
    947c:	3023cc4a 301b5099 3012d2f6 300a5362     J.#0.P.0...0bS.0
    948c:	3001d1dc 2ff94e66 2ff0c8ff 2fe841a8     ...0fN./.../.A./
    949c:	2fdfb861 2fd72d2a 2fcea005 2fc610f1     a../*-./.../.../
    94ac:	2fbd7fee 2fb4ecfd 2fac581f 2fa3c153     .../.../.X./S../
    94bc:	2f9b289a 2f928df5 2f89f163 2f8152e5     .(./.../c../.R./
    94cc:	2f78b27c 2f701027 2f676be8 2f5ec5bd     |.x/'.p/.kg/..^/
    94dc:	2f561da9 2f4d73ab 2f44c7c3 2f3c19f2     ..V/.sM/..D/..</
    94ec:	2f336a38 2f2ab895 2f22050b 2f194f99     8j3/..*/.."/.O./
    94fc:	2f10983f 2f07defe 2eff23d7 2ef666c9     ?../.../.#...f..
    950c:	2eeda7d5 2ee4e6fb 2edc243c 2ed35f99     ........<$..._..
    951c:	2eca9910 2ec1d0a4 2eb90653 2eb03a1f     ........S....:..
    952c:	2ea76c08 2e9e9c0e 2e95ca31 2e8cf672     .l......1...r...
    953c:	2e8420d2 2e7b4950 2e726fed 2e6994aa     . ..PI{..or...i.
    954c:	2e60b786 2e57d882 2e4ef79e 2e4614dc     ..`...W...N...F.
    955c:	2e3d303a 2e3449ba 2e2b615c 2e227720     :0=..I4.\a+. w".
    956c:	2e198b06 2e109d10 2e07ad3c 2dfebb8d     ........<......-
    957c:	2df5c801 2decd299 2de3db57 2ddae239     ...-...-W..-9..-
    958c:	2dd1e741 2dc8ea6f 2dbfebc3 2db6eb3d     A..-o..-...-=..-
    959c:	2dade8de 2da4e4a7 2d9bde97 2d92d6af     ...-...-...-...-
    95ac:	2d89ccf0 2d80c159 2d77b3ec 2d6ea4a7     ...-Y..-..w-..n-
    95bc:	2d65938d 2d5c809d 2d536bd7 2d4a553c     ..e-..\-.kS-<UJ-
    95cc:	2d413ccd 2d382289 2d2f0671 2d25e886     .<A-."8-q./-..%-
    95dc:	2d1cc8c8 2d13a736 2d0a83d2 2d015e9c     ...-6..-...-.^.-
    95ec:	2cf83794 2cef0ebb 2ce5e411 2cdcb796     .7.,...,...,...,
    95fc:	2cd3894b 2cca592f 2cc12745 2cb7f38b     K..,/Y.,E'.,...,
    960c:	2caebe02 2ca586ab 2c9c4d86 2c931294     ...,...,.M.,...,
    961c:	2c89d5d4 2c809747 2c7756ed 2c6e14c7     ...,G..,.Vw,..n,
    962c:	2c64d0d6 2c5b8b19 2c524391 2c48fa3e     ..d,..[,.CR,>.H,
    963c:	2c3faf21 2c36623a 2c2d138a 2c23c310     !.?,:b6,..-,..#,
    964c:	2c1a70ce 2c111cc3 2c07c6f0 2bfe6f55     .p.,...,...,Uo.+
    965c:	2bf515f3 2bebbaca 2be25ddb 2bd8ff25     ...+...+.].+%..+
    966c:	2bcf9eaa 2bc63c69 2bbcd864 2bb37299     ...+i<.+d..+.r.+
    967c:	2baa0b0b 2ba0a1b8 2b9736a2 2b8dc9c9     ...+...+.6.+...+
    968c:	2b845b2d 2b7aeacf 2b7178af 2b6804cd     -[.+..z+.xq+..h+
    969c:	2b5e8f2a 2b5517c6 2b4b9ea2 2b4223bd     *.^+..U+..K+.#B+
    96ac:	2b38a719 2b2f28b6 2b25a894 2b1c26b3     ..8+.(/+..%+.&.+
    96bc:	2b12a314 2b091db7 2aff969d 2af60dc6     ...+...+...*...*
    96cc:	2aec8332 2ae2f6e2 2ad968d7 2acfd90f     2..*...*.h.*...*
    96dc:	2ac6478d 2abcb450 2ab31f59 2aa988a8     .G.*P..*Y..*...*
    96ec:	2a9ff03d 2a96561a 2a8cba3d 2a831ca8     =..*.V.*=..*...*
    96fc:	2a797d5b 2a6fdc57 2a66399c 2a5c9529     [}y*W.o*.9f*).\*
    970c:	2a52ef01 2a494722 2a3f9d8d 2a35f244     ..R*"GI*..?*D.5*
    971c:	2a2c4545 2a229692 2a18e62b 2a0f3411     EE,*.."*+..*.4.*
    972c:	2a058043 29fbcac2 29f2138f 29e85aaa     C..*...)...).Z.)
    973c:	29dea013 29d4e3ca 29cb25d1 29c16627     ...)...).%.)'f.)
    974c:	29b7a4cd 29ade1c3 29a41d0a 299a56a3     ...)...)...).V.)
    975c:	29908e8c 2986c4c7 297cf955 29732c35     ...)...)U.|)5,s)
    976c:	29695d68 295f8cef 2955baca 294be6f8     h]i).._)..U)..K)
    977c:	2942117c 29383a54 292e6182 29248705     |.B)T:8).a.)..$)
    978c:	291aaadf 2910cd10 2906ed97 28fd0c76     ...)...)...)v..(
    979c:	28f329ad 28e9453c 28df5f23 28d57764     .).(<E.(#_.(dw.(
    97ac:	28cb8dfd 28c1a2f1 28b7b63f 28adc7e8     ...(...(?..(...(
    97bc:	28a3d7eb 2899e64a 288ff305 2885fe1c     ...(J..(...(...(
    97cc:	287c078f 28720f60 2868158e 285e1a1a     ..|(`.r(..h(..^(
    97dc:	28541d04 284a1e4d 28401df5 28361bfc     ..T(M.J(..@(..6(
    97ec:	282c1863 2822132b 28180c53 280e03dc     c.,(+."(S..(...(
    97fc:	2803f9c6 27f9ee13 27efe0c1 27e5d1d3     ...(...'...'...'
    980c:	27dbc147 27d1af1f 27c79b5b 27bd85fc     G..'...'[..'...'
    981c:	27b36f01 27a9566b 279f3c3a 27952070     .o.'kV.':<.'p .'
    982c:	278b030c 2780e40f 2776c379 276ca14a     ...'...'y.v'J.l'
    983c:	27627d84 27585825 274e3130 274408a4     .}b'%XX'01N'..D'
    984c:	2739de82 272fb2c9 2725857b 271b5698     ..9'../'{.%'.V.'
    985c:	27112621 2706f415 26fcc075 26f28b41     !&.'...'u..&A..&
    986c:	26e8547b 26de1c22 26d3e236 26c9a6b9     {T.&"..&6..&...&
    987c:	26bf69aa 26b52b0b 26aaeada 26a0a91a     .i.&.+.&...&...&
    988c:	269665ca 268c20ea 2681da7c 2677927f     .e.&. .&|..&..w&
    989c:	266d48f4 2662fddb 2658b135 264e6302     .Hm&..b&5.X&.cN&
    98ac:	26441343 2639c1f8 262f6f21 26251abf     C.D&..9&!o/&..%&
    98bc:	261ac4d2 26106d5b 2606145a 25fbb9cf     ...&[m.&Z..&...%
    98cc:	25f15dbb 25e7001f 25dca0fa 25d2404e     .].%...%...%N@.%
    98dc:	25c7de1a 25bd7a5f 25b3151e 25a8ae56     ...%_z.%...%V..%
    98ec:	259e4609 2593dc36 258970df 257f0403     .F.%6..%.p.%...%
    98fc:	257495a3 256a25bf 255fb458 2555416e     ..t%.%j%X._%nAU%
    990c:	254acd02 25405715 2535dfa5 252b66b4     ..J%.W@%..5%.f+%
    991c:	2520ec43 25167052 250bf2e0 250173f0     C. %Rp.%...%.s.%
    992c:	24f6f380 24ec7192 24e1ee25 24d7693b     ...$.q.$%..$;i.$
    993c:	24cce2d4 24c25af0 24b7d18f 24ad46b3     ...$.Z.$...$.F.$
    994c:	24a2ba5b 24982c87 248d9d39 24830c71     [..$.,.$9..$q..$
    995c:	24787a2f 246de673 2463513f 2458ba91     /zx$s.m$?Qc$..X$
    996c:	244e226c 244388cf 2438edbb 242e512f     l"N$..C$..8$/Q.$
    997c:	2423b32e 241913b6 240e72c9 2403d066     ..#$...$.r.$f..$
    998c:	23f92c8f 23ee8744 23e3e085 23d93852     .,.#D..#...#R8.#
    999c:	23ce8eac 23c3e394 23b9370a 23ae890e     ...#...#.7.#...#
    99ac:	23a3d9a0 239928c2 238e7673 2383c2b5     ...#.(.#sv.#...#
    99bc:	23790d87 236e56e9 23639edd 2358e563     ..y#.Vn#..c#c.X#
    99cc:	234e2a7b 23436e26 2338b064 232df135     {*N#&nC#d.8#5.-#
    99dc:	2323309a 23186e94 230dab22 2302e645     .0##.n.#"..#E..#
    99ec:	22f81ffe 22ed584e 22e28f34 22d7c4b0     ..."NX."4.."..."
    99fc:	22ccf8c5 22c22b71 22b75cb5 22ac8c92     ..."q+.".\."..."
    9a0c:	22a1bb08 2296e818 228c13c2 22813e06     ..."..."...".>."
    9a1c:	227666e5 226b8e60 2260b476 2255d929     .fv"`.k"v.`").U"
    9a2c:	224afc78 22401e65 22353eee 222a5e16     x.J"e.@".>5".^*"
    9a3c:	221f7bdd 22149842 2209b346 21feccea     .{."B.."F.."...!
    9a4c:	21f3e52f 21e8fc14 21de119a 21d325c1     /..!...!...!.%.!
    9a5c:	21c8388b 21bd49f7 21b25a05 21a768b7     .8.!.I.!.Z.!.h.!
    9a6c:	219c760d 21918207 21868ca5 217b95e9     .v.!...!...!..{!
    9a7c:	21709dd2 2165a461 215aa996 214fad72     ..p!a.e!..Z!r.O!
    9a8c:	2144aff6 2139b121 212eb0f4 2123af70     ..D!!.9!...!p.#!
    9a9c:	2118ac95 210da863 2102a2db 20f79bfe     ...!c..!...!... 
    9aac:	20ec93cb 20e18a44 20d67f69 20cb7339     ... D.. i.. 9s. 
    9abc:	20c065b6 20b556e1 20aa46b8 209f353e     .e. .V. .F. >5. 
    9acc:	20942272 20890e55 207df8e7 2072e229     r". U.. ..} ).r 
    9adc:	2067ca1c 205cb0be 20519612 20467a18     ..g ..\ ..Q .zF 
    9aec:	203b5ccf 20303e39 20251e56 2019fd26     .\; 9>0 V.% &.. 
    9afc:	200edaaa 2003b6e2 1ff891ce 1fed6b70     ... ... ....pk..
    9b0c:	1fe243c8 1fd71ad5 1fcbf099 1fc0c514     .C..............
    9b1c:	1fb59846 1faa6a30 1f9f3ad3 1f940a2e     F...0j...:......
    9b2c:	1f88d842 1f7da510 1f727099 1f673adb     B.....}..pr..:g.
    9b3c:	1f5c03d9 1f50cb92 1f459207 1f3a5739     ..\...P...E.9W:.
    9b4c:	1f2f1b27 1f23ddd2 1f189f3b 1f0d5f63     './...#.;...c_..
    9b5c:	1f021e49 1ef6dbee 1eeb9853 1ee05378     I.......S...xS..
    9b6c:	1ed50d5d 1ec9c603 1ebe7d6a 1eb33394     ].......j}...3..
    9b7c:	1ea7e87f 1e9c9c2d 1e914e9f 1e85ffd4     ....-....N......
    9b8c:	1e7aafcd 1e6f5e8b 1e640c0e 1e58b857     ..z..^o...d.W.X.
    9b9c:	1e4d6365 1e420d3a 1e36b5d5 1e2b5d38     ecM.:.B...6.8]+.
    9bac:	1e200363 1e14a856 1e094c11 1dfdee96     c. .V....L......
    9bbc:	1df28fe4 1de72ffd 1ddbcee0 1dd06c8e     ...../.......l..
    9bcc:	1dc50907 1db9a44c 1dae3e5e 1da2d73d     ....L...^>..=...
    9bdc:	1d976ee8 1d8c0562 1d809aaa 1d752ec0     .n..b.........u.
    9bec:	1d69c1a6 1d5e535b 1d52e3e0 1d477336     ..i.[S^...R.6sG.
    9bfc:	1d3c015d 1d308e55 1d251a1f 1d19a4bc     ].<.U.0...%.....
    9c0c:	1d0e2e2b 1d02b66e 1cf73d84 1cebc36f     +...n....=..o...
    9c1c:	1ce0482e 1cd4cbc3 1cc94e2d 1cbdcf6d     .H......-N..m...
    9c2c:	1cb24f84 1ca6ce72 1c9b4c37 1c8fc8d5     .O..r...7L......
    9c3c:	1c84444a 1c78be99 1c6d37c1 1c61afc3     JD....x..7m...a.
    9c4c:	1c56269f 1c4a9c55 1c3f10e7 1c338455     .&V.U.J...?.U.3.
    9c5c:	1c27f69f 1c1c67c5 1c10d7c9 1c0546aa     ..'..g.......F..
    9c6c:	1bf9b469 1bee2106 1be28c83 1bd6f6de     i....!..........
    9c7c:	1bcb601a 1bbfc836 1bb42f33 1ba89511     .`..6...3/......
    9c8c:	1b9cf9d1 1b915d74 1b85bff9 1b7a2161     ....t]......a!z.
    9c9c:	1b6e81ac 1b62e0dc 1b573ef1 1b4b9bea     ..n...b..>W...K.
    9cac:	1b3ff7c9 1b34528e 1b28ac3a 1b1d04cc     ..?..R4.:.(.....
    9cbc:	1b115c46 1b05b2a7 1afa07f1 1aee5c24     F\..........$\..
    9ccc:	1ae2af40 1ad70146 1acb5236 1abfa211     @...F...6R......
    9cdc:	1ab3f0d7 1aa83e89 1a9c8b26 1a90d6b1     .....>..&.......
    9cec:	1a852128 1a796a8d 1a6db2e0 1a61fa22     (!...jy...m.".a.
    9cfc:	1a564052 1a4a8572 1a3ec982 1a330c82     R@V.r.J...>...3.
    9d0c:	1a274e73 1a1b8f55 1a0fcf29 1a040df0     sN'.U...).......
    9d1c:	19f84ba9 19ec8856 19e0c3f6 19d4fe8a     .K..V...........
    9d2c:	19c93813 19bd7091 19b1a805 19a5de6f     .8...p......o...
    9d3c:	199a13cf 198e4827 19827b76 1976adbd     ....'H..v{....v.
    9d4c:	196adefc 195f0f35 19533e67 19476c93     ..j.5._.g>S..lG.
    9d5c:	193b99b9 192fc5da 1923f0f6 19181b0e     ..;.../...#.....
    9d6c:	190c4423 19006c34 18f49343 18e8b94f     #D..4l..C...O...
    9d7c:	18dcde59 18d10263 18c5256b 18b94773     Y...c...k%..sG..
    9d8c:	18ad687b 18a18884 1895a78e 1889c599     {h..............
    9d9c:	187de2a7 1871feb7 186619ca 185a33e0     ..}...q...f..3Z.
    9dac:	184e4cfb 1842651a 18367c3e 182a9267     .LN..eB.>|6.g.*.
    9dbc:	181ea796 1812bbcc 1806cf08 17fae14c     ............L...
    9dcc:	17eef298 17e302ec 17d71248 17cb20ae     ........H.... ..
    9ddc:	17bf2e1e 17b33a98 17a7461d 179b50ad     .....:...F...P..
    9dec:	178f5a49 178362f1 17776aa5 176b7167     IZ...b...jw.gqk.
    9dfc:	175f7736 17537c13 17477fff 173b82fa     6w_..|S...G...;.
    9e0c:	172f8505 17238620 1717864b 170b8587     ../. .#.K.......
    9e1c:	16ff83d5 16f38135 16e77da7 16db792c     ....5....}..,y..
    9e2c:	16cf73c5 16c36d71 16b76632 16ab5e08     .s..qm..2f...^..
    9e3c:	169f54f3 16934af5 1687400c 167b343b     .T...J...@..;4{.
    9e4c:	166f2780 166319de 16570b54 164afbe2     .'o...c.T.W...J.
    9e5c:	163eeb8a 1632da4c 1626c828 161ab51f     ..>.L.2.(.&.....
    9e6c:	160ea131 16028c5f 15f676a9 15ea600f     1..._....v...`..
    9e7c:	15de4893 15d23035 15c616f4 15b9fcd3     .H..50..........
    9e8c:	15ade1d0 15a1c5ee 1595a92b 15898b89     ........+.......
    9e9c:	157d6d08 15714da8 15652d6b 15590c50     .m}..Mq.k-e.P.Y.
    9eac:	154cea59 1540c785 1534a3d5 15287f49     Y.L...@...4.I.(.
    9ebc:	151c59e3 151033a2 15040c87 14f7e493     .Y...3..........
    9ecc:	14ebbbc5 14df921f 14d367a1 14c73c4c     .........g..L<..
    9edc:	14bb101f 14aee31c 14a2b543 14968695     ........C.......
    9eec:	148a5711 147e26b9 1471f58c 1465c38c     .W...&~...q...e.
    9efc:	145990b9 144d5d14 1441289c 1434f353     ..Y..]M..(A.S.4.
    9f0c:	1428bd38 141c864d 14104e92 14041607     8.(.M....N......
    9f1c:	13f7dcad 13eba284 13df678d 13d32bc9     .........g...+..
    9f2c:	13c6ef37 13bab1d9 13ae73ae 13a234b8     7........s...4..
    9f3c:	1395f4f7 1389b46b 137d7314 137130f4     ....k....s}..0q.
    9f4c:	1364ee0b 1358aa59 134c65df 1340209d     ..d.Y.X..eL.. @.
    9f5c:	1333da94 132793c4 131b4c2e 130f03d3     ..3...'..L......
    9f6c:	1302bab2 12f670cc 12ea2622 12dddab4     .....p.."&......
    9f7c:	12d18e83 12c5418f 12b8f3d9 12aca562     .....A......b...
    9f8c:	12a05629 1294062f 1287b575 127b63fb     )V../...u....c{.
    9f9c:	126f11c2 1262beca 12566b14 124a16a0     ..o...b..kV...J.
    9fac:	123dc16f 12316b81 122514d7 1218bd71     o.=..k1...%.q...
    9fbc:	120c654f 12000c73 11f3b2dd 11e7588d     Oe..s........X..
    9fcc:	11dafd83 11cea1c1 11c24546 11b5e814     ........FE......
    9fdc:	11a98a2a 119d2b8a 1190cc33 11846c27     *....+..3...'l..
    9fec:	11780b65 116ba9ef 115f47c4 1152e4e5     e.x...k..G_...R.
    9ffc:	11468153 113a1d0f 112db818 1121526f     S.F...:...-.oR!.
    a00c:	1114ec15 1108850a 10fc1d4f 10efb4e4     ........O.......
    a01c:	10e34bca 10d6e201 10ca778a 10be0c65     .K.......w..e...
    a02c:	10b1a093 10a53414 1098c6e9 108c5912     .....4.......Y..
    a03c:	107fea8f 10737b62 10670b8b 105a9b0a     ....b{s...g...Z.
    a04c:	104e29e0 1041b80d 10354591 1028d26e     .)N...A..E5.n.(.
    a05c:	101c5ea4 100fea33 1003751c 0ff6ff5f     .^..3....u.._...
    a06c:	0fea88fd 0fde11f6 0fd19a4b 0fc521fc     ........K....!..
    a07c:	0fb8a90a 0fac2f76 0f9fb53f 0f933a66     ....v/..?...f:..
    a08c:	0f86beed 0f7a42d2 0f6dc618 0f6148bd     .....Bz...m..Ha.
    a09c:	0f54cac4 0f484c2c 0f3bccf5 0f2f4d22     ..T.,LH...;."M/.
    a0ac:	0f22ccb0 0f164ba3 0f09c9f9 0efd47b3     .."..K.......G..
    a0bc:	0ef0c4d3 0ee44158 0ed7bd42 0ecb3893     ....XA..B....8..
    a0cc:	0ebeb34b 0eb22d6b 0ea5a6f2 0e991fe2     K...k-..........
    a0dc:	0e8c983a 0e800ffc 0e738728 0e66fdbf     :.......(.s...f.
    a0ec:	0e5a73c0 0e4de92d 0e415e06 0e34d24b     .sZ.-.M..^A.K.4.
    a0fc:	0e2845fd 0e1bb91d 0e0f2baa 0e029da7     .E(......+......
    a10c:	0df60f12 0de97fed 0ddcf037 0dd05ff3     ........7...._..
    a11c:	0dc3cf1f 0db73dbd 0daaabcd 0d9e194f     .....=......O...
    a12c:	0d918645 0d84f2ae 0d785e8b 0d6bc9dd     E........^x...k.
    a13c:	0d5f34a4 0d529ee1 0d460893 0d3971bd     .4_...R...F..q9.
    a14c:	0d2cda5d 0d204275 0d13aa05 0d07110e     ].,.uB .........
    a15c:	0cfa7790 0ceddd8c 0ce14302 0cd4a7f3     .w.......C......
    a16c:	0cc80c5f 0cbb7046 0caed3aa 0ca2368b     _...Fp.......6..
    a17c:	0c9598e9 0c88fac4 0c7c5c1e 0c6fbcf7     .........\|...o.
    a18c:	0c631d4f 0c567d27 0c49dc7f 0c3d3b58     O.c.'}V...I.X;=.
    a19c:	0c3099b2 0c23f78e 0c1754ec 0c0ab1ce     ..0...#..T......
    a1ac:	0bfe0e33 0bf16a1b 0be4c588 0bd8207a     3....j......z ..
    a1bc:	0bcb7af1 0bbed4ef 0bb22e72 0ba5877d     .z......r...}...
    a1cc:	0b98e00f 0b8c3829 0b7f8fcc 0b72e6f8     ....)8........r.
    a1dc:	0b663dad 0b5993ec 0b4ce9b6 0b403f0a     .=f...Y...L..?@.
    a1ec:	0b3393eb 0b26e857 0b1a3c50 0b0d8fd6     ..3.W.&.P<......
    a1fc:	0b00e2ea 0af4358c 0ae787bc 0adad97c     .....5......|...
    a20c:	0ace2acb 0ac17baa 0ab4cc1a 0aa81c1c     .*...{..........
    a21c:	0a9b6baf 0a8ebad4 0a82098c 0a7557d7     .k...........Wu.
    a22c:	0a68a5b6 0a5bf32a 0a4f4032 0a428ccf     ..h.*.[.2@O...B.
    a23c:	0a35d902 0a2924cc 0a1c702c 0a0fbb24     ..5..$).,p..$...
    a24c:	0a0305b4 09f64fdc 09e9999d 09dce2f7     .....O..........
    a25c:	09d02beb 09c3747a 09b6bca4 09aa0469     .+..zt......i...
    a26c:	099d4bca 099092c8 0983d962 09771f9b     .K......b.....w.
    a27c:	096a6571 095daae6 0950eff9 094434ad     qej...]...P..4D.
    a28c:	09377900 092abcf4 091e008a 091143c1     .y7...*......C..
    a29c:	0904869a 08f7c916 08eb0b35 08de4cf7     ........5....L..
    a2ac:	08d18e5e 08c4cf6a 08b8101b 08ab5071     ^...j.......qP..
    a2bc:	089e906e 0891d012 08850f5d 08784e50     n.......]...PNx.
    a2cc:	086b8ceb 085ecb2f 0852091c 084546b4     ..k./.^...R..FE.
    a2dc:	083883f5 082bc0e2 081efd7a 081239be     ..8...+.z....9..
    a2ec:	080575af 07f8b14c 07ebec97 07df2790     .u..L........'..
    a2fc:	07d26238 07c59c8f 07b8d695 07ac104b     8b..........K...
    a30c:	079f49b2 079282ca 0785bb94 0778f40f     .I............x.
    a31c:	076c2c3e 075f641f 07529bb5 0745d2fe     >,l..d_...R...E.
    a32c:	073909fd 072c40b0 071f7719 0712ad39     ..9..@,..w..9...
    a33c:	0705e30f 06f9189d 06ec4de3 06df82e0     .........M......
    a34c:	06d2b797 06c5ec07 06b92031 06ac5416     ........1 ...T..
    a35c:	069f87b5 0692bb10 0685ee27 067920fa     ........'.... y.
    a36c:	066c538b 065f85d9 0652b7e5 0645e9af     .Sl..._...R...E.
    a37c:	06391b39 062c4c82 061f7d8b 0612ae55     9.9..L,..}..U...
    a38c:	0605dee0 05f90f2d 05ec3f3c 05df6f0d     ....-...<?...o..
    a39c:	05d29ea2 05c5cdfb 05b8fd18 05ac2bf9     .............+..
    a3ac:	059f5aa0 0592890d 0585b740 0578e53a     .Z......@...:.x.
    a3bc:	056c12fb 055f4084 05526dd6 05459af0     ..l..@_..mR...E.
    a3cc:	0538c7d4 052bf482 051f20fa 05124d3e     ..8...+.. ..>M..
    a3dc:	0505794d 04f8a527 04ebd0cf 04defc43     My..'.......C...
    a3ec:	04d22786 04c55296 04b87d75 04aba823     .'...R..u}..#...
    a3fc:	049ed2a0 0491fcee 0485270d 047850fc     .........'...Px.
    a40c:	046b7abe 045ea452 0451cdb8 0444f6f2     .zk.R.^...Q...D.
    a41c:	04382000 042b48e2 041e7199 04119a25     . 8..H+..q..%...
    a42c:	0404c287 03f7eabf 03eb12cf 03de3ab6     .............:..
    a43c:	03d16275 03c48a0c 03b7b17c 03aad8c6     ub......|.......
    a44c:	039dffea 039126e9 03844dc2 03777478     .....&...M..xtw.
    a45c:	036a9b09 035dc177 0350e7c2 03440deb     ..j.w.]...P...D.
    a46c:	033733f2 032a59d8 031d7f9d 0310a541     .37..Y*.....A...
    a47c:	0303cac6 02f6f02c 02ea1573 02dd3a9c     ....,...s....:..
    a48c:	02d05fa8 02c38496 02b6a967 02a9ce1d     ._......g.......
    a49c:	029cf2b7 02901736 02833b9a 02765fe5     ....6....;..._v.
    a4ac:	02698415 025ca82d 024fcc2d 0242f015     ..i.-.\.-.O...B.
    a4bc:	023613e5 0229379e 021c5b41 020f7ece     ..6..7).A[...~..
    a4cc:	0202a246 01f5c5a9 01e8e8f7 01dc0c32     F...........2...
    a4dc:	01cf2f5a 01c2526f 01b57572 01a89863     Z/..oR..ru..c...
    a4ec:	019bbb43 018ede12 018200d1 01752380     C............#u.
    a4fc:	01684621 015b68b3 014e8b36 0141adad     !Fh..h[.6.N...A.
    a50c:	0134d016 0127f273 011b14c4 010e3709     ..4.s.'......7..
    a51c:	01015944 00f47b74 00e79d9a 00dabfb7     DY..t{..........
    a52c:	00cde1cb 00c103d6 00b425da 00a747d7     .........%...G..
    a53c:	009a69cc 008d8bbc 0080ada6 0073cf8b     .i............s.
    a54c:	0066f16a 005a1346 004d351e 004056f3     j.f.F.Z..5M..V@.
    a55c:	003378c6 00269a96 0019bc65 000cde33     .x3...&.e...3...
    a56c:	00000000 fff321cd ffe6439b ffd9656a     .....!...C..je..
    a57c:	ffcc873a ffbfa90d ffb2cae2 ffa5ecba     :...............
    a58c:	ff990e96 ff8c3075 ff7f525a ff727444     ....u0..ZR..Dtr.
    a59c:	ff659634 ff58b829 ff4bda26 ff3efc2a     4.e.).X.&.K.*.>.
    a5ac:	ff321e35 ff254049 ff186266 ff0b848c     5.2.I@%.fb......
    a5bc:	fefea6bc fef1c8f7 fee4eb3c fed80d8d     ........<.......
    a5cc:	fecb2fea febe5253 feb174ca fea4974d     ./..SR...t..M...
    a5dc:	fe97b9df fe8adc80 fe7dff2f fe7121ee     ......../.}..!q.
    a5ec:	fe6444bd fe57679d fe4a8a8e fe3dad91     .Dd..gW...J...=.
    a5fc:	fe30d0a6 fe23f3ce fe171709 fe0a3a57     ..0...#.....W:..
    a60c:	fdfd5dba fdf08132 fde3a4bf fdd6c862     .]..2.......b...
    a61c:	fdc9ec1b fdbd0feb fdb033d3 fda357d3     .........3...W..
    a62c:	fd967beb fd89a01b fd7cc466 fd6fe8ca     .{......f.|...o.
    a63c:	fd630d49 fd5631e3 fd495699 fd3c7b6a     I.c..1V..VI.j{<.
    a64c:	fd2fa058 fd22c564 fd15ea8d fd090fd4     X./.d.".........
    a65c:	fcfc353a fcef5abf fce28063 fcd5a628     :5...Z..c...(...
    a66c:	fcc8cc0e fcbbf215 fcaf183e fca23e89     ........>....>..
    a67c:	fc9564f7 fc888b88 fc7bb23e fc6ed917     .d......>.{...n.
    a68c:	fc620016 fc55273a fc484e84 fc3b75f4     ..b.:'U..NH..u;.
    a69c:	fc2e9d8b fc21c54a fc14ed31 fc081541     ....J.!.1...A...
    a6ac:	fbfb3d79 fbee65db fbe18e67 fbd4b71e     y=...e..g.......
    a6bc:	fbc7e000 fbbb090e fbae3248 fba15bae     ........H2...[..
    a6cc:	fb948542 fb87af04 fb7ad8f3 fb6e0312     B.........z...n.
    a6dc:	fb612d60 fb5457dd fb47828b fb3aad6a     `-a..WT...G.j.:.
    a6ec:	fb2dd87a fb2103bd fb142f31 fb075ad9     z.-...!.1/...Z..
    a6fc:	fafa86b3 faedb2c2 fae0df06 fad40b7e     ............~...
    a70c:	fac7382c faba6510 faad922a faa0bf7c     ,8...e..*...|...
    a71c:	fa93ed05 fa871ac6 fa7a48c0 fa6d76f3     .........Hz..vm.
    a72c:	fa60a560 fa53d407 fa4702e8 fa3a3205     `.`...S...G..2:.
    a73c:	fa2d615e fa2090f3 fa13c0c4 fa06f0d3     ^a-... .........
    a74c:	f9fa2120 f9ed51ab f9e08275 f9d3b37e      !...Q..u...~...
    a75c:	f9c6e4c7 f9ba1651 f9ad481b f9a07a27     ....Q....H..'z..
    a76c:	f993ac75 f986df06 f97a11d9 f96d44f0     u.........z..Dm.
    a77c:	f960784b f953abea f946dfcf f93a13f9     Kx`...S...F...:.
    a78c:	f92d4869 f9207d20 f913b21d f906e763     iH-. } .....c...
    a79c:	f8fa1cf1 f8ed52c7 f8e088e7 f8d3bf50     .....R......P...
    a7ac:	f8c6f603 f8ba2d02 f8ad644b f8a09be1     .....-..Kd......
    a7bc:	f893d3c2 f8870bf1 f87a446c f86d7d36     ........lDz.6}m.
    a7cc:	f860b64e f853efb5 f847296b f83a6371     N.`...S.k)G.qc:.
    a7dc:	f82d9dc8 f820d870 f8141369 f8074eb4     ..-.p. .i....N..
    a7ec:	f7fa8a51 f7edc642 f7e10286 f7d43f1e     Q...B........?..
    a7fc:	f7c77c0b f7bab94c f7adf6e4 f7a134d1     .|..L........4..
    a80c:	f7947315 f787b1b0 f77af0a3 f76e2fee     .s........z../n.
    a81c:	f7616f92 f754af8f f747efe5 f73b3096     .oa...T...G..0;.
    a82c:	f72e71a2 f721b309 f714f4cb f70836ea     .q....!......6..
    a83c:	f6fb7966 f6eebc3f f6e1ff76 f6d5430c     fy..?...v....C..
    a84c:	f6c88700 f6bbcb53 f6af1007 f6a2551a     ....S........U..
    a85c:	f6959a8f f688e065 f67c269e f66f6d38     ....e....&|.8mo.
    a86c:	f662b436 f655fb97 f649435c f63c8b86     6.b...U.\CI...<.
    a87c:	f62fd415 f6231d09 f6166663 f609b024     ../...#.cf..$...
    a88c:	f5fcfa4c f5f044dc f5e38fd4 f5d6db34     L....D......4...
    a89c:	f5ca26fe f5bd7331 f5b0bfce f5a40cd6     .&..1s..........
    a8ac:	f5975a4a f58aa829 f57df674 f571452c     JZ..)...t.}.,Eq.
    a8bc:	f5649451 f557e3e4 f54b33e6 f53e8456     Q.d...W..3K.V.>.
    a8cc:	f531d535 f5252684 f5187844 f50bca74     5.1..&%.Dx..t...
    a8dc:	f4ff1d16 f4f2702a f4e5c3b0 f4d917a9     ....*p..........
    a8ec:	f4cc6c15 f4bfc0f6 f4b3164a f4a66c14     .l......J....l..
    a8fc:	f499c253 f48d1908 f4807034 f473c7d7     S.......4p....s.
    a90c:	f4671ff1 f45a7883 f44dd18e f4412b11     ..g..xZ...M..+A.
    a91c:	f434850f f427df86 f41b3a78 f40e95e5     ..4...'.x:......
    a92c:	f401f1cd f3f54e32 f3e8ab14 f3dc0872     ....2N......r...
    a93c:	f3cf664e f3c2c4a8 f3b62381 f3a982d9     Nf.......#......
    a94c:	f39ce2b1 f3904309 f383a3e2 f377053c     .....C......<.w.
    a95c:	f36a6717 f35dc975 f3512c56 f3448fba     .gj.u.].V,Q...D.
    a96c:	f337f3a1 f32b580d f31ebcfe f3122274     ..7..X+.....t"..
    a97c:	f3058870 f2f8eef2 f2ec55fb f2dfbd8b     p........U......
    a98c:	f2d325a3 f2c68e43 f2b9f76d f2ad611f     .%..C...m....a..
    a99c:	f2a0cb5c f2943623 f287a175 f27b0d52     \...#6..u...R.{.
    a9ac:	f26e79bb f261e6b1 f2555433 f248c243     .yn...a.3TU.C.H.
    a9bc:	f23c30e1 f22fa00d f2230fc9 f2168013     .0<.../...#.....
    a9cc:	f209f0ee f1fd6259 f1f0d456 f1e446e3     ....Yb..V....F..
    a9dc:	f1d7ba03 f1cb2db5 f1bea1fa f1b216d3     .....-..........
    a9ec:	f1a58c40 f1990241 f18c78d8 f17ff004     @...A....x......
    a9fc:	f17367c6 f166e01e f15a590e f14dd295     .gs...f..YZ...M.
    aa0c:	f1414cb5 f134c76d f12842be f11bbea8     .LA.m.4..B(.....
    aa1c:	f10f3b2d f102b84d f0f63607 f0e9b45d     -;..M....6..]...
    aa2c:	f0dd3350 f0d0b2de f0c4330b f0b7b3d4     P3.......3......
    aa3c:	f0ab353c f09eb743 f09239e8 f085bd2e     <5..C....9......
    aa4c:	f0794113 f06cc59a f0604ac1 f053d08a     .Ay...l..J`...S.
    aa5c:	f04756f6 f03ade04 f02e65b5 f021ee0a     .VG...:..e....!.
    aa6c:	f0157703 f00900a1 effc8ae4 eff015cd     .w..............
    aa7c:	efe3a15c efd72d92 efcaba6f efbe47f3     \....-..o....G..
    aa8c:	efb1d620 efa564f6 ef98f475 ef8c849e      ....d..u.......
    aa9c:	ef801571 ef73a6ee ef673917 ef5acbec     q.....s..9g...Z.
    aaac:	ef4e5f6d ef41f39b ef358876 ef291dff     m_N...A.v.5...).
    aabc:	ef1cb436 ef104b1c ef03e2b1 eef77af6     6....K.......z..
    aacc:	eeeb13eb eedead91 eed247e8 eec5e2f1     .........G......
    aadc:	eeb97ead eead1b1b eea0b83c ee945611     .~......<....V..
    aaec:	ee87f49b ee7b93d9 ee6f33cd ee62d476     ......{..3o.v.b.
    aafc:	ee5675d6 ee4a17ec ee3dbaba ee315e3f     .uV...J...=.?^1.
    ab0c:	ee25027d ee18a773 ee0c4d23 edfff38d     }.%.s...#M......
    ab1c:	edf39ab1 ede7428f eddaeb29 edce947f     .....B..).......
    ab2c:	edc23e91 edb5e960 eda994ec ed9d4136     .>..`.......6A..
    ab3c:	ed90ee3e ed849c05 ed784a8b ed6bf9d1     >........Jx...k.
    ab4c:	ed5fa9d7 ed535a9e ed470c27 ed3abe71     .._..ZS.'.G.q.:.
    ab5c:	ed2e717d ed22254c ed15d9de ed098f34     }q..L%".....4...
    ab6c:	ecfd454e ecf0fc2d ece4b3d2 ecd86c3c     NE..-.......<l..
    ab7c:	eccc256c ecbfdf63 ecb39a21 eca755a7     l%..c...!....U..
    ab8c:	ec9b11f5 ec8ecf0c ec828cec ec764b95     .............Kv.
    ab9c:	ec6a0b09 ec5dcb48 ec518c52 ec454e27     ..j.H.].R.Q.'NE.
    abac:	ec3910c9 ec2cd437 ec209873 ec145d7c     ..9.7.,.s. .|]..
    abbc:	ec082353 ebfbe9f9 ebefb16e ebe379b3     S#......n....y..
    abcc:	ebd742c8 ebcb0cad ebbed764 ebb2a2ec     .B......d.......
    abdc:	eba66f47 eb9a3c74 eb8e0a74 eb81d947     Go..t<..t...G...
    abec:	eb75a8ef eb69796b eb5d4abd eb511ce4     ..u.kyi..J]...Q.
    abfc:	eb44efe1 eb38c3b4 eb2c985f eb206de1     ..D...8._.,..m .
    ac0c:	eb14443b eb081b6d eafbf379 eaefcc5e     ;D..m...y...^...
    ac1c:	eae3a61d ead780b7 eacb5c2b eabf387b     ........+\..{8..
    ac2c:	eab315a7 eaa6f3b0 ea9ad295 ea8eb258     ............X...
    ac3c:	ea8292f8 ea767477 ea6a56d5 ea5e3a12     ....wtv..Vj..:^.
    ac4c:	ea521e30 ea46032d ea39e90c ea2dcfcb     0.R.-.F...9...-.
    ac5c:	ea21b76d ea159ff1 ea098957 e9fd73a1     m.!.....W....s..
    ac6c:	e9f15ecf e9e54ae1 e9d937d8 e9cd25b4     .^...J...7...%..
    ac7c:	e9c11476 e9b5041e e9a8f4ac e99ce622     v..........."...
    ac8c:	e990d880 e984cbc5 e978bff4 e96cb50b     ..........x...l.
    ac9c:	e960ab0d e954a1f8 e94899ce e93c928f     ..`...T...H...<.
    acac:	e9308c3b e92486d4 e9188259 e90c7ecb     ;.0...$.Y....~..
    acbc:	e9007c2b e8f47a79 e8e879b5 e8dc79e0     +|..yz...y...y..
    accc:	e8d07afb e8c47d06 e8b88001 e8ac83ed     .z...}..........
    acdc:	e8a088ca e8948e99 e888955b e87c9d0f     ........[.....|.
    acec:	e870a5b7 e864af53 e858b9e3 e84cc568     ..p.S.d...X.h.L.
    acfc:	e840d1e2 e834df52 e828edb8 e81cfd14     ..@.R.4...(.....
    ad0c:	e8110d68 e8051eb4 e7f930f8 e7ed4434     h........0..4D..
    ad1c:	e7e1586a e7d56d99 e7c983c2 e7bd9ae6     jX...m..........
    ad2c:	e7b1b305 e7a5cc20 e799e636 e78e0149     .... ...6...I...
    ad3c:	e7821d59 e7763a67 e76a5872 e75e777c     Y...g:v.rXj.|w^.
    ad4c:	e7529785 e746b88d e73ada95 e72efd9d     ..R...F...:.....
    ad5c:	e72321a7 e71746b1 e70b6cbd e6ff93cc     .!#..F...l......
    ad6c:	e6f3bbdd e6e7e4f2 e6dc0f0a e6d03a26     ............&:..
    ad7c:	e6c46647 e6b8936d e6acc199 e6a0f0cb     Gf..m...........
    ad8c:	e6952104 e6895243 e67d848a e671b7d9     .!..CR....}...q.
    ad9c:	e665ec31 e65a2191 e64e57fb e6428f6f     1.e..!Z..WN.o.B.
    adac:	e636c7ed e62b0176 e61f3c0a e61377aa     ..6.v.+..<...w..
    adbc:	e607b457 e5fbf210 e5f030d7 e5e470ab     W........0...p..
    adcc:	e5d8b18d e5ccf37e e5c1367e e5b57a8e     ....~...~6...z..
    addc:	e5a9bfae e59e05de e5924d20 e5869573     ........ M..s...
    adec:	e57aded8 e56f294f e56374da e557c177     ..z.O)o..tc.w.W.
    adfc:	e54c0f29 e5405def e534adca e528feba     ).L..]@...4...(.
    ae0c:	e51d50c0 e511a3dc e505f80f e4fa4d59     .P..........YM..
    ae1c:	e4eea3ba e4e2fb34 e4d753c6 e4cbad72     ....4....S..r...
    ae2c:	e4c00837 e4b46416 e4a8c10f e49d1f24     7....d......$...
    ae3c:	e4917e54 e485de9f e47a4007 e46ea28c     T~.......@z...n.
    ae4c:	e463062f e4576aef e44bd0cd e44037ca     /.c..jW...K..7@.
    ae5c:	e4349fe6 e4290922 e41d737d e411defa     ..4.".).}s......
    ae6c:	e4064b97 e3fab956 e3ef2837 e3e3983b     .K..V...7(..;...
    ae7c:	e3d80961 e3cc7bab e3c0ef19 e3b563ab     a....{.......c..
    ae8c:	e3a9d961 e39e503d e392c83f e3874167     a...=P..?...gA..
    ae9c:	e37bbbb6 e370372b e364b3c9 e359318e     ..{.+7p...d..1Y.
    aeac:	e34db07c e3423093 e336b1d3 e32b343d     |.M..0B...6.=4+.
    aebc:	e31fb7d2 e3143c91 e308c27c e2fd4992     .....<..|....I..
    aecc:	e2f1d1d5 e2e65b44 e2dae5e1 e2cf71ab     ....D[.......q..
    aedc:	e2c3fea3 e2b88cca e2ad1c20 e2a1aca5     ........ .......
    aeec:	e2963e5a e28ad140 e27f6556 e273fa9e     Z>..@...Ve....s.
    aefc:	e2689118 e25d28c3 e251c1a2 e2465bb4     ..h..(]...Q..[F.
    af0c:	e23af6f9 e22f9372 e2243120 e218d003     ..:.r./. 1$.....
    af1c:	e20d701c e202116a e1f6b3ef e1eb57aa     .p..j........W..
    af2c:	e1dffc9d e1d4a2c8 e1c94a2b e1bdf2c6     ........+J......
    af3c:	e1b29c9b e1a747a9 e19bf3f2 e190a175     .....G......u...
    af4c:	e1855033 e17a002c e16eb161 e16363d3     3P..,.z.a.n..cc.
    af5c:	e1581781 e14ccc6c e1418296 e13639fd     ..X.l.L...A..96.
    af6c:	e12af2a3 e11fac88 e11467ad e1092412     ..*......g...$..
    af7c:	e0fde1b7 e0f2a09d e0e760c5 e0dc222e     .........`..."..
    af8c:	e0d0e4d9 e0c5a8c7 e0ba6df9 e0af346e     .........m..n4..
    af9c:	e0a3fc27 e098c525 e08d8f67 e0825af0     '...%...g....Z..
    afac:	e07727be e06bf5d2 e060c52d e05595d0     .'w...k.-.`...U.
    afbc:	e04a67ba e03f3aec e0340f67 e028e52b     .gJ..:?.g.4.+.(.
    afcc:	e01dbc38 e0129490 e0076e32 dffc491e     8.......2n...I..
    afdc:	dff12556 dfe602da dfdae1aa dfcfc1c7     V%..............
    afec:	dfc4a331 dfb985e8 dfae69ee dfa34f42     1........i..BO..
    affc:	df9835e4 df8d1dd7 df820719 df76f1ab     .5............v.
    b00c:	df6bdd8e df60cac2 df55b948 df4aa91f     ..k...`.H.U...J.
    b01c:	df3f9a4a df348cc7 df298097 df1e75bc     J.?...4...)..u..
    b02c:	df136c35 df086402 defd5d25 def2579d     5l...d..%]...W..
    b03c:	dee7536b dedc5090 ded14f0c dec64edf     kS...P...O...N..
    b04c:	debb500a deb0528e dea5566a de9a5b9f     .P...R..jV...[..
    b05c:	de8f622e de846a17 de79735b de6e7df9     .b...j..[sy..}n.
    b06c:	de6389f3 de589749 de4da5fb de42b609     ..c.I.X...M...B.
    b07c:	de37c775 de2cda3f de21ee66 de1703ec     u.7.?.,.f.!.....
    b08c:	de0c1ad1 de013316 ddf64cba ddeb67be     .....3...L...g..
    b09c:	dde08423 ddd5a1ea ddcac112 ddbfe19b     #...............
    b0ac:	ddb50388 ddaa26d7 dd9f4b8a dd9471a0     .....&...K...q..
    b0bc:	dd89991b dd7ec1fa dd73ec3e dd6917e8     ......~.>.s...i.
    b0cc:	dd5e44f8 dd53736e dd48a34b dd3dd48f     .D^.nsS.K.H...=.
    b0dc:	dd33073b dd283b50 dd1d70cc dd12a7b2     ;.3.P;(..p......
    b0ec:	dd07e002 dcfd19bb dcf254de dce7916c     .........T..l...
    b0fc:	dcdccf66 dcd20ecb dcc74f9c dcbc91da     f........O......
    b10c:	dcb1d585 dca71a9d dc9c6123 dc91a917     ........#a......
    b11c:	dc86f279 dc7c3d4b dc71898d dc66d73e     y...K=|...q.>.f.
    b12c:	dc5c2660 dc5176f2 dc46c8f6 dc3c1c6c     `&\..vQ...F.l.<.
    b13c:	dc317154 dc26c7ae dc1c1f7b dc1178bc     Tq1...&.{....x..
    b14c:	dc06d371 dbfc2f9a dbf18d37 dbe6ec4a     q..../..7...J...
    b15c:	dbdc4cd2 dbd1aed1 dbc71245 dbbc7731     .L......E...1w..
    b16c:	dbb1dd94 dba7456f db9caec1 db92198d     ....oE..........
    b17c:	db8785d1 db7cf38f db7262c7 db67d379     ......|..br.y.g.
    b18c:	db5d45a5 db52b94d db482e71 db3da510     .E].M.R.q.H...=.
    b19c:	db331d2c db2896c5 db1e11db db138e6e     ,.3...(.....n...
    b1ac:	db090c80 dafe8c10 daf40d20 dae98fae     ........ .......
    b1bc:	dadf13bd dad4994c daca205b dabfa8eb     ....L...[ ......
    b1cc:	dab532fe daaabe92 daa04ba8 da95da41     .2.......K..A...
    b1dc:	da8b6a5d da80fbfd da768f21 da6c23ca     ]j......!.v..#l.
    b1ec:	da61b9f7 da5751aa da4ceae2 da4285a1     ..a..QW...L...B.
    b1fc:	da3821e6 da2dbfb2 da235f06 da18ffe1     .!8...-.._#.....
    b20c:	da0ea245 da044631 d9f9eba6 d9ef92a5     E...1F..........
    b21c:	d9e53b2e d9dae541 d9d090df d9c63e08     .;..A........>..
    b22c:	d9bbecbd d9b19cfe d9a74ecb d99d0225     .........N..%...
    b23c:	d992b70c d9886d81 d97e2584 d973df16     .....m...%~...s.
    b24c:	d9699a36 d95f56e6 d9551526 d94ad4f5     6.i..V_.&.U...J.
    b25c:	d9409656 d9365947 d92c1dca d921e3de     V.@.GY6...,...!.
    b26c:	d917ab85 d90d74bf d9033f8b d8f90beb     .....t...?......
    b27c:	d8eed9df d8e4a968 d8da7a85 d8d04d37     ....h....z..7M..
    b28c:	d8c6217e d8bbf75c d8b1ced0 d8a7a7db     ~!..\...........
    b29c:	d89d827c d8935eb6 d8893c87 d87f1bf1     |....^...<......
    b2ac:	d874fcf4 d86adf90 d860c3c6 d856a995     ..t...j...`...V.
    b2bc:	d84c90ff d8427a04 d83864a5 d82e50e1     ..L..zB..d8..P..
    b2cc:	d8243eb9 d81a2e2d d8101f3f d80611ed     .>$.-...?.......
    b2dc:	d7fc063a d7f1fc24 d7e7f3ad d7ddecd5     :...$...........
    b2ec:	d7d3e79d d7c9e404 d7bfe20b d7b5e1b3     ................
    b2fc:	d7abe2fc d7a1e5e6 d797ea72 d78df0a0     ........r.......
    b30c:	d783f871 d77a01e4 d7700cfb d76619b6     q.....z...p...f.
    b31c:	d75c2815 d7523818 d74849c1 d73e5d0f     .(\..8R..IH..]>.
    b32c:	d7347203 d72a889c d720a0dd d716bac4     .r4...*... .....
    b33c:	d70cd653 d702f38a d6f91269 d6ef32f0     S.......i....2..
    b34c:	d6e55521 d6db78fb d6d19e7e d6c7c5ac     !U...x..~.......
    b35c:	d6bdee84 d6b41908 d6aa4536 d6a07311     ........6E...s..
    b36c:	d696a298 d68cd3cb d68306ab d6793b39     ............9;y.
    b37c:	d66f7174 d665a95d d65be2f6 d6521e3d     tqo.].e...[.=.R.
    b38c:	d6485b33 d63e99d9 d634da2f d62b1c36     3[H...>./.4.6.+.
    b39c:	d6215fed d617a556 d60dec71 d604353e     ._!.V...q...>5..
    b3ac:	d5fa7fbd d5f0cbef d5e719d5 d5dd696e     ............ni..
    b3bc:	d5d3babb d5ca0dbc d5c06273 d5b6b8de     ........sb......
    b3cc:	d5ad10ff d5a36ad7 d599c664 d59023a9     .....j..d....#..
    b3dc:	d58682a5 d57ce358 d57345c3 d569a9e6     ....X.|..Es...i.
    b3ec:	d5600fc3 d5567758 d54ce0a7 d5434bb0     ..`.XwV...L..KC.
    b3fc:	d539b873 d53026f1 d5269729 d51d091e     s.9..&0.).&.....
    b40c:	d5137cce d509f23a d5006963 d4f6e249     .|..:...ci..I...
    b41c:	d4ed5cec d4e3d94d d4da576c d4d0d74a     .\..M...lW..J...
    b42c:	d4c758e7 d4bddc43 d4b4615e d4aae83a     .X..C...^a..:...
    b43c:	d4a170d6 d497fb33 d48e8751 d4851531     .p..3...Q...1...
    b44c:	d47ba4d3 d4723637 d468c95e d45f5e48     ..{.76r.^.h.H^_.
    b45c:	d455f4f5 d44c8d67 d443279c d439c397     ..U.g.L..'C...9.
    b46c:	d4306156 d42700db d41da225 d4144536     Va0...'.%...6E..
    b47c:	d40aea0d d40190ab d3f83910 d3eee33d     .........9..=...
    b48c:	d3e58f32 d3dc3cf0 d3d2ec76 d3c99dc6     2....<..v.......
    b49c:	d3c050df d3b705c2 d3adbc6f d3a474e7     .P......o....t..
    b4ac:	d39b2f2a d391eb39 d388a913 d37f68b9     */..9........h..
    b4bc:	d3762a2c d36ced6c d363b27a d35a7955     ,*v.l.l.z.c.UyZ.
    b4cc:	d35141fe d3480c75 d33ed8bb d335a6d1     .AQ.u.H...>...5.
    b4dc:	d32c76b5 d323486a d31a1bef d310f145     .v,.jH#.....E...
    b4ec:	d307c86c d2fea164 d2f57c2e d2ec58ca     l...d....|...X..
    b4fc:	d2e33738 d2da177a d2d0f98f d2c7dd77     87..z.......w...
    b50c:	d2bec333 d2b5aac4 d2ac9429 d2a37f63     3.......)...c...
    b51c:	d29a6c73 d2915b59 d2884c14 d27f3ea7     sl..Y[...L...>..
    b52c:	d2763310 d26d2951 d2642169 d25b1b59     .3v.Q)m.i!d.Y.[.
    b53c:	d2521722 d24914c3 d240143d d2371591     ".R...I.=.@...7.
    b54c:	d22e18bf d2251dc7 d21c24a9 d2132d67     ......%..$..g-..
    b55c:	d20a37ff d2014473 d1f852c4 d1ef62f0     .7..sD...R...b..
    b56c:	d1e674fa d1dd88e0 d1d49ea4 d1cbb646     .t..........F...
    b57c:	d1c2cfc6 d1b9eb24 d1b10862 d1a8277e     ....$...b...~'..
    b58c:	d19f487a d1966b56 d18d9013 d184b6b0     zH..Vk..........
    b59c:	d17bdf2e d173098e d16a35cf d16163f2     ..{...s..5j..ca.
    b5ac:	d15893f8 d14fc5e1 d146f9ad d13e2f5c     ..X...O...F.\/>.
    b5bc:	d13566f0 d12ca067 d123dbc4 d11b1905     .f5.g.,...#.....
    b5cc:	d112582b d1099937 d100dc29 d0f82102     +X..7...)....!..
    b5dc:	d0ef67c1 d0e6b067 d0ddfaf5 d0d5476b     .g..g.......kG..
    b5ec:	d0cc95c8 d0c3e60e d0bb383d d0b28c55     ........=8..U...
    b5fc:	d0a9e257 d0a13a43 d0989418 d08fefd9     W...C:..........
    b60c:	d0874d84 d07ead1b d0760e9d d06d720b     .M....~...v..rm.
    b61c:	d064d766 d05c3ead d053a7e1 d04b1303     f.d..>\...S...K.
    b62c:	d0428012 d039ef0f d0315ffb d028d2d6     ..B...9.._1...(.
    b63c:	d020479f d017be58 d00f3701 d006b19a     .G .X....7......
    b64c:	cffe2e24 cff5ac9e cfed2d0a cfe4af67     $........-..g...
    b65c:	cfdc33b6 cfd3b9f7 cfcb422a cfc2cc51     .3......*B..Q...
    b66c:	cfba586b cfb1e678 cfa97679 cfa1086f     kX..x...yv..o...
    b67c:	cf989c59 cf903238 cf87ca0c cf7f63d6     Y...82.......c..
    b68c:	cf76ff96 cf6e9d4c cf663cf9 cf5dde9c     ..v.L.n..<f...].
    b69c:	cf558238 cf4d27ca cf44cf55 cf3c78d8     8.U..'M.U.D..x<.
    b6ac:	cf342454 cf2bd1c8 cf238136 cf1b329e     T$4...+.6.#..2..
    b6bc:	cf12e5ff cf0a9b5b cf0252b2 cefa0c04     ....[....R......
    b6cc:	cef1c751 cee98499 cee143de ced9051f     Q........C......
    b6dc:	ced0c85d cec88d98 cec054d0 ceb81e06     ]........T......
    b6ec:	ceafe939 cea7b66b ce9f859c ce9756cc     9...k........V..
    b6fc:	ce8f29fb ce86ff2a ce7ed659 ce76af88     .)..*...Y.~...v.
    b70c:	ce6e8ab7 ce6667e8 ce5e471a ce56284e     ..n..gf..G^.N(V.
    b71c:	ce4e0b84 ce45f0bc ce3dd7f6 ce35c134     ..N...E...=.4.5.
    b72c:	ce2dac74 ce2599b9 ce1d8901 ce157a4e     t.-...%.....Nz..
    b73c:	ce0d6d9f ce0562f5 cdfd5a50 cdf553b1     .m...b..PZ...S..
    b74c:	cded4f18 cde54c85 cddd4bf8 cdd54d73     .O...L...K..sM..
    b75c:	cdcd50f4 cdc5567d cdbd5e0e cdb567a7     .P..}V...^...g..
    b76c:	cdad7349 cda580f3 cd9d90a6 cd95a263     Is..........c...
    b77c:	cd8db62a cd85cbfa cd7de3d5 cd75fdbb     *.........}...u.
    b78c:	cd6e19ac cd6637a8 cd5e57b0 cd5679c3     ..n..7f..W^..yV.
    b79c:	cd4e9de3 cd46c410 cd3eec4a cd371691     ..N...F.J.>...7.
    b7ac:	cd2f42e5 cd277147 cd1fa1b8 cd17d437     .B/.Gq'.....7...
    b7bc:	cd1008c5 cd083f62 cd00780f ccf8b2cb     ....b?...x......
    b7cc:	ccf0ef97 cce92e74 cce16f62 ccd9b260     ....t...bo..`...
    b7dc:	ccd1f770 ccca3e92 ccc287c5 ccbad30b     p....>..........
    b7ec:	ccb32064 ccab6fcf cca3c14e cc9c14e0     d ...o..N.......
    b7fc:	cc946a86 cc8cc240 cc851c0e cc7d77f2     .j..@........w}.
    b80c:	cc75d5ea cc6e35f8 cc66981b cc5efc55     ..u..5n...f.U.^.
    b81c:	cc5762a4 cc4fcb0b cc483588 cc40a21d     .bW...O..5H...@.
    b82c:	cc3910c9 cc31818d cc29f469 cc22695d     ..9...1.i.).]i".
    b83c:	cc1ae06b cc135991 cc0bd4d1 cc04522a     k....Y......*R..
    b84c:	cbfcd19e cbf5532b cbedd6d3 cbe65c97     ....+S.......\..
    b85c:	cbdee475 cbd76e6f cbcffa84 cbc888b6     u...on..........
    b86c:	cbc11904 cbb9ab6f cbb23ff6 cbaad69b     ....o....?......
    b87c:	cba36f5e cb9c0a3f cb94a73d cb8d465b     ^o..?...=...[F..
    b88c:	cb85e797 cb7e8af2 cb77306c cb6fd806     ......~.l0w...o.
    b89c:	cb6881c0 cb612d9b cb59db96 cb528bb2     ..h..-a...Y...R.
    b8ac:	cb4b3dee cb43f24d cb3ca8cd cb35616f     .=K.M.C...<.oa5.
    b8bc:	cb2e1c34 cb26d91b cb1f9825 cb185953     4.....&.%...SY..
    b8cc:	cb111ca4 cb09e218 cb02a9b1 cafb736e     ............ns..
    b8dc:	caf43f50 caed0d57 cae5dd83 cadeafd5     P?..W...........
    b8ec:	cad7844c cad05aea cac933ae cac20e99     L....Z...3......
    b8fc:	cabaebaa cab3cae4 caacac44 caa58fcd     ........D.......
    b90c:	ca9e757d ca975d56 ca904758 ca893383     }u..V]..XG...3..
    b91c:	ca8221d7 ca7b1255 ca7404fd ca6cf9ce     .!..U.{...t...l.
    b92c:	ca65f0cb ca5ee9f2 ca57e544 ca50e2c1     ..e...^.D.W...P.
    b93c:	ca49e26a ca42e43e ca3be83f ca34ee6c     j.I.>.B.?.;.l.4.
    b94c:	ca2df6c6 ca27014d ca200e01 ca191ce3     ..-.M.'... .....
    b95c:	ca122df3 ca0b4131 ca04569d c9fd6e37     .-..1A...V..7n..
    b96c:	c9f68801 c9efa3fa c9e8c223 c9e1e27b     ........#...{...
    b97c:	c9db0503 c9d429bc c9cd50a5 c9c679bf     .....)...P...y..
    b98c:	c9bfa50b c9b8d288 c9b20236 c9ab3417     ........6....4..
    b99c:	c9a46829 c99d9e6f c996d6e7 c9901192     )h..o...........
    b9ac:	c9894e71 c9828d83 c97bcec9 c9751244     qN........{.D.u.
    b9bc:	c96e57f3 c9679fd6 c960e9ef c95a363d     .Wn...g...`.=6Z.
    b9cc:	c95384c0 c94cd57a c9462869 c93f7d8f     ..S.z.L.i(F..}?.
    b9dc:	c938d4eb c9322e7e c92b8a49 c924e84a     ..8.~.2.I.+.J.$.
    b9ec:	c91e4884 c917aaf6 c9110f9f c90a7682     .H...........v..
    b9fc:	c903df9d c8fd4af1 c8f6b87e c8f02845     .....J..~...E(..
    ba0c:	c8e99a46 c8e30e81 c8dc84f6 c8d5fda6     F...............
    ba1c:	c8cf7891 c8c8f5b7 c8c27518 c8bbf6b5     .x.......u......
    ba2c:	c8b57a8e c8af00a3 c8a888f5 c8a21384     .z..............
    ba3c:	c89ba04f c8952f58 c88ec09e c8885422     O...X/......"T..
    ba4c:	c881e9e4 c87b81e4 c8751c23 c86eb8a1     ......{.#.u...n.
    ba5c:	c868575d c861f859 c85b9b95 c8554110     ]Wh.Y.a...[..AU.
    ba6c:	c84ee8cc c84892c8 c8423f05 c83bed82     ..N...H..?B...;.
    ba7c:	c8359e40 c82f5140 c8290682 c822be05     @.5.@Q/...)...".
    ba8c:	c81c77cb c81633d3 c80ff21e c809b2ab     .w...3..........
    ba9c:	c803757c c7fd3a90 c7f701e8 c7f0cb83     |u...:..........
    baac:	c7ea9763 c7e46587 c7de35f0 c7d8089e     c....e...5......
    babc:	c7d1dd91 c7cbb4c9 c7c58e47 c7bf6a0b     ........G....j..
    bacc:	c7b94815 c7b32866 c7ad0afd c7a6efdb     .H..f(..........
    badc:	c7a0d700 c79ac06d c794ac21 c78e9a1d     ....m...!.......
    baec:	c7888a61 c7827cee c77c71c3 c77668e1     a....|...q|..hv.
    bafc:	c7706248 c76a5df9 c7645bf3 c75e5c37     Hbp..]j..[d.7\^.
    bb0c:	c7585ec5 c752639d c74c6ac0 c746742e     .^X..cR..jL..tF.
    bb1c:	c7407fe7 c73a8deb c7349e3b c72eb0d6     ..@...:.;.4.....
    bb2c:	c728c5bd c722dcf1 c71cf671 c717123e     ..(...".q...>...
    bb3c:	c7113058 c70b50bf c7057373 c6ff9875     X0...P..ss..u...
    bb4c:	c6f9bfc6 c6f3e964 c6ee1550 c6e8438b     ....d...P....C..
    bb5c:	c6e27415 c6dca6ef c6d6dc17 c6d1138f     .t..............
    bb6c:	c6cb4d57 c6c5896f c6bfc7d7 c6ba088f     WM..o...........
    bb7c:	c6b44b99 c6ae90f3 c6a8d89e c6a3229b     .K..........."..
    bb8c:	c69d6eea c697bd8a c6920e7d c68c61c1     .n......}....a..
    bb9c:	c686b759 c6810f43 c67b6980 c675c611     Y...C....i{...u.
    bbac:	c67024f5 c66a862c c664e9b8 c65f4f98     .$p.,.j...d..O_.
    bbbc:	c659b7cc c6542255 c64e8f32 c648fe65     ..Y.U"T.2.N.e.H.
    bbcc:	c6436fed c63de3ca c63859fe c632d287     .oC...=..Y8...2.
    bbdc:	c62d4d66 c627ca9c c6224a29 c61ccc0c     fM-...'.)J".....
    bbec:	c6175046 c611d6d8 c60c5fc1 c606eb02     FP......._......
    bbfc:	c601789b c5fc088c c5f69ad6 c5f12f78     .x..........x/..
    bc0c:	c5ebc673 c5e65fc7 c5e0fb74 c5db997b     s...._..t...{...
    bc1c:	c5d639db c5d0dc96 c5cb81aa c5c62919     .9...........)..
    bc2c:	c5c0d2e3 c5bb7f07 c5b62d87 c5b0de61     .........-..a...
    bc3c:	c5ab9197 c5a64729 c5a0ff17 c59bb960     ....)G......`...
    bc4c:	c5967606 c5913509 c58bf668 c586ba24     .v...5..h...$...
    bc5c:	c581803d c57c48b4 c5771388 c571e0ba     =....H|...w...q.
    bc6c:	c56cb04a c5678238 c5625685 c55d2d30     J.l.8.g..Vb.0-].
    bc7c:	c558063a c552e1a3 c54dbf6b c5489f93     :.X...R.k.M...H.
    bc8c:	c543821a c53e6701 c5394e49 c53437f0     ..C..g>.IN9..74.
    bc9c:	c52f23f8 c52a1261 c525032b c51ff656     .#/.a.*.+.%.V...
    bcac:	c51aebe2 c515e3cf c510de1f c50bdad0     ................
    bcbc:	c506d9e3 c501db59 c4fcdf31 c4f7e56c     ....Y...1...l...
    bccc:	c4f2ee09 c4edf90a c4e9066e c4e41636     ........n...6...
    bcdc:	c4df2862 c4da3cf1 c4d553e4 c4d06d3c     b(...<...S..<m..
    bcec:	c4cb88f9 c4c6a71a c4c1c7a0 c4bcea8b     ................
    bcfc:	c4b80fdb c4b33791 c4ae61ac c4a98e2e     .....7...a......
    bd0c:	c4a4bd15 c49fee63 c49b2218 c4965832     ....c...."..2X..
    bd1c:	c49190b4 c48ccb9d c48808ed c48348a5     .............H..
    bd2c:	c47e8ac4 c479cf4b c475163a c4705f91     ..~.K.y.:.u.._p.
    bd3c:	c46bab51 c466f979 c4624a0a c45d9d04     Q.k.y.f..Jb...].
    bd4c:	c458f268 c4544a34 c44fa46a c44b010a     h.X.4JT.j.O...K.
    bd5c:	c4466014 c441c187 c43d2565 c4388bae     .`F...A.e%=...8.
    bd6c:	c433f461 c42f5f7f c42acd08 c4263cfc     a.3.._/...*..<&.
    bd7c:	c421af5c c41d2427 c4189b5e c4141501     \.!.'$..^.......
    bd8c:	c40f9110 c40b0f8c c4069074 c40213c8     ........t.......
    bd9c:	c3fd998a c3f921b8 c3f4ac54 c3f0395d     .....!..T...]9..
    bdac:	c3ebc8d3 c3e75ab8 c3e2ef0a c3de85cb     .....Z..........
    bdbc:	c3da1ef9 c3d5ba97 c3d158a3 c3ccf91d     .........X......
    bdcc:	c3c89c07 c3c44160 c3bfe928 c3bb9360     ....`A..(...`...
    bddc:	c3b74007 c3b2ef1f c3aea0a6 c3aa549e     .@...........T..
    bdec:	c3a60b06 c3a1c3df c39d7f28 c3993ce2     ........(....<..
    bdfc:	c394fd0e c390bfaa c38c84b9 c3884c38     ............8L..
    be0c:	c384162a c37fe28d c37bb163 c37782ab     *.......c.{...w.
    be1c:	c3735665 c36f2c92 c36b0532 c366e045     eVs..,o.2.k.E.f.
    be2c:	c362bdca c35e9dc4 c35a8030 c3566511     ..b...^.0.Z..eV.
    be3c:	c3524c65 c34e362d c34a2269 c3461119     eLR.-6N.i"J...F.
    be4c:	c342023e c33df5d8 c339ebe6 c335e469     >.B...=...9.i.5.
    be5c:	c331df62 c32ddccf c329dcb2 c325df0b     b.1...-...)...%.
    be6c:	c321e3d9 c31deb1e c319f4d8 c3160109     ..!.............
    be7c:	c3120fb0 c30e20ce c30a3462 c3064a6d     ..... ..b4..mJ..
    be8c:	c30262f0 c2fe7de9 c2fa9b5a c2f6bb42     .b...}..Z...B...
    be9c:	c2f2dda2 c2ef027a c2eb29ca c2e75392     ....z....)...S..
    beac:	c2e37fd2 c2dfae8b c2dbdfbc c2d81366     ............f...
    bebc:	c2d44989 c2d08225 c2ccbd3a c2c8fac9     .I..%...:.......
    becc:	c2c53ad1 c2c17d52 c2bdc24e c2ba09c4     .:..R}..N.......
    bedc:	c2b653b3 c2b2a01d c2aeef01 c2ab4060     .S..........`@..
    beec:	c2a7943a c2a3ea8e c2a0435e c29c9ea9     :.......^C......
    befc:	c298fc6f c2955cb0 c291bf6d c28e24a6     o....\..m....$..
    bf0c:	c28a8c5a c286f68b c2836338 c27fd261     Z.......8c..a...
    bf1c:	c27c4407 c278b829 c2752ec8 c271a7e4     .D|.).x...u...q.
    bf2c:	c26e237d c26aa193 c2672227 c263a538     }#n...j.'"g.8.c.
    bf3c:	c2602ac6 c25cb2d3 c2593d5d c255ca65     .*`...\.]=Y.e.U.
    bf4c:	c25259ec c24eebf1 c24b8074 c2481776     .YR...N.t.K.v.H.
    bf5c:	c244b0f6 c2414cf6 c23deb74 c23a8c71     ..D..LA.t.=.q.:.
    bf6c:	c2372fee c233d5ea c2307e66 c22d2962     ./7...3.f~0.b)-.
    bf7c:	c229d6dd c22686d8 c2233953 c21fee4f     ..)...&.S9#.O...
    bf8c:	c21ca5cb c2195fc7 c2161c44 c212db42     ....._..D...B...
    bf9c:	c20f9cc0 c20c60c0 c2092741 c205f042     .....`..A'..B...
    bfac:	c202bbc6 c1ff89cb c1fc5a51 c1f92d5a     ........QZ..Z-..
    bfbc:	c1f602e4 c1f2daf0 c1efb57f c1ec9290     ................
    bfcc:	c1e97223 c1e65439 c1e338d1 c1e01fec     #r..9T...8......
    bfdc:	c1dd098a c1d9f5ac c1d6e450 c1d3d578     ........P...x...
    bfec:	c1d0c923 c1cdbf52 c1cab804 c1c7b33a     #...R.......:...
    bffc:	c1c4b0f4 c1c1b132 c1beb3f4 c1bbb93b     ....2.......;...
    c00c:	c1b8c106 c1b5cb55 c1b2d829 c1afe782     ....U...).......
    c01c:	c1acf960 c1aa0dc3 c1a724ab c1a43e18     `........$...>..
    c02c:	c1a15a0a c19e7882 c19b997f c198bd03     .Z...x..........
    c03c:	c195e30c c1930b9b c19036af c18d644b     .........6..Kd..
    c04c:	c18a946c c187c714 c184fc42 c18233f7     l.......B....3..
    c05c:	c17f6e33 c17caaf5 c179ea3e c1772c0f     3n....|.>.y..,w.
    c06c:	c1747066 c171b745 c16f00ac c16c4c99     fpt.E.q...o..Ll.
    c07c:	c1699b0f c166ec0c c1643f91 c161959e     ..i...f..?d...a.
    c08c:	c15eee33 c15c4950 c159a6f5 c1570723     3.^.PI\...Y.#.W.
    c09c:	c15469d9 c151cf18 c14f36df c14ca130     .iT...Q..6O.0.L.
    c0ac:	c14a0e09 c1477d6b c144ef56 c14263cb     ..J.k}G.V.D..cB.
    c0bc:	c13fdac8 c13d544f c13ad060 c1384efa     ..?.OT=.`.:..N8.
    c0cc:	c135d01e c13353cc c130da04 c12e62c5     ..5..S3...0..b..
    c0dc:	c12bee11 c1297be7 c1270c48 c1249f32     ..+..{).H.'.2.$.
    c0ec:	c12234a8 c11fcca8 c11d6732 c11b0448     .4".....2g..H...
    c0fc:	c118a3e8 c1164613 c113eac9 c111920b     .....F..........
    c10c:	c10f3bd8 c10ce830 c10a9714 c1084883     .;..0........H..
    c11c:	c105fc7e c103b304 c1016c17 c0ff27b5     ~........l...'..
    c12c:	c0fce5e0 c0faa696 c0f869d9 c0f62fa8     .........i.../..
    c13c:	c0f3f803 c0f1c2eb c0ef9060 c0ed6061     ........`...a`..
    c14c:	c0eb32ef c0e90809 c0e6dfb1 c0e4b9e5     .2..............
    c15c:	c0e296a7 c0e075f6 c0de57d2 c0dc3c3c     .....u...W..<<..
    c16c:	c0da2333 c0d80cb7 c0d5f8c9 c0d3e769     3#..........i...
    c17c:	c0d1d896 c0cfcc52 c0cdc29b c0cbbb72     ....R.......r...
    c18c:	c0c9b6d8 c0c7b4cb c0c5b54d c0c3b85d     ........M...]...
    c19c:	c0c1bdfc c0bfc629 c0bdd0e5 c0bbde2f     ....)......./...
    c1ac:	c0b9ee08 c0b80070 c0b61567 c0b42ced     ....p...g....,..
    c1bc:	c0b24702 c0b063a6 c0ae82d9 c0aca49c     .G...c..........
    c1cc:	c0aac8ed c0a8efcf c0a71940 c0a54540     ........@...@E..
    c1dc:	c0a373d0 c0a1a4f0 c09fd89f c09e0edf     .s..............
    c1ec:	c09c47ae c09a830e c098c0fd c097017d     .G..........}...
    c1fc:	c095448d c0938a2d c091d25d c0901d1f     .D..-...].......
    c20c:	c08e6a70 c08cba52 c08b0cc5 c08961c8     pj..R........a..
    c21c:	c087b95d c0861382 c0847038 c082cf7f     ].......8p......
    c22c:	c0813157 c07f95c0 c07dfcbb c07c6646     W1........}.Ff|.
    c23c:	c07ad263 c0794111 c077b251 c0762622     c.z..Ay.Q.w."&v.
    c24c:	c0749c85 c073157a c0719100 c0700f18     ..t.z.s...q...p.
    c25c:	c06e8fc1 c06d12fd c06b98ca c06a212a     ..n...m...k.*!j.
    c26c:	c068ac1b c067399f c065c9b4 c0645c5c     ..h..9g...e.\\d.
    c27c:	c062f197 c0618963 c06023c2 c05ec0b4     ..b.c.a..#`...^.
    c28c:	c05d6038 c05c024e c05aa6f7 c0594e33     8`].N.\...Z.3NY.
    c29c:	c057f802 c056a463 c0555357 c05404de     ..W.c.V.WSU...T.
    c2ac:	c052b8f8 c0516fa5 c05028e5 c04ee4b8     ..R..oQ..(P...N.
    c2bc:	c04da31f c04c6418 c04b27a5 c049edc5     ..M..dL..'K...I.
    c2cc:	c048b678 c04781bf c0464f99 c0452007     x.H...G..OF.. E.
    c2dc:	c043f308 c042c89d c041a0c6 c0407b82     ..C...B...A..{@.
    c2ec:	c03f58d2 c03e38b5 c03d1b2d c03c0038     .X?..8>.-.=.8.<.
    c2fc:	c03ae7d7 c039d20b c038bed2 c037ae2d     ..:...9...8.-.7.
    c30c:	c036a01d c03594a0 c0348bb8 c0338564     ..6...5...4.d.3.
    c31c:	c03281a4 c0318078 c03081e1 c02f85de     ..2.x.1...0.../.
    c32c:	c02e8c70 c02d9596 c02ca150 c02baf9f     p.....-.P.,...+.
    c33c:	c02ac083 c029d3fb c028ea08 c02802a9     ..*...)...(...(.
    c34c:	c0271de0 c0263bab c0255c0b c0247eff     ..'..;&..\%..~$.
    c35c:	c023a489 c022cca7 c021f75b c02124a3     ..#...".[.!..$!.
    c36c:	c0205480 c01f86f3 c01ebbfa c01df396     .T .............
    c37c:	c01d2dc8 c01c6a8f c01ba9eb c01aebdc     .-...j..........
    c38c:	c01a3063 c019777e c018c12f c0180d76     c0..~w../...v...
    c39c:	c0175c51 c016adc2 c01601c9 c0155865     Q\..........eX..
    c3ac:	c014b197 c0140d5d c0136bba c012ccac     ....]....k......
    c3bc:	c0123034 c0119651 c010ff04 c0106a4c     40..Q.......Lj..
    c3cc:	c00fd82a c00f489e c00ebba8 c00e3147     *....H......G1..
    c3dc:	c00da97c c00d2447 c00ca1a8 c00c219f     |...G$.......!..
    c3ec:	c00ba42b c00b294d c00ab105 c00a3b53     +...M)......S;..
    c3fc:	c009c837 c00957b1 c008e9c1 c0087e67     7....W......g~..
    c40c:	c00815a3 c007af75 c0074bdc c006eada     ....u....K......
    c41c:	c0068c6e c0063098 c005d759 c00580af     n....0..Y.......
    c42c:	c0052c9b c004db1e c0048c36 c0043fe5     .,......6....?..
    c43c:	c003f62a c003af05 c0036a76 c003287e     *.......vj..~(..
    c44c:	c002e91c c002ac50 c002721a c0023a7a     ....P....r..z:..
    c45c:	c0020571 c001d2fe c001a321 c00175da     q.......!....u..
    c46c:	c0014b2a c0012310 c000fd8c c000da9f     *K...#..........
    c47c:	c000ba48 c0009c87 c000815d c00068c9     H.......]....h..
    c48c:	c00052cb c0003f63 c0002e92 c0002057     .R..c?......W ..
    c49c:	c00014b3 c0000ba5 c000052d c000014b     ........-...K...
    c4ac:	c0000000 c000014b c000052d c0000ba5     ....K...-.......
    c4bc:	c00014b3 c0002057 c0002e92 c0003f63     ....W ......c?..
    c4cc:	c00052cb c00068c9 c000815d c0009c87     .R...h..].......
    c4dc:	c000ba48 c000da9f c000fd8c c0012310     H............#..
    c4ec:	c0014b2a c00175da c001a321 c001d2fe     *K...u..!.......
    c4fc:	c0020571 c0023a7a c002721a c002ac50     q...z:...r..P...
    c50c:	c002e91c c003287e c0036a76 c003af05     ....~(..vj......
    c51c:	c003f62a c0043fe5 c0048c36 c004db1e     *....?..6.......
    c52c:	c0052c9b c00580af c005d759 c0063098     .,......Y....0..
    c53c:	c0068c6e c006eada c0074bdc c007af75     n........K..u...
    c54c:	c00815a3 c0087e67 c008e9c1 c00957b1     ....g~.......W..
    c55c:	c009c837 c00a3b53 c00ab105 c00b294d     7...S;......M)..
    c56c:	c00ba42b c00c219f c00ca1a8 c00d2447     +....!......G$..
    c57c:	c00da97c c00e3147 c00ebba8 c00f489e     |...G1.......H..
    c58c:	c00fd82a c0106a4c c010ff04 c0119651     *...Lj......Q...
    c59c:	c0123034 c012ccac c0136bba c0140d5d     40.......k..]...
    c5ac:	c014b197 c0155865 c01601c9 c016adc2     ....eX..........
    c5bc:	c0175c51 c0180d76 c018c12f c019777e     Q\..v.../...~w..
    c5cc:	c01a3063 c01aebdc c01ba9eb c01c6a8f     c0...........j..
    c5dc:	c01d2dc8 c01df396 c01ebbfa c01f86f3     .-..............
    c5ec:	c0205480 c02124a3 c021f75b c022cca7     .T ..$!.[.!...".
    c5fc:	c023a489 c0247eff c0255c0b c0263bab     ..#..~$..\%..;&.
    c60c:	c0271de0 c02802a9 c028ea08 c029d3fb     ..'...(...(...).
    c61c:	c02ac083 c02baf9f c02ca150 c02d9596     ..*...+.P.,...-.
    c62c:	c02e8c70 c02f85de c03081e1 c0318078     p...../...0.x.1.
    c63c:	c03281a4 c0338564 c0348bb8 c03594a0     ..2.d.3...4...5.
    c64c:	c036a01d c037ae2d c038bed2 c039d20b     ..6.-.7...8...9.
    c65c:	c03ae7d7 c03c0038 c03d1b2d c03e38b5     ..:.8.<.-.=..8>.
    c66c:	c03f58d2 c0407b82 c041a0c6 c042c89d     .X?..{@...A...B.
    c67c:	c043f308 c0452007 c0464f99 c04781bf     ..C.. E..OF...G.
    c68c:	c048b678 c049edc5 c04b27a5 c04c6418     x.H...I..'K..dL.
    c69c:	c04da31f c04ee4b8 c05028e5 c0516fa5     ..M...N..(P..oQ.
    c6ac:	c052b8f8 c05404de c0555357 c056a463     ..R...T.WSU.c.V.
    c6bc:	c057f802 c0594e33 c05aa6f7 c05c024e     ..W.3NY...Z.N.\.
    c6cc:	c05d6038 c05ec0b4 c06023c2 c0618963     8`]...^..#`.c.a.
    c6dc:	c062f197 c0645c5c c065c9b4 c067399f     ..b.\\d...e..9g.
    c6ec:	c068ac1b c06a212a c06b98ca c06d12fd     ..h.*!j...k...m.
    c6fc:	c06e8fc1 c0700f18 c0719100 c073157a     ..n...p...q.z.s.
    c70c:	c0749c85 c0762622 c077b251 c0794111     ..t."&v.Q.w..Ay.
    c71c:	c07ad263 c07c6646 c07dfcbb c07f95c0     c.z.Ff|...}.....
    c72c:	c0813157 c082cf7f c0847038 c0861382     W1......8p......
    c73c:	c087b95d c08961c8 c08b0cc5 c08cba52     ]....a......R...
    c74c:	c08e6a70 c0901d1f c091d25d c0938a2d     pj......]...-...
    c75c:	c095448d c097017d c098c0fd c09a830e     .D..}...........
    c76c:	c09c47ae c09e0edf c09fd89f c0a1a4f0     .G..............
    c77c:	c0a373d0 c0a54540 c0a71940 c0a8efcf     .s..@E..@.......
    c78c:	c0aac8ed c0aca49c c0ae82d9 c0b063a6     .............c..
    c79c:	c0b24702 c0b42ced c0b61567 c0b80070     .G...,..g...p...
    c7ac:	c0b9ee08 c0bbde2f c0bdd0e5 c0bfc629     ..../.......)...
    c7bc:	c0c1bdfc c0c3b85d c0c5b54d c0c7b4cb     ....]...M.......
    c7cc:	c0c9b6d8 c0cbbb72 c0cdc29b c0cfcc52     ....r.......R...
    c7dc:	c0d1d896 c0d3e769 c0d5f8c9 c0d80cb7     ....i...........
    c7ec:	c0da2333 c0dc3c3c c0de57d2 c0e075f6     3#..<<...W...u..
    c7fc:	c0e296a7 c0e4b9e5 c0e6dfb1 c0e90809     ................
    c80c:	c0eb32ef c0ed6061 c0ef9060 c0f1c2eb     .2..a`..`.......
    c81c:	c0f3f803 c0f62fa8 c0f869d9 c0faa696     ...../...i......
    c82c:	c0fce5e0 c0ff27b5 c1016c17 c103b304     .....'...l......
    c83c:	c105fc7e c1084883 c10a9714 c10ce830     ~....H......0...
    c84c:	c10f3bd8 c111920b c113eac9 c1164613     .;...........F..
    c85c:	c118a3e8 c11b0448 c11d6732 c11fcca8     ....H...2g......
    c86c:	c12234a8 c1249f32 c1270c48 c1297be7     .4".2.$.H.'..{).
    c87c:	c12bee11 c12e62c5 c130da04 c13353cc     ..+..b....0..S3.
    c88c:	c135d01e c1384efa c13ad060 c13d544f     ..5..N8.`.:.OT=.
    c89c:	c13fdac8 c14263cb c144ef56 c1477d6b     ..?..cB.V.D.k}G.
    c8ac:	c14a0e09 c14ca130 c14f36df c151cf18     ..J.0.L..6O...Q.
    c8bc:	c15469d9 c1570723 c159a6f5 c15c4950     .iT.#.W...Y.PI\.
    c8cc:	c15eee33 c161959e c1643f91 c166ec0c     3.^...a..?d...f.
    c8dc:	c1699b0f c16c4c99 c16f00ac c171b745     ..i..Ll...o.E.q.
    c8ec:	c1747066 c1772c0f c179ea3e c17caaf5     fpt..,w.>.y...|.
    c8fc:	c17f6e33 c18233f7 c184fc42 c187c714     3n...3..B.......
    c90c:	c18a946c c18d644b c19036af c1930b9b     l...Kd...6......
    c91c:	c195e30c c198bd03 c19b997f c19e7882     .............x..
    c92c:	c1a15a0a c1a43e18 c1a724ab c1aa0dc3     .Z...>...$......
    c93c:	c1acf960 c1afe782 c1b2d829 c1b5cb55     `.......)...U...
    c94c:	c1b8c106 c1bbb93b c1beb3f4 c1c1b132     ....;.......2...
    c95c:	c1c4b0f4 c1c7b33a c1cab804 c1cdbf52     ....:.......R...
    c96c:	c1d0c923 c1d3d578 c1d6e450 c1d9f5ac     #...x...P.......
    c97c:	c1dd098a c1e01fec c1e338d1 c1e65439     .........8..9T..
    c98c:	c1e97223 c1ec9290 c1efb57f c1f2daf0     #r..............
    c99c:	c1f602e4 c1f92d5a c1fc5a51 c1ff89cb     ....Z-..QZ......
    c9ac:	c202bbc6 c205f042 c2092741 c20c60c0     ....B...A'...`..
    c9bc:	c20f9cc0 c212db42 c2161c44 c2195fc7     ....B...D...._..
    c9cc:	c21ca5cb c21fee4f c2233953 c22686d8     ....O...S9#...&.
    c9dc:	c229d6dd c22d2962 c2307e66 c233d5ea     ..).b)-.f~0...3.
    c9ec:	c2372fee c23a8c71 c23deb74 c2414cf6     ./7.q.:.t.=..LA.
    c9fc:	c244b0f6 c2481776 c24b8074 c24eebf1     ..D.v.H.t.K...N.
    ca0c:	c25259ec c255ca65 c2593d5d c25cb2d3     .YR.e.U.]=Y...\.
    ca1c:	c2602ac6 c263a538 c2672227 c26aa193     .*`.8.c.'"g...j.
    ca2c:	c26e237d c271a7e4 c2752ec8 c278b829     }#n...q...u.).x.
    ca3c:	c27c4407 c27fd261 c2836338 c286f68b     .D|.a...8c......
    ca4c:	c28a8c5a c28e24a6 c291bf6d c2955cb0     Z....$..m....\..
    ca5c:	c298fc6f c29c9ea9 c2a0435e c2a3ea8e     o.......^C......
    ca6c:	c2a7943a c2ab4060 c2aeef01 c2b2a01d     :...`@..........
    ca7c:	c2b653b3 c2ba09c4 c2bdc24e c2c17d52     .S......N...R}..
    ca8c:	c2c53ad1 c2c8fac9 c2ccbd3a c2d08225     .:......:...%...
    ca9c:	c2d44989 c2d81366 c2dbdfbc c2dfae8b     .I..f...........
    caac:	c2e37fd2 c2e75392 c2eb29ca c2ef027a     .....S...)..z...
    cabc:	c2f2dda2 c2f6bb42 c2fa9b5a c2fe7de9     ....B...Z....}..
    cacc:	c30262f0 c3064a6d c30a3462 c30e20ce     .b..mJ..b4... ..
    cadc:	c3120fb0 c3160109 c319f4d8 c31deb1e     ................
    caec:	c321e3d9 c325df0b c329dcb2 c32ddccf     ..!...%...)...-.
    cafc:	c331df62 c335e469 c339ebe6 c33df5d8     b.1.i.5...9...=.
    cb0c:	c342023e c3461119 c34a2269 c34e362d     >.B...F.i"J.-6N.
    cb1c:	c3524c65 c3566511 c35a8030 c35e9dc4     eLR..eV.0.Z...^.
    cb2c:	c362bdca c366e045 c36b0532 c36f2c92     ..b.E.f.2.k..,o.
    cb3c:	c3735665 c37782ab c37bb163 c37fe28d     eVs...w.c.{.....
    cb4c:	c384162a c3884c38 c38c84b9 c390bfaa     *...8L..........
    cb5c:	c394fd0e c3993ce2 c39d7f28 c3a1c3df     .....<..(.......
    cb6c:	c3a60b06 c3aa549e c3aea0a6 c3b2ef1f     .....T..........
    cb7c:	c3b74007 c3bb9360 c3bfe928 c3c44160     .@..`...(...`A..
    cb8c:	c3c89c07 c3ccf91d c3d158a3 c3d5ba97     .........X......
    cb9c:	c3da1ef9 c3de85cb c3e2ef0a c3e75ab8     .............Z..
    cbac:	c3ebc8d3 c3f0395d c3f4ac54 c3f921b8     ....]9..T....!..
    cbbc:	c3fd998a c40213c8 c4069074 c40b0f8c     ........t.......
    cbcc:	c40f9110 c4141501 c4189b5e c41d2427     ........^...'$..
    cbdc:	c421af5c c4263cfc c42acd08 c42f5f7f     \.!..<&...*.._/.
    cbec:	c433f461 c4388bae c43d2565 c441c187     a.3...8.e%=...A.
    cbfc:	c4466014 c44b010a c44fa46a c4544a34     .`F...K.j.O.4JT.
    cc0c:	c458f268 c45d9d04 c4624a0a c466f979     h.X...]..Jb.y.f.
    cc1c:	c46bab51 c4705f91 c475163a c479cf4b     Q.k.._p.:.u.K.y.
    cc2c:	c47e8ac4 c48348a5 c48808ed c48ccb9d     ..~..H..........
    cc3c:	c49190b4 c4965832 c49b2218 c49fee63     ....2X..."..c...
    cc4c:	c4a4bd15 c4a98e2e c4ae61ac c4b33791     .........a...7..
    cc5c:	c4b80fdb c4bcea8b c4c1c7a0 c4c6a71a     ................
    cc6c:	c4cb88f9 c4d06d3c c4d553e4 c4da3cf1     ....<m...S...<..
    cc7c:	c4df2862 c4e41636 c4e9066e c4edf90a     b(..6...n.......
    cc8c:	c4f2ee09 c4f7e56c c4fcdf31 c501db59     ....l...1...Y...
    cc9c:	c506d9e3 c50bdad0 c510de1f c515e3cf     ................
    ccac:	c51aebe2 c51ff656 c525032b c52a1261     ....V...+.%.a.*.
    ccbc:	c52f23f8 c53437f0 c5394e49 c53e6701     .#/..74.IN9..g>.
    cccc:	c543821a c5489f93 c54dbf6b c552e1a3     ..C...H.k.M...R.
    ccdc:	c558063a c55d2d30 c5625685 c5678238     :.X.0-]..Vb.8.g.
    ccec:	c56cb04a c571e0ba c5771388 c57c48b4     J.l...q...w..H|.
    ccfc:	c581803d c586ba24 c58bf668 c5913509     =...$...h....5..
    cd0c:	c5967606 c59bb960 c5a0ff17 c5a64729     .v..`.......)G..
    cd1c:	c5ab9197 c5b0de61 c5b62d87 c5bb7f07     ....a....-......
    cd2c:	c5c0d2e3 c5c62919 c5cb81aa c5d0dc96     .....)..........
    cd3c:	c5d639db c5db997b c5e0fb74 c5e65fc7     .9..{...t...._..
    cd4c:	c5ebc673 c5f12f78 c5f69ad6 c5fc088c     s...x/..........
    cd5c:	c601789b c606eb02 c60c5fc1 c611d6d8     .x......._......
    cd6c:	c6175046 c61ccc0c c6224a29 c627ca9c     FP......)J"...'.
    cd7c:	c62d4d66 c632d287 c63859fe c63de3ca     fM-...2..Y8...=.
    cd8c:	c6436fed c648fe65 c64e8f32 c6542255     .oC.e.H.2.N.U"T.
    cd9c:	c659b7cc c65f4f98 c664e9b8 c66a862c     ..Y..O_...d.,.j.
    cdac:	c67024f5 c675c611 c67b6980 c6810f43     .$p...u..i{.C...
    cdbc:	c686b759 c68c61c1 c6920e7d c697bd8a     Y....a..}.......
    cdcc:	c69d6eea c6a3229b c6a8d89e c6ae90f3     .n..."..........
    cddc:	c6b44b99 c6ba088f c6bfc7d7 c6c5896f     .K..........o...
    cdec:	c6cb4d57 c6d1138f c6d6dc17 c6dca6ef     WM..............
    cdfc:	c6e27415 c6e8438b c6ee1550 c6f3e964     .t...C..P...d...
    ce0c:	c6f9bfc6 c6ff9875 c7057373 c70b50bf     ....u...ss...P..
    ce1c:	c7113058 c717123e c71cf671 c722dcf1     X0..>...q.....".
    ce2c:	c728c5bd c72eb0d6 c7349e3b c73a8deb     ..(.....;.4...:.
    ce3c:	c7407fe7 c746742e c74c6ac0 c752639d     ..@..tF..jL..cR.
    ce4c:	c7585ec5 c75e5c37 c7645bf3 c76a5df9     .^X.7\^..[d..]j.
    ce5c:	c7706248 c77668e1 c77c71c3 c7827cee     Hbp..hv..q|..|..
    ce6c:	c7888a61 c78e9a1d c794ac21 c79ac06d     a.......!...m...
    ce7c:	c7a0d700 c7a6efdb c7ad0afd c7b32866     ............f(..
    ce8c:	c7b94815 c7bf6a0b c7c58e47 c7cbb4c9     .H...j..G.......
    ce9c:	c7d1dd91 c7d8089e c7de35f0 c7e46587     .........5...e..
    ceac:	c7ea9763 c7f0cb83 c7f701e8 c7fd3a90     c............:..
    cebc:	c803757c c809b2ab c80ff21e c81633d3     |u...........3..
    cecc:	c81c77cb c822be05 c8290682 c82f5140     .w...."...).@Q/.
    cedc:	c8359e40 c83bed82 c8423f05 c84892c8     @.5...;..?B...H.
    ceec:	c84ee8cc c8554110 c85b9b95 c861f859     ..N..AU...[.Y.a.
    cefc:	c868575d c86eb8a1 c8751c23 c87b81e4     ]Wh...n.#.u...{.
    cf0c:	c881e9e4 c8885422 c88ec09e c8952f58     ...."T......X/..
    cf1c:	c89ba04f c8a21384 c8a888f5 c8af00a3     O...............
    cf2c:	c8b57a8e c8bbf6b5 c8c27518 c8c8f5b7     .z.......u......
    cf3c:	c8cf7891 c8d5fda6 c8dc84f6 c8e30e81     .x..............
    cf4c:	c8e99a46 c8f02845 c8f6b87e c8fd4af1     F...E(..~....J..
    cf5c:	c903df9d c90a7682 c9110f9f c917aaf6     .....v..........
    cf6c:	c91e4884 c924e84a c92b8a49 c9322e7e     .H..J.$.I.+.~.2.
    cf7c:	c938d4eb c93f7d8f c9462869 c94cd57a     ..8..}?.i(F.z.L.
    cf8c:	c95384c0 c95a363d c960e9ef c9679fd6     ..S.=6Z...`...g.
    cf9c:	c96e57f3 c9751244 c97bcec9 c9828d83     .Wn.D.u...{.....
    cfac:	c9894e71 c9901192 c996d6e7 c99d9e6f     qN..........o...
    cfbc:	c9a46829 c9ab3417 c9b20236 c9b8d288     )h...4..6.......
    cfcc:	c9bfa50b c9c679bf c9cd50a5 c9d429bc     .....y...P...)..
    cfdc:	c9db0503 c9e1e27b c9e8c223 c9efa3fa     ....{...#.......
    cfec:	c9f68801 c9fd6e37 ca04569d ca0b4131     ....7n...V..1A..
    cffc:	ca122df3 ca191ce3 ca200e01 ca27014d     .-........ .M.'.
    d00c:	ca2df6c6 ca34ee6c ca3be83f ca42e43e     ..-.l.4.?.;.>.B.
    d01c:	ca49e26a ca50e2c1 ca57e544 ca5ee9f2     j.I...P.D.W...^.
    d02c:	ca65f0cb ca6cf9ce ca7404fd ca7b1255     ..e...l...t.U.{.
    d03c:	ca8221d7 ca893383 ca904758 ca975d56     .!...3..XG..V]..
    d04c:	ca9e757d caa58fcd caacac44 cab3cae4     }u......D.......
    d05c:	cabaebaa cac20e99 cac933ae cad05aea     .........3...Z..
    d06c:	cad7844c cadeafd5 cae5dd83 caed0d57     L...........W...
    d07c:	caf43f50 cafb736e cb02a9b1 cb09e218     P?..ns..........
    d08c:	cb111ca4 cb185953 cb1f9825 cb26d91b     ....SY..%.....&.
    d09c:	cb2e1c34 cb35616f cb3ca8cd cb43f24d     4...oa5...<.M.C.
    d0ac:	cb4b3dee cb528bb2 cb59db96 cb612d9b     .=K...R...Y..-a.
    d0bc:	cb6881c0 cb6fd806 cb77306c cb7e8af2     ..h...o.l0w...~.
    d0cc:	cb85e797 cb8d465b cb94a73d cb9c0a3f     ....[F..=...?...
    d0dc:	cba36f5e cbaad69b cbb23ff6 cbb9ab6f     ^o.......?..o...
    d0ec:	cbc11904 cbc888b6 cbcffa84 cbd76e6f     ............on..
    d0fc:	cbdee475 cbe65c97 cbedd6d3 cbf5532b     u....\......+S..
    d10c:	cbfcd19e cc04522a cc0bd4d1 cc135991     ....*R.......Y..
    d11c:	cc1ae06b cc22695d cc29f469 cc31818d     k...]i".i.)...1.
    d12c:	cc3910c9 cc40a21d cc483588 cc4fcb0b     ..9...@..5H...O.
    d13c:	cc5762a4 cc5efc55 cc66981b cc6e35f8     .bW.U.^...f..5n.
    d14c:	cc75d5ea cc7d77f2 cc851c0e cc8cc240     ..u..w}.....@...
    d15c:	cc946a86 cc9c14e0 cca3c14e ccab6fcf     .j......N....o..
    d16c:	ccb32064 ccbad30b ccc287c5 ccca3e92     d ...........>..
    d17c:	ccd1f770 ccd9b260 cce16f62 cce92e74     p...`...bo..t...
    d18c:	ccf0ef97 ccf8b2cb cd00780f cd083f62     .........x..b?..
    d19c:	cd1008c5 cd17d437 cd1fa1b8 cd277147     ....7.......Gq'.
    d1ac:	cd2f42e5 cd371691 cd3eec4a cd46c410     .B/...7.J.>...F.
    d1bc:	cd4e9de3 cd5679c3 cd5e57b0 cd6637a8     ..N..yV..W^..7f.
    d1cc:	cd6e19ac cd75fdbb cd7de3d5 cd85cbfa     ..n...u...}.....
    d1dc:	cd8db62a cd95a263 cd9d90a6 cda580f3     *...c...........
    d1ec:	cdad7349 cdb567a7 cdbd5e0e cdc5567d     Is...g...^..}V..
    d1fc:	cdcd50f4 cdd54d73 cddd4bf8 cde54c85     .P..sM...K...L..
    d20c:	cded4f18 cdf553b1 cdfd5a50 ce0562f5     .O...S..PZ...b..
    d21c:	ce0d6d9f ce157a4e ce1d8901 ce2599b9     .m..Nz........%.
    d22c:	ce2dac74 ce35c134 ce3dd7f6 ce45f0bc     t.-.4.5...=...E.
    d23c:	ce4e0b84 ce56284e ce5e471a ce6667e8     ..N.N(V..G^..gf.
    d24c:	ce6e8ab7 ce76af88 ce7ed659 ce86ff2a     ..n...v.Y.~.*...
    d25c:	ce8f29fb ce9756cc ce9f859c cea7b66b     .)...V......k...
    d26c:	ceafe939 ceb81e06 cec054d0 cec88d98     9........T......
    d27c:	ced0c85d ced9051f cee143de cee98499     ]........C......
    d28c:	cef1c751 cefa0c04 cf0252b2 cf0a9b5b     Q........R..[...
    d29c:	cf12e5ff cf1b329e cf238136 cf2bd1c8     .....2..6.#...+.
    d2ac:	cf342454 cf3c78d8 cf44cf55 cf4d27ca     T$4..x<.U.D..'M.
    d2bc:	cf558238 cf5dde9c cf663cf9 cf6e9d4c     8.U...]..<f.L.n.
    d2cc:	cf76ff96 cf7f63d6 cf87ca0c cf903238     ..v..c......82..
    d2dc:	cf989c59 cfa1086f cfa97679 cfb1e678     Y...o...yv..x...
    d2ec:	cfba586b cfc2cc51 cfcb422a cfd3b9f7     kX..Q...*B......
    d2fc:	cfdc33b6 cfe4af67 cfed2d0a cff5ac9e     .3..g....-......
    d30c:	cffe2e24 d006b19a d00f3701 d017be58     $........7..X...
    d31c:	d020479f d028d2d6 d0315ffb d039ef0f     .G ...(.._1...9.
    d32c:	d0428012 d04b1303 d053a7e1 d05c3ead     ..B...K...S..>\.
    d33c:	d064d766 d06d720b d0760e9d d07ead1b     f.d..rm...v...~.
    d34c:	d0874d84 d08fefd9 d0989418 d0a13a43     .M..........C:..
    d35c:	d0a9e257 d0b28c55 d0bb383d d0c3e60e     W...U...=8......
    d36c:	d0cc95c8 d0d5476b d0ddfaf5 d0e6b067     ....kG......g...
    d37c:	d0ef67c1 d0f82102 d100dc29 d1099937     .g...!..)...7...
    d38c:	d112582b d11b1905 d123dbc4 d12ca067     +X........#.g.,.
    d39c:	d13566f0 d13e2f5c d146f9ad d14fc5e1     .f5.\/>...F...O.
    d3ac:	d15893f8 d16163f2 d16a35cf d173098e     ..X..ca..5j...s.
    d3bc:	d17bdf2e d184b6b0 d18d9013 d1966b56     ..{.........Vk..
    d3cc:	d19f487a d1a8277e d1b10862 d1b9eb24     zH..~'..b...$...
    d3dc:	d1c2cfc6 d1cbb646 d1d49ea4 d1dd88e0     ....F...........
    d3ec:	d1e674fa d1ef62f0 d1f852c4 d2014473     .t...b...R..sD..
    d3fc:	d20a37ff d2132d67 d21c24a9 d2251dc7     .7..g-...$....%.
    d40c:	d22e18bf d2371591 d240143d d24914c3     ......7.=.@...I.
    d41c:	d2521722 d25b1b59 d2642169 d26d2951     ".R.Y.[.i!d.Q)m.
    d42c:	d2763310 d27f3ea7 d2884c14 d2915b59     .3v..>...L..Y[..
    d43c:	d29a6c73 d2a37f63 d2ac9429 d2b5aac4     sl..c...).......
    d44c:	d2bec333 d2c7dd77 d2d0f98f d2da177a     3...w.......z...
    d45c:	d2e33738 d2ec58ca d2f57c2e d2fea164     87...X...|..d...
    d46c:	d307c86c d310f145 d31a1bef d323486a     l...E.......jH#.
    d47c:	d32c76b5 d335a6d1 d33ed8bb d3480c75     .v,...5...>.u.H.
    d48c:	d35141fe d35a7955 d363b27a d36ced6c     .AQ.UyZ.z.c.l.l.
    d49c:	d3762a2c d37f68b9 d388a913 d391eb39     ,*v..h......9...
    d4ac:	d39b2f2a d3a474e7 d3adbc6f d3b705c2     */...t..o.......
    d4bc:	d3c050df d3c99dc6 d3d2ec76 d3dc3cf0     .P......v....<..
    d4cc:	d3e58f32 d3eee33d d3f83910 d40190ab     2...=....9......
    d4dc:	d40aea0d d4144536 d41da225 d42700db     ....6E..%.....'.
    d4ec:	d4306156 d439c397 d443279c d44c8d67     Va0...9..'C.g.L.
    d4fc:	d455f4f5 d45f5e48 d468c95e d4723637     ..U.H^_.^.h.76r.
    d50c:	d47ba4d3 d4851531 d48e8751 d497fb33     ..{.1...Q...3...
    d51c:	d4a170d6 d4aae83a d4b4615e d4bddc43     .p..:...^a..C...
    d52c:	d4c758e7 d4d0d74a d4da576c d4e3d94d     .X..J...lW..M...
    d53c:	d4ed5cec d4f6e249 d5006963 d509f23a     .\..I...ci..:...
    d54c:	d5137cce d51d091e d5269729 d53026f1     .|......).&..&0.
    d55c:	d539b873 d5434bb0 d54ce0a7 d5567758     s.9..KC...L.XwV.
    d56c:	d5600fc3 d569a9e6 d57345c3 d57ce358     ..`...i..Es.X.|.
    d57c:	d58682a5 d59023a9 d599c664 d5a36ad7     .....#..d....j..
    d58c:	d5ad10ff d5b6b8de d5c06273 d5ca0dbc     ........sb......
    d59c:	d5d3babb d5dd696e d5e719d5 d5f0cbef     ....ni..........
    d5ac:	d5fa7fbd d604353e d60dec71 d617a556     ....>5..q...V...
    d5bc:	d6215fed d62b1c36 d634da2f d63e99d9     ._!.6.+./.4...>.
    d5cc:	d6485b33 d6521e3d d65be2f6 d665a95d     3[H.=.R...[.].e.
    d5dc:	d66f7174 d6793b39 d68306ab d68cd3cb     tqo.9;y.........
    d5ec:	d696a298 d6a07311 d6aa4536 d6b41908     .....s..6E......
    d5fc:	d6bdee84 d6c7c5ac d6d19e7e d6db78fb     ........~....x..
    d60c:	d6e55521 d6ef32f0 d6f91269 d702f38a     !U...2..i.......
    d61c:	d70cd653 d716bac4 d720a0dd d72a889c     S......... ...*.
    d62c:	d7347203 d73e5d0f d74849c1 d7523818     .r4..]>..IH..8R.
    d63c:	d75c2815 d76619b6 d7700cfb d77a01e4     .(\...f...p...z.
    d64c:	d783f871 d78df0a0 d797ea72 d7a1e5e6     q.......r.......
    d65c:	d7abe2fc d7b5e1b3 d7bfe20b d7c9e404     ................
    d66c:	d7d3e79d d7ddecd5 d7e7f3ad d7f1fc24     ............$...
    d67c:	d7fc063a d80611ed d8101f3f d81a2e2d     :.......?...-...
    d68c:	d8243eb9 d82e50e1 d83864a5 d8427a04     .>$..P...d8..zB.
    d69c:	d84c90ff d856a995 d860c3c6 d86adf90     ..L...V...`...j.
    d6ac:	d874fcf4 d87f1bf1 d8893c87 d8935eb6     ..t......<...^..
    d6bc:	d89d827c d8a7a7db d8b1ced0 d8bbf75c     |...........\...
    d6cc:	d8c6217e d8d04d37 d8da7a85 d8e4a968     ~!..7M...z..h...
    d6dc:	d8eed9df d8f90beb d9033f8b d90d74bf     .........?...t..
    d6ec:	d917ab85 d921e3de d92c1dca d9365947     ......!...,.GY6.
    d6fc:	d9409656 d94ad4f5 d9551526 d95f56e6     V.@...J.&.U..V_.
    d70c:	d9699a36 d973df16 d97e2584 d9886d81     6.i...s..%~..m..
    d71c:	d992b70c d99d0225 d9a74ecb d9b19cfe     ....%....N......
    d72c:	d9bbecbd d9c63e08 d9d090df d9dae541     .....>......A...
    d73c:	d9e53b2e d9ef92a5 d9f9eba6 da044631     .;..........1F..
    d74c:	da0ea245 da18ffe1 da235f06 da2dbfb2     E........_#...-.
    d75c:	da3821e6 da4285a1 da4ceae2 da5751aa     .!8...B...L..QW.
    d76c:	da61b9f7 da6c23ca da768f21 da80fbfd     ..a..#l.!.v.....
    d77c:	da8b6a5d da95da41 daa04ba8 daaabe92     ]j..A....K......
    d78c:	dab532fe dabfa8eb daca205b dad4994c     .2......[ ..L...
    d79c:	dadf13bd dae98fae daf40d20 dafe8c10     ........ .......
    d7ac:	db090c80 db138e6e db1e11db db2896c5     ....n.........(.
    d7bc:	db331d2c db3da510 db482e71 db52b94d     ,.3...=.q.H.M.R.
    d7cc:	db5d45a5 db67d379 db7262c7 db7cf38f     .E].y.g..br...|.
    d7dc:	db8785d1 db92198d db9caec1 dba7456f     ............oE..
    d7ec:	dbb1dd94 dbbc7731 dbc71245 dbd1aed1     ....1w..E.......
    d7fc:	dbdc4cd2 dbe6ec4a dbf18d37 dbfc2f9a     .L..J...7..../..
    d80c:	dc06d371 dc1178bc dc1c1f7b dc26c7ae     q....x..{.....&.
    d81c:	dc317154 dc3c1c6c dc46c8f6 dc5176f2     Tq1.l.<...F..vQ.
    d82c:	dc5c2660 dc66d73e dc71898d dc7c3d4b     `&\.>.f...q.K=|.
    d83c:	dc86f279 dc91a917 dc9c6123 dca71a9d     y.......#a......
    d84c:	dcb1d585 dcbc91da dcc74f9c dcd20ecb     .........O......
    d85c:	dcdccf66 dce7916c dcf254de dcfd19bb     f...l....T......
    d86c:	dd07e002 dd12a7b2 dd1d70cc dd283b50     .........p..P;(.
    d87c:	dd33073b dd3dd48f dd48a34b dd53736e     ;.3...=.K.H.nsS.
    d88c:	dd5e44f8 dd6917e8 dd73ec3e dd7ec1fa     .D^...i.>.s...~.
    d89c:	dd89991b dd9471a0 dd9f4b8a ddaa26d7     .....q...K...&..
    d8ac:	ddb50388 ddbfe19b ddcac112 ddd5a1ea     ................
    d8bc:	dde08423 ddeb67be ddf64cba de013316     #....g...L...3..
    d8cc:	de0c1ad1 de1703ec de21ee66 de2cda3f     ........f.!.?.,.
    d8dc:	de37c775 de42b609 de4da5fb de589749     u.7...B...M.I.X.
    d8ec:	de6389f3 de6e7df9 de79735b de846a17     ..c..}n.[sy..j..
    d8fc:	de8f622e de9a5b9f dea5566a deb0528e     .b...[..jV...R..
    d90c:	debb500a dec64edf ded14f0c dedc5090     .P...N...O...P..
    d91c:	dee7536b def2579d defd5d25 df086402     kS...W..%]...d..
    d92c:	df136c35 df1e75bc df298097 df348cc7     5l...u....)...4.
    d93c:	df3f9a4a df4aa91f df55b948 df60cac2     J.?...J.H.U...`.
    d94c:	df6bdd8e df76f1ab df820719 df8d1dd7     ..k...v.........
    d95c:	df9835e4 dfa34f42 dfae69ee dfb985e8     .5..BO...i......
    d96c:	dfc4a331 dfcfc1c7 dfdae1aa dfe602da     1...............
    d97c:	dff12556 dffc491e e0076e32 e0129490     V%...I..2n......
    d98c:	e01dbc38 e028e52b e0340f67 e03f3aec     8...+.(.g.4..:?.
    d99c:	e04a67ba e05595d0 e060c52d e06bf5d2     .gJ...U.-.`...k.
    d9ac:	e07727be e0825af0 e08d8f67 e098c525     .'w..Z..g...%...
    d9bc:	e0a3fc27 e0af346e e0ba6df9 e0c5a8c7     '...n4...m......
    d9cc:	e0d0e4d9 e0dc222e e0e760c5 e0f2a09d     ....."...`......
    d9dc:	e0fde1b7 e1092412 e11467ad e11fac88     .....$...g......
    d9ec:	e12af2a3 e13639fd e1418296 e14ccc6c     ..*..96...A.l.L.
    d9fc:	e1581781 e16363d3 e16eb161 e17a002c     ..X..cc.a.n.,.z.
    da0c:	e1855033 e190a175 e19bf3f2 e1a747a9     3P..u........G..
    da1c:	e1b29c9b e1bdf2c6 e1c94a2b e1d4a2c8     ........+J......
    da2c:	e1dffc9d e1eb57aa e1f6b3ef e202116a     .....W......j...
    da3c:	e20d701c e218d003 e2243120 e22f9372     .p...... 1$.r./.
    da4c:	e23af6f9 e2465bb4 e251c1a2 e25d28c3     ..:..[F...Q..(].
    da5c:	e2689118 e273fa9e e27f6556 e28ad140     ..h...s.Ve..@...
    da6c:	e2963e5a e2a1aca5 e2ad1c20 e2b88cca     Z>...... .......
    da7c:	e2c3fea3 e2cf71ab e2dae5e1 e2e65b44     .....q......D[..
    da8c:	e2f1d1d5 e2fd4992 e308c27c e3143c91     .....I..|....<..
    da9c:	e31fb7d2 e32b343d e336b1d3 e3423093     ....=4+...6..0B.
    daac:	e34db07c e359318e e364b3c9 e370372b     |.M..1Y...d.+7p.
    dabc:	e37bbbb6 e3874167 e392c83f e39e503d     ..{.gA..?...=P..
    dacc:	e3a9d961 e3b563ab e3c0ef19 e3cc7bab     a....c.......{..
    dadc:	e3d80961 e3e3983b e3ef2837 e3fab956     a...;...7(..V...
    daec:	e4064b97 e411defa e41d737d e4290922     .K......}s..".).
    dafc:	e4349fe6 e44037ca e44bd0cd e4576aef     ..4..7@...K..jW.
    db0c:	e463062f e46ea28c e47a4007 e485de9f     /.c...n..@z.....
    db1c:	e4917e54 e49d1f24 e4a8c10f e4b46416     T~..$........d..
    db2c:	e4c00837 e4cbad72 e4d753c6 e4e2fb34     7...r....S..4...
    db3c:	e4eea3ba e4fa4d59 e505f80f e511a3dc     ....YM..........
    db4c:	e51d50c0 e528feba e534adca e5405def     .P....(...4..]@.
    db5c:	e54c0f29 e557c177 e56374da e56f294f     ).L.w.W..tc.O)o.
    db6c:	e57aded8 e5869573 e5924d20 e59e05de     ..z.s... M......
    db7c:	e5a9bfae e5b57a8e e5c1367e e5ccf37e     .....z..~6..~...
    db8c:	e5d8b18d e5e470ab e5f030d7 e5fbf210     .....p...0......
    db9c:	e607b457 e61377aa e61f3c0a e62b0176     W....w...<..v.+.
    dbac:	e636c7ed e6428f6f e64e57fb e65a2191     ..6.o.B..WN..!Z.
    dbbc:	e665ec31 e671b7d9 e67d848a e6895243     1.e...q...}.CR..
    dbcc:	e6952104 e6a0f0cb e6acc199 e6b8936d     .!..........m...
    dbdc:	e6c46647 e6d03a26 e6dc0f0a e6e7e4f2     Gf..&:..........
    dbec:	e6f3bbdd e6ff93cc e70b6cbd e71746b1     .........l...F..
    dbfc:	e72321a7 e72efd9d e73ada95 e746b88d     .!#.......:...F.
    dc0c:	e7529785 e75e777c e76a5872 e7763a67     ..R.|w^.rXj.g:v.
    dc1c:	e7821d59 e78e0149 e799e636 e7a5cc20     Y...I...6... ...
    dc2c:	e7b1b305 e7bd9ae6 e7c983c2 e7d56d99     .............m..
    dc3c:	e7e1586a e7ed4434 e7f930f8 e8051eb4     jX..4D...0......
    dc4c:	e8110d68 e81cfd14 e828edb8 e834df52     h.........(.R.4.
    dc5c:	e840d1e2 e84cc568 e858b9e3 e864af53     ..@.h.L...X.S.d.
    dc6c:	e870a5b7 e87c9d0f e888955b e8948e99     ..p...|.[.......
    dc7c:	e8a088ca e8ac83ed e8b88001 e8c47d06     .............}..
    dc8c:	e8d07afb e8dc79e0 e8e879b5 e8f47a79     .z...y...y..yz..
    dc9c:	e9007c2b e90c7ecb e9188259 e92486d4     +|...~..Y.....$.
    dcac:	e9308c3b e93c928f e94899ce e954a1f8     ;.0...<...H...T.
    dcbc:	e960ab0d e96cb50b e978bff4 e984cbc5     ..`...l...x.....
    dccc:	e990d880 e99ce622 e9a8f4ac e9b5041e     ...."...........
    dcdc:	e9c11476 e9cd25b4 e9d937d8 e9e54ae1     v....%...7...J..
    dcec:	e9f15ecf e9fd73a1 ea098957 ea159ff1     .^...s..W.......
    dcfc:	ea21b76d ea2dcfcb ea39e90c ea46032d     m.!...-...9.-.F.
    dd0c:	ea521e30 ea5e3a12 ea6a56d5 ea767477     0.R..:^..Vj.wtv.
    dd1c:	ea8292f8 ea8eb258 ea9ad295 eaa6f3b0     ....X...........
    dd2c:	eab315a7 eabf387b eacb5c2b ead780b7     ....{8..+\......
    dd3c:	eae3a61d eaefcc5e eafbf379 eb081b6d     ....^...y...m...
    dd4c:	eb14443b eb206de1 eb2c985f eb38c3b4     ;D...m ._.,...8.
    dd5c:	eb44efe1 eb511ce4 eb5d4abd eb69796b     ..D...Q..J].kyi.
    dd6c:	eb75a8ef eb81d947 eb8e0a74 eb9a3c74     ..u.G...t...t<..
    dd7c:	eba66f47 ebb2a2ec ebbed764 ebcb0cad     Go......d.......
    dd8c:	ebd742c8 ebe379b3 ebefb16e ebfbe9f9     .B...y..n.......
    dd9c:	ec082353 ec145d7c ec209873 ec2cd437     S#..|]..s. .7.,.
    ddac:	ec3910c9 ec454e27 ec518c52 ec5dcb48     ..9.'NE.R.Q.H.].
    ddbc:	ec6a0b09 ec764b95 ec828cec ec8ecf0c     ..j..Kv.........
    ddcc:	ec9b11f5 eca755a7 ecb39a21 ecbfdf63     .....U..!...c...
    dddc:	eccc256c ecd86c3c ece4b3d2 ecf0fc2d     l%..<l......-...
    ddec:	ecfd454e ed098f34 ed15d9de ed22254c     NE..4.......L%".
    ddfc:	ed2e717d ed3abe71 ed470c27 ed535a9e     }q..q.:.'.G..ZS.
    de0c:	ed5fa9d7 ed6bf9d1 ed784a8b ed849c05     .._...k..Jx.....
    de1c:	ed90ee3e ed9d4136 eda994ec edb5e960     >...6A......`...
    de2c:	edc23e91 edce947f eddaeb29 ede7428f     .>......)....B..
    de3c:	edf39ab1 edfff38d ee0c4d23 ee18a773     ........#M..s...
    de4c:	ee25027d ee315e3f ee3dbaba ee4a17ec     }.%.?^1...=...J.
    de5c:	ee5675d6 ee62d476 ee6f33cd ee7b93d9     .uV.v.b..3o...{.
    de6c:	ee87f49b ee945611 eea0b83c eead1b1b     .....V..<.......
    de7c:	eeb97ead eec5e2f1 eed247e8 eedead91     .~.......G......
    de8c:	eeeb13eb eef77af6 ef03e2b1 ef104b1c     .....z.......K..
    de9c:	ef1cb436 ef291dff ef358876 ef41f39b     6.....).v.5...A.
    deac:	ef4e5f6d ef5acbec ef673917 ef73a6ee     m_N...Z..9g...s.
    debc:	ef801571 ef8c849e ef98f475 efa564f6     q.......u....d..
    decc:	efb1d620 efbe47f3 efcaba6f efd72d92      ....G..o....-..
    dedc:	efe3a15c eff015cd effc8ae4 f00900a1     \...............
    deec:	f0157703 f021ee0a f02e65b5 f03ade04     .w....!..e....:.
    defc:	f04756f6 f053d08a f0604ac1 f06cc59a     .VG...S..J`...l.
    df0c:	f0794113 f085bd2e f09239e8 f09eb743     .Ay......9..C...
    df1c:	f0ab353c f0b7b3d4 f0c4330b f0d0b2de     <5.......3......
    df2c:	f0dd3350 f0e9b45d f0f63607 f102b84d     P3..]....6..M...
    df3c:	f10f3b2d f11bbea8 f12842be f134c76d     -;.......B(.m.4.
    df4c:	f1414cb5 f14dd295 f15a590e f166e01e     .LA...M..YZ...f.
    df5c:	f17367c6 f17ff004 f18c78d8 f1990241     .gs......x..A...
    df6c:	f1a58c40 f1b216d3 f1bea1fa f1cb2db5     @............-..
    df7c:	f1d7ba03 f1e446e3 f1f0d456 f1fd6259     .....F..V...Yb..
    df8c:	f209f0ee f2168013 f2230fc9 f22fa00d     ..........#.../.
    df9c:	f23c30e1 f248c243 f2555433 f261e6b1     .0<.C.H.3TU...a.
    dfac:	f26e79bb f27b0d52 f287a175 f2943623     .yn.R.{.u...#6..
    dfbc:	f2a0cb5c f2ad611f f2b9f76d f2c68e43     \....a..m...C...
    dfcc:	f2d325a3 f2dfbd8b f2ec55fb f2f8eef2     .%.......U......
    dfdc:	f3058870 f3122274 f31ebcfe f32b580d     p...t".......X+.
    dfec:	f337f3a1 f3448fba f3512c56 f35dc975     ..7...D.V,Q.u.].
    dffc:	f36a6717 f377053c f383a3e2 f3904309     .gj.<.w......C..
    e00c:	f39ce2b1 f3a982d9 f3b62381 f3c2c4a8     .........#......
    e01c:	f3cf664e f3dc0872 f3e8ab14 f3f54e32     Nf..r.......2N..
    e02c:	f401f1cd f40e95e5 f41b3a78 f427df86     ........x:....'.
    e03c:	f434850f f4412b11 f44dd18e f45a7883     ..4..+A...M..xZ.
    e04c:	f4671ff1 f473c7d7 f4807034 f48d1908     ..g...s.4p......
    e05c:	f499c253 f4a66c14 f4b3164a f4bfc0f6     S....l..J.......
    e06c:	f4cc6c15 f4d917a9 f4e5c3b0 f4f2702a     .l..........*p..
    e07c:	f4ff1d16 f50bca74 f5187844 f5252684     ....t...Dx...&%.
    e08c:	f531d535 f53e8456 f54b33e6 f557e3e4     5.1.V.>..3K...W.
    e09c:	f5649451 f571452c f57df674 f58aa829     Q.d.,Eq.t.}.)...
    e0ac:	f5975a4a f5a40cd6 f5b0bfce f5bd7331     JZ..........1s..
    e0bc:	f5ca26fe f5d6db34 f5e38fd4 f5f044dc     .&..4........D..
    e0cc:	f5fcfa4c f609b024 f6166663 f6231d09     L...$...cf....#.
    e0dc:	f62fd415 f63c8b86 f649435c f655fb97     ../...<.\CI...U.
    e0ec:	f662b436 f66f6d38 f67c269e f688e065     6.b.8mo..&|.e...
    e0fc:	f6959a8f f6a2551a f6af1007 f6bbcb53     .....U......S...
    e10c:	f6c88700 f6d5430c f6e1ff76 f6eebc3f     .....C..v...?...
    e11c:	f6fb7966 f70836ea f714f4cb f721b309     fy...6........!.
    e12c:	f72e71a2 f73b3096 f747efe5 f754af8f     .q...0;...G...T.
    e13c:	f7616f92 f76e2fee f77af0a3 f787b1b0     .oa../n...z.....
    e14c:	f7947315 f7a134d1 f7adf6e4 f7bab94c     .s...4......L...
    e15c:	f7c77c0b f7d43f1e f7e10286 f7edc642     .|...?......B...
    e16c:	f7fa8a51 f8074eb4 f8141369 f820d870     Q....N..i...p. .
    e17c:	f82d9dc8 f83a6371 f847296b f853efb5     ..-.qc:.k)G...S.
    e18c:	f860b64e f86d7d36 f87a446c f8870bf1     N.`.6}m.lDz.....
    e19c:	f893d3c2 f8a09be1 f8ad644b f8ba2d02     ........Kd...-..
    e1ac:	f8c6f603 f8d3bf50 f8e088e7 f8ed52c7     ....P........R..
    e1bc:	f8fa1cf1 f906e763 f913b21d f9207d20     ....c....... } .
    e1cc:	f92d4869 f93a13f9 f946dfcf f953abea     iH-...:...F...S.
    e1dc:	f960784b f96d44f0 f97a11d9 f986df06     Kx`..Dm...z.....
    e1ec:	f993ac75 f9a07a27 f9ad481b f9ba1651     u...'z...H..Q...
    e1fc:	f9c6e4c7 f9d3b37e f9e08275 f9ed51ab     ....~...u....Q..
    e20c:	f9fa2120 fa06f0d3 fa13c0c4 fa2090f3      !............ .
    e21c:	fa2d615e fa3a3205 fa4702e8 fa53d407     ^a-..2:...G...S.
    e22c:	fa60a560 fa6d76f3 fa7a48c0 fa871ac6     `.`..vm..Hz.....
    e23c:	fa93ed05 faa0bf7c faad922a faba6510     ....|...*....e..
    e24c:	fac7382c fad40b7e fae0df06 faedb2c2     ,8..~...........
    e25c:	fafa86b3 fb075ad9 fb142f31 fb2103bd     .....Z..1/....!.
    e26c:	fb2dd87a fb3aad6a fb47828b fb5457dd     z.-.j.:...G..WT.
    e27c:	fb612d60 fb6e0312 fb7ad8f3 fb87af04     `-a...n...z.....
    e28c:	fb948542 fba15bae fbae3248 fbbb090e     B....[..H2......
    e29c:	fbc7e000 fbd4b71e fbe18e67 fbee65db     ........g....e..
    e2ac:	fbfb3d79 fc081541 fc14ed31 fc21c54a     y=..A...1...J.!.
    e2bc:	fc2e9d8b fc3b75f4 fc484e84 fc55273a     .....u;..NH.:'U.
    e2cc:	fc620016 fc6ed917 fc7bb23e fc888b88     ..b...n.>.{.....
    e2dc:	fc9564f7 fca23e89 fcaf183e fcbbf215     .d...>..>.......
    e2ec:	fcc8cc0e fcd5a628 fce28063 fcef5abf     ....(...c....Z..
    e2fc:	fcfc353a fd090fd4 fd15ea8d fd22c564     :5..........d.".
    e30c:	fd2fa058 fd3c7b6a fd495699 fd5631e3     X./.j{<..VI..1V.
    e31c:	fd630d49 fd6fe8ca fd7cc466 fd89a01b     I.c...o.f.|.....
    e32c:	fd967beb fda357d3 fdb033d3 fdbd0feb     .{...W...3......
    e33c:	fdc9ec1b fdd6c862 fde3a4bf fdf08132     ....b.......2...
    e34c:	fdfd5dba fe0a3a57 fe171709 fe23f3ce     .]..W:........#.
    e35c:	fe30d0a6 fe3dad91 fe4a8a8e fe57679d     ..0...=...J..gW.
    e36c:	fe6444bd fe7121ee fe7dff2f fe8adc80     .Dd..!q./.}.....
    e37c:	fe97b9df fea4974d feb174ca febe5253     ....M....t..SR..
    e38c:	fecb2fea fed80d8d fee4eb3c fef1c8f7     ./......<.......
    e39c:	fefea6bc ff0b848c ff186266 ff254049     ........fb..I@%.
    e3ac:	ff321e35 ff3efc2a ff4bda26 ff58b829     5.2.*.>.&.K.).X.
    e3bc:	ff659634 ff727444 ff7f525a ff8c3075     4.e.Dtr.ZR..u0..
    e3cc:	ff990e96 ffa5ecba ffb2cae2 ffbfa90d     ................
    e3dc:	ffcc873a ffd9656a ffe6439b fff321cd     :...je...C...!..

0000e3ec <__FUNCTION__.4156>:
    e3ec:	666e6f63 695f6769 7265746e 74707572     config_interrupt
    e3fc:	00000000 65637865 6f697470 632e736e     ....exceptions.c
    e40c:	00000000 5f746e69 3c204449 32303120     ....int_ID < 102
    e41c:	26262034 55504320 7261745f 73746567     4 && CPU_targets
    e42c:	32203c20 26203635 6e692026 72705f74      < 256 && int_pr
    e43c:	69726f69 3c207974 36353220 00000000     iority < 256....
    e44c:	7566202c 6974636e 203a6e6f 00000000     , function: ....
    e45c:	65737361 6f697472 2522206e 66202273     assertion "%s" f
    e46c:	656c6961 66203a64 20656c69 22732522     ailed: file "%s"
    e47c:	696c202c 2520656e 25732564 00000a73     , line %d%s%s...

0000e48c <_global_impure_ptr>:
    e48c:	0000e558 00000043                       X...C...

0000e494 <blanks.6685>:
    e494:	20202020 20202020 20202020 20202020                     

0000e4a4 <zeroes.6686>:
    e4a4:	30303030 30303030 30303030 30303030     0000000000000000
    e4b4:	33323130 37363534 42413938 46454443     0123456789ABCDEF
    e4c4:	00000000 33323130 37363534 62613938     ....0123456789ab
    e4d4:	66656463 00000000 6c756e28 0000296c     cdef....(null)..
    e4e4:	49534f50 00000058 0000002e 0074743a     POSIX.......:tt.

0000e4f4 <_init>:
    e4f4:	e1a0c00d 	mov	r12, sp
    e4f8:	e92ddff8 	push	{r3, r4, r5, r6, r7, r8, r9, r10, r11, r12, lr, pc}
    e4fc:	e24cb004 	sub	r11, r12, #4
    e500:	e24bd028 	sub	sp, r11, #40	; 0x28
    e504:	e89d6ff0 	ldm	sp, {r4, r5, r6, r7, r8, r9, r10, r11, sp, lr}
    e508:	e12fff1e 	bx	lr

0000e50c <__init_array_start>:
    e50c:	000021a4 	.word	0x000021a4

0000e510 <__frame_dummy_init_array_entry>:
    e510:	00000208 000064bc                       .....d..

0000e518 <__libc_fini>:
    e518:	e1a0c00d 	mov	r12, sp
    e51c:	e92ddff8 	push	{r3, r4, r5, r6, r7, r8, r9, r10, r11, r12, lr, pc}
    e520:	e24cb004 	sub	r11, r12, #4
    e524:	e24bd028 	sub	sp, r11, #40	; 0x28
    e528:	e89d6ff0 	ldm	sp, {r4, r5, r6, r7, r8, r9, r10, r11, sp, lr}
    e52c:	e12fff1e 	bx	lr

0000e530 <__fini_array_start>:
    e530:	000001c4 	.word	0x000001c4

0000e534 <__cs3_regions>:
    e534:	00000000 	.word	0x00000000
    e538:	00000040 	.word	0x00000040
    e53c:	00000040 	.word	0x00000040
    e540:	0000edd8 	.word	0x0000edd8
    e544:	00035280 	.word	0x00035280
