
audio_demo.axf:     file format elf32-littlearm


Disassembly of section .vectors:

00000000 <__cs3_interrupt_vector>:
   0:	18 f0 9f e5 18 f0 9f e5 18 f0 9f e5 18 f0 9f e5     ................
  10:	18 f0 9f e5 18 f0 9f e5 18 f0 9f e5 18 f0 9f e5     ................
  20:	50 05 00 00 54 05 00 00 58 05 00 00 5c 05 00 00     P...T...X...\...
  30:	60 05 00 00 f8 09 00 00 64 05 00 00 a0 05 00 00     `.......d.......

Disassembly of section .text:

00000040 <__cs3_reset_generic>:
  40:	ea000026 	b	e0 <__cs3_start_asm_sim>

00000044 <__cs3_start_c>:
  44:	e59f608c 	ldr	r6, [pc, #140]	; d8 <__cs3_start_c+0x94>
  48:	e3560000 	cmp	r6, #0
  4c:	e92d4080 	push	{r7, lr}
  50:	e2466001 	sub	r6, r6, #1
  54:	0a00001e 	beq	d4 <__cs3_start_c+0x90>
  58:	e59f507c 	ldr	r5, [pc, #124]	; dc <__cs3_start_c+0x98>
  5c:	e3a00000 	mov	r0, #0
  60:	e3a01000 	mov	r1, #0
  64:	e515200c 	ldr	r2, [r5, #-12]
  68:	e515e010 	ldr	lr, [r5, #-16]
  6c:	e5154008 	ldr	r4, [r5, #-8]
  70:	e15e0002 	cmp	lr, r2
  74:	00822004 	addeq	r2, r2, r4
  78:	0a000009 	beq	a4 <__cs3_start_c+0x60>
  7c:	e3540000 	cmp	r4, #0
  80:	0a000007 	beq	a4 <__cs3_start_c+0x60>
  84:	e1a07002 	mov	r7, r2
  88:	e1a0c002 	mov	r12, r2
  8c:	e8be000c 	ldm	lr!, {r2, r3}
  90:	e8ac000c 	stmia	r12!, {r2, r3}
  94:	e067300c 	rsb	r3, r7, r12
  98:	e1540003 	cmp	r4, r3
  9c:	e1a0200c 	mov	r2, r12
  a0:	1afffff9 	bne	8c <__cs3_start_c+0x48>
  a4:	e515e004 	ldr	lr, [r5, #-4]
  a8:	e35e0000 	cmp	lr, #0
  ac:	11a03002 	movne	r3, r2
  b0:	0a000003 	beq	c4 <__cs3_start_c+0x80>
  b4:	e8a30003 	stmia	r3!, {r0, r1}
  b8:	e062c003 	rsb	r12, r2, r3
  bc:	e15e000c 	cmp	lr, r12
  c0:	1afffffb 	bne	b4 <__cs3_start_c+0x70>
  c4:	e2466001 	sub	r6, r6, #1
  c8:	e3760001 	cmn	r6, #1
  cc:	e2855014 	add	r5, r5, #20
  d0:	1affffe3 	bne	64 <__cs3_start_c+0x20>
  d4:	eb00022e 	bl	994 <__cs3_premain>
  d8:	00000001 	.word	0x00000001
  dc:	000087e0 	.word	0x000087e0

000000e0 <__cs3_start_asm_sim>:
  e0:	e28f103c 	add	r1, pc, #60	; 0x3c
  e4:	e3a00016 	mov	r0, #22
  e8:	ef123456 	svc	0x00123456
  ec:	e3500000 	cmp	r0, #0
  f0:	ba000008 	blt	118 <__cs3_start_asm_sim+0x38>
  f4:	e59f2028 	ldr	r2, [pc, #40]	; 124 <__cs3_heap_start_ptr>
  f8:	e59fd01c 	ldr	sp, [pc, #28]	; 11c <__cs3_start_asm_sim+0x3c>
  fc:	e5920008 	ldr	r0, [r2, #8]
 100:	e3500000 	cmp	r0, #0
 104:	11a0d000 	movne	sp, r0
 108:	e59f1010 	ldr	r1, [pc, #16]	; 120 <__cs3_start_asm_sim+0x40>
 10c:	e5920004 	ldr	r0, [r2, #4]
 110:	e3500000 	cmp	r0, #0
 114:	15810000 	strne	r0, [r1]
 118:	eaffffc9 	b	44 <__cs3_start_c>
 11c:	3ffffff8 	.word	0x3ffffff8
 120:	00008c18 	.word	0x00008c18

00000124 <__cs3_heap_start_ptr>:
 124:	00037a50 	.word	0x00037a50

00000128 <_start>:
 128:	e51fd000 	ldr	sp, [pc, #-0]	; 130 <_start+0x8>
 12c:	eaffffc4 	b	44 <__cs3_start_c>
 130:	3ffffff8 	.word	0x3ffffff8

00000134 <deregister_tm_clones>:
 134:	e92d4008 	push	{r3, lr}
 138:	e59f002c 	ldr	r0, [pc, #44]	; 16c <deregister_tm_clones+0x38>
 13c:	e59f302c 	ldr	r3, [pc, #44]	; 170 <deregister_tm_clones+0x3c>
 140:	e0603003 	rsb	r3, r0, r3
 144:	e3530006 	cmp	r3, #6
 148:	8a000001 	bhi	154 <deregister_tm_clones+0x20>
 14c:	e8bd4008 	pop	{r3, lr}
 150:	e12fff1e 	bx	lr
 154:	e59f3018 	ldr	r3, [pc, #24]	; 174 <deregister_tm_clones+0x40>
 158:	e3530000 	cmp	r3, #0
 15c:	0afffffa 	beq	14c <deregister_tm_clones+0x18>
 160:	e1a0e00f 	mov	lr, pc
 164:	e12fff13 	bx	r3
 168:	eafffff7 	b	14c <deregister_tm_clones+0x18>
 16c:	00008c20 	.word	0x00008c20
 170:	00008c23 	.word	0x00008c23
 174:	00000000 	.word	0x00000000

00000178 <register_tm_clones>:
 178:	e92d4008 	push	{r3, lr}
 17c:	e59f0034 	ldr	r0, [pc, #52]	; 1b8 <register_tm_clones+0x40>
 180:	e59f3034 	ldr	r3, [pc, #52]	; 1bc <register_tm_clones+0x44>
 184:	e0603003 	rsb	r3, r0, r3
 188:	e1a03143 	asr	r3, r3, #2
 18c:	e0833fa3 	add	r3, r3, r3, lsr #31
 190:	e1b010c3 	asrs	r1, r3, #1
 194:	1a000001 	bne	1a0 <register_tm_clones+0x28>
 198:	e8bd4008 	pop	{r3, lr}
 19c:	e12fff1e 	bx	lr
 1a0:	e59f2018 	ldr	r2, [pc, #24]	; 1c0 <register_tm_clones+0x48>
 1a4:	e3520000 	cmp	r2, #0
 1a8:	0afffffa 	beq	198 <register_tm_clones+0x20>
 1ac:	e1a0e00f 	mov	lr, pc
 1b0:	e12fff12 	bx	r2
 1b4:	eafffff7 	b	198 <register_tm_clones+0x20>
 1b8:	00008c20 	.word	0x00008c20
 1bc:	00008c20 	.word	0x00008c20
 1c0:	00000000 	.word	0x00000000

000001c4 <__do_global_dtors_aux>:
 1c4:	e92d4010 	push	{r4, lr}
 1c8:	e59f402c 	ldr	r4, [pc, #44]	; 1fc <__do_global_dtors_aux+0x38>
 1cc:	e5d43000 	ldrb	r3, [r4]
 1d0:	e3530000 	cmp	r3, #0
 1d4:	1a000006 	bne	1f4 <__do_global_dtors_aux+0x30>
 1d8:	ebffffd5 	bl	134 <deregister_tm_clones>
 1dc:	e59f301c 	ldr	r3, [pc, #28]	; 200 <__do_global_dtors_aux+0x3c>
 1e0:	e3530000 	cmp	r3, #0
 1e4:	159f0018 	ldrne	r0, [pc, #24]	; 204 <__do_global_dtors_aux+0x40>
 1e8:	1320f000 	nopne	{0}
 1ec:	e3a03001 	mov	r3, #1
 1f0:	e5c43000 	strb	r3, [r4]
 1f4:	e8bd4010 	pop	{r4, lr}
 1f8:	e12fff1e 	bx	lr
 1fc:	00008c20 	.word	0x00008c20
 200:	00000000 	.word	0x00000000
 204:	00000a84 	.word	0x00000a84

00000208 <frame_dummy>:
 208:	e92d4008 	push	{r3, lr}
 20c:	e59f3034 	ldr	r3, [pc, #52]	; 248 <frame_dummy+0x40>
 210:	e3530000 	cmp	r3, #0
 214:	159f0030 	ldrne	r0, [pc, #48]	; 24c <frame_dummy+0x44>
 218:	159f1030 	ldrne	r1, [pc, #48]	; 250 <frame_dummy+0x48>
 21c:	1320f000 	nopne	{0}
 220:	e59f002c 	ldr	r0, [pc, #44]	; 254 <frame_dummy+0x4c>
 224:	e5903000 	ldr	r3, [r0]
 228:	e3530000 	cmp	r3, #0
 22c:	0a000003 	beq	240 <frame_dummy+0x38>
 230:	e59f3020 	ldr	r3, [pc, #32]	; 258 <frame_dummy+0x50>
 234:	e3530000 	cmp	r3, #0
 238:	11a0e00f 	movne	lr, pc
 23c:	112fff13 	bxne	r3
 240:	e8bd4008 	pop	{r3, lr}
 244:	eaffffcb 	b	178 <register_tm_clones>
 248:	00000000 	.word	0x00000000
 24c:	00000a84 	.word	0x00000a84
 250:	00008c24 	.word	0x00008c24
 254:	000087e0 	.word	0x000087e0
 258:	00000000 	.word	0x00000000

0000025c <config_audio_demo>:
static volatile int right_buffer[AUDIO_BUF_SIZE];



void config_audio_demo(void)
{
 25c:	e92d4008 	push	{r3, lr}
    volatile int* audio_ptr = (int*)AUDIO_BASE;
    volatile int* KEY_ptr = (int*)KEY_BASE;

    config_interrupt(KEYS_IRQ, CPU0);
 260:	e3a00049 	mov	r0, #73	; 0x49
 264:	e3a01001 	mov	r1, #1
 268:	eb0000d5 	bl	5c4 <config_interrupt>
    config_interrupt(AUDIO_IRQ, CPU0);
 26c:	e3a0004e 	mov	r0, #78	; 0x4e
 270:	e3a01001 	mov	r1, #1
 274:	eb0000d2 	bl	5c4 <config_interrupt>

    // enable audio interrupts
    *audio_ptr = 0x3;
 278:	e3030fff 	movw	r0, #16383	; 0x3fff
    // enable all KEY interrupts
    *(KEY_ptr + 2) = 0xF;
 27c:	e3a01000 	mov	r1, #0

    config_interrupt(KEYS_IRQ, CPU0);
    config_interrupt(AUDIO_IRQ, CPU0);

    // enable audio interrupts
    *audio_ptr = 0x3;
 280:	e34f0f20 	movt	r0, #65312	; 0xff20
 284:	e3a0c003 	mov	r12, #3
 288:	e500cfbf 	str	r12, [r0, #-4031]	; 0xfffff041
    // enable all KEY interrupts
    *(KEY_ptr + 2) = 0xF;

    iaudiobuf = 0;
 28c:	e1a02001 	mov	r2, r1
 290:	e3083c3c 	movw	r3, #35900	; 0x8c3c
    config_interrupt(AUDIO_IRQ, CPU0);

    // enable audio interrupts
    *audio_ptr = 0x3;
    // enable all KEY interrupts
    *(KEY_ptr + 2) = 0xF;
 294:	e34f1f20 	movt	r1, #65312	; 0xff20
 298:	e3a0000f 	mov	r0, #15

    iaudiobuf = 0;
 29c:	e3403000 	movt	r3, #0
    config_interrupt(AUDIO_IRQ, CPU0);

    // enable audio interrupts
    *audio_ptr = 0x3;
    // enable all KEY interrupts
    *(KEY_ptr + 2) = 0xF;
 2a0:	e5810058 	str	r0, [r1, #88]	; 0x58

    iaudiobuf = 0;
    freq_mult = 1;
 2a4:	e3a01001 	mov	r1, #1
    // enable audio interrupts
    *audio_ptr = 0x3;
    // enable all KEY interrupts
    *(KEY_ptr + 2) = 0xF;

    iaudiobuf = 0;
 2a8:	e5832000 	str	r2, [r3]
    freq_mult = 1;
 2ac:	e5831004 	str	r1, [r3, #4]
    lut_counter = 0;
 2b0:	e5832008 	str	r2, [r3, #8]
    effect = EFF_DEFAULT;
 2b4:	e583200c 	str	r2, [r3, #12]
 2b8:	e8bd8008 	pop	{r3, pc}

000002bc <keys_ISR>:
}


void keys_ISR(void)
{
 2bc:	e92d4008 	push	{r3, lr}
    disable_irq();
 2c0:	eb0000bb 	bl	5b4 <disable_irq>

    volatile int* key_ptr = (int*)KEY_BASE;
    //volatile int* hex03_ptr = (int*)

    int press = *(key_ptr + 3);
 2c4:	e3a02000 	mov	r2, #0
 2c8:	e34f2f20 	movt	r2, #65312	; 0xff20
 2cc:	e592305c 	ldr	r3, [r2, #92]	; 0x5c
    *(key_ptr + 3) = press;

    if (press & 0x1)
 2d0:	e3130001 	tst	r3, #1

    volatile int* key_ptr = (int*)KEY_BASE;
    //volatile int* hex03_ptr = (int*)

    int press = *(key_ptr + 3);
    *(key_ptr + 3) = press;
 2d4:	e582305c 	str	r3, [r2, #92]	; 0x5c

    if (press & 0x1)
 2d8:	0a000008 	beq	300 <keys_ISR+0x44>
    {
        if (freq_mult < 5)
 2dc:	e3083c3c 	movw	r3, #35900	; 0x8c3c
 2e0:	e3403000 	movt	r3, #0
 2e4:	e5932004 	ldr	r2, [r3, #4]
 2e8:	e3520004 	cmp	r2, #4
            freq_mult++;
 2ec:	d5932004 	ldrle	r2, [r3, #4]
 2f0:	d2822001 	addle	r2, r2, #1
 2f4:	d5832004 	strle	r2, [r3, #4]
        lut_counter = 0;
    }

    enable_irq();
    return;
}
 2f8:	e8bd4008 	pop	{r3, lr}

        freq_mult = 1;
        lut_counter = 0;
    }

    enable_irq();
 2fc:	ea0000a8 	b	5a4 <enable_irq>
    if (press & 0x1)
    {
        if (freq_mult < 5)
            freq_mult++;
    }
    else if (press & 0x2){
 300:	e3130002 	tst	r3, #2
 304:	1a00000d 	bne	340 <keys_ISR+0x84>
       //*red_LED_ptr = 0x2;
        freq_mult--;
    }
    else if (press & 0x4){
 308:	e2133004 	ands	r3, r3, #4
 30c:	1afffff9 	bne	2f8 <keys_ISR+0x3c>
       //*red_LED_ptr = 0x4;

    }
    else{
        if (effect == EFF_LOOP)
 310:	e3082c3c 	movw	r2, #35900	; 0x8c3c
 314:	e3402000 	movt	r2, #0
 318:	e592100c 	ldr	r1, [r2, #12]
 31c:	e3510004 	cmp	r1, #4
            effect = EFF_DEFAULT;
        else
            effect++;
 320:	1592300c 	ldrne	r3, [r2, #12]
 324:	12833001 	addne	r3, r3, #1
 328:	e582300c 	str	r3, [r2, #12]

        freq_mult = 1;
 32c:	e3a03001 	mov	r3, #1
 330:	e5823004 	str	r3, [r2, #4]
        lut_counter = 0;
 334:	e3a03000 	mov	r3, #0
 338:	e5823008 	str	r3, [r2, #8]
 33c:	eaffffed 	b	2f8 <keys_ISR+0x3c>
        if (freq_mult < 5)
            freq_mult++;
    }
    else if (press & 0x2){
       //*red_LED_ptr = 0x2;
        freq_mult--;
 340:	e3083c3c 	movw	r3, #35900	; 0x8c3c
 344:	e3403000 	movt	r3, #0
 348:	e5932004 	ldr	r2, [r3, #4]
 34c:	e2422001 	sub	r2, r2, #1
 350:	e5832004 	str	r2, [r3, #4]
 354:	eaffffe7 	b	2f8 <keys_ISR+0x3c>

00000358 <lowpass>:


int lowpass(int input)
{
    static int last_sample = 0;
    signed int retvalue = (input + (last_sample * 7)) >> 3;
 358:	e3083c3c 	movw	r3, #35900	; 0x8c3c
 35c:	e3403000 	movt	r3, #0
 360:	e5932010 	ldr	r2, [r3, #16]
 364:	e0622182 	rsb	r2, r2, r2, lsl #3
 368:	e0820000 	add	r0, r2, r0
 36c:	e1a001c0 	asr	r0, r0, #3
    last_sample = retvalue;
 370:	e5830010 	str	r0, [r3, #16]
    return retvalue;
}
 374:	e12fff1e 	bx	lr

00000378 <audio_ISR>:


void audio_ISR(void)
{
 378:	e92d47f0 	push	{r4, r5, r6, r7, r8, r9, r10, lr}

	volatile int* audio_ptr = (int *)AUDIO_BASE;

	int fifospace;

	if (*(audio_ptr) & 0x100) // check read interrupt
 37c:	e3035fff 	movw	r5, #16383	; 0x3fff
 380:	e34f5f20 	movt	r5, #65312	; 0xff20
}


void audio_ISR(void)
{
    disable_irq();
 384:	eb00008a 	bl	5b4 <disable_irq>

	volatile int* audio_ptr = (int *)AUDIO_BASE;

	int fifospace;

	if (*(audio_ptr) & 0x100) // check read interrupt
 388:	e5153fbf 	ldr	r3, [r5, #-4031]	; 0xfffff041
 38c:	e3130c01 	tst	r3, #256	; 0x100
 390:	0a000045 	beq	4ac <audio_ISR+0x134>
	{  
		fifospace = *(audio_ptr + 1);
 394:	e5153fbb 	ldr	r3, [r5, #-4027]	; 0xfffff045
		// read until buffer is full or audio-in FIFO is empty
		while ((fifospace & 0x000000FF) && (iaudiobuf < AUDIO_BUF_SIZE))
 398:	e31300ff 	tst	r3, #255	; 0xff
 39c:	0a000042 	beq	4ac <audio_ISR+0x134>
 3a0:	e308cc3c 	movw	r12, #35900	; 0x8c3c
 3a4:	e3056dbf 	movw	r6, #23999	; 0x5dbf
 3a8:	e340c000 	movt	r12, #0
 3ac:	e59c3000 	ldr	r3, [r12]
 3b0:	e1530006 	cmp	r3, r6
 3b4:	ca00003c 	bgt	4ac <audio_ISR+0x134>
            switch(effect)
            {
                case EFF_DEFAULT:
                case EFF_PITCH:
                left_buffer[iaudiobuf] = left;
                right_buffer[iaudiobuf] = right;
 3b8:	e3008bdc 	movw	r8, #3036	; 0xbdc
                ++iaudiobuf;
                break;

                case EFF_TREMELO:
                left_buffer[iaudiobuf] = (int32_t)((left * (int64_t)sin_LUT[lut_counter]) >> 30);
 3bc:	e3007a88 	movw	r7, #2696	; 0xa88
		while ((fifospace & 0x000000FF) && (iaudiobuf < AUDIO_BUF_SIZE))
		{
            int left = *(audio_ptr + 2);
            int right = *(audio_ptr + 3);
            
            switch(effect)
 3c0:	e1a0400c 	mov	r4, r12
            {
                case EFF_DEFAULT:
                case EFF_PITCH:
                left_buffer[iaudiobuf] = left;
                right_buffer[iaudiobuf] = right;
 3c4:	e3408002 	movt	r8, #2
                ++iaudiobuf;
                break;

                case EFF_TREMELO:
                left_buffer[iaudiobuf] = (int32_t)((left * (int64_t)sin_LUT[lut_counter]) >> 30);
 3c8:	e3407000 	movt	r7, #0
                right_buffer[iaudiobuf] = (int32_t)((right * (int64_t)sin_LUT[lut_counter]) >> 30);
                lut_counter += freq_mult;
                if (lut_counter >= SAMPLE_RATE) 
 3cc:	e301af3f 	movw	r10, #7999	; 0x1f3f
                    lut_counter = 0;
 3d0:	e3a09000 	mov	r9, #0
 3d4:	ea00000e 	b	414 <audio_ISR+0x9c>
            
            switch(effect)
            {
                case EFF_DEFAULT:
                case EFF_PITCH:
                left_buffer[iaudiobuf] = left;
 3d8:	e5943000 	ldr	r3, [r4]
 3dc:	e0843103 	add	r3, r4, r3, lsl #2
 3e0:	e5831014 	str	r1, [r3, #20]
                right_buffer[iaudiobuf] = right;
 3e4:	e5943000 	ldr	r3, [r4]
 3e8:	e0883103 	add	r3, r8, r3, lsl #2
 3ec:	e503288c 	str	r2, [r3, #-2188]	; 0xfffff774
                ++iaudiobuf;
 3f0:	e5943000 	ldr	r3, [r4]
 3f4:	e2833001 	add	r3, r3, #1
 3f8:	e5843000 	str	r3, [r4]

                ++iaudiobuf;
                break;
            }
           
			fifospace = *(audio_ptr + 1);
 3fc:	e5153fbb 	ldr	r3, [r5, #-4027]	; 0xfffff045

	if (*(audio_ptr) & 0x100) // check read interrupt
	{  
		fifospace = *(audio_ptr + 1);
		// read until buffer is full or audio-in FIFO is empty
		while ((fifospace & 0x000000FF) && (iaudiobuf < AUDIO_BUF_SIZE))
 400:	e31300ff 	tst	r3, #255	; 0xff
 404:	0a000028 	beq	4ac <audio_ISR+0x134>
 408:	e59c3000 	ldr	r3, [r12]
 40c:	e1530006 	cmp	r3, r6
 410:	ca000025 	bgt	4ac <audio_ISR+0x134>
		{
            int left = *(audio_ptr + 2);
 414:	e5151fb7 	ldr	r1, [r5, #-4023]	; 0xfffff049
            int right = *(audio_ptr + 3);
 418:	e5152fb3 	ldr	r2, [r5, #-4019]	; 0xfffff04d
            
            switch(effect)
 41c:	e59c300c 	ldr	r3, [r12, #12]
 420:	e3530000 	cmp	r3, #0
 424:	bafffff4 	blt	3fc <audio_ISR+0x84>
 428:	e3530001 	cmp	r3, #1
 42c:	daffffe9 	ble	3d8 <audio_ISR+0x60>
 430:	e3530002 	cmp	r3, #2
 434:	1afffff0 	bne	3fc <audio_ISR+0x84>
                right_buffer[iaudiobuf] = right;
                ++iaudiobuf;
                break;

                case EFF_TREMELO:
                left_buffer[iaudiobuf] = (int32_t)((left * (int64_t)sin_LUT[lut_counter]) >> 30);
 438:	e5943000 	ldr	r3, [r4]
 43c:	e5940008 	ldr	r0, [r4, #8]
 440:	e7970100 	ldr	r0, [r7, r0, lsl #2]
 444:	e0843103 	add	r3, r4, r3, lsl #2
 448:	e0c10091 	smull	r0, r1, r1, r0
 44c:	e1a00f20 	lsr	r0, r0, #30
 450:	e1800101 	orr	r0, r0, r1, lsl #2
 454:	e5830014 	str	r0, [r3, #20]
                right_buffer[iaudiobuf] = (int32_t)((right * (int64_t)sin_LUT[lut_counter]) >> 30);
 458:	e5941000 	ldr	r1, [r4]
 45c:	e5943008 	ldr	r3, [r4, #8]
 460:	e7973103 	ldr	r3, [r7, r3, lsl #2]
 464:	e0881101 	add	r1, r8, r1, lsl #2
 468:	e0c32392 	smull	r2, r3, r2, r3
 46c:	e1a02f22 	lsr	r2, r2, #30
 470:	e1822103 	orr	r2, r2, r3, lsl #2
 474:	e501288c 	str	r2, [r1, #-2188]	; 0xfffff774
                lut_counter += freq_mult;
 478:	e5942008 	ldr	r2, [r4, #8]
 47c:	e5943004 	ldr	r3, [r4, #4]
 480:	e0823003 	add	r3, r2, r3
 484:	e5843008 	str	r3, [r4, #8]
                if (lut_counter >= SAMPLE_RATE) 
 488:	e5943008 	ldr	r3, [r4, #8]
 48c:	e153000a 	cmp	r3, r10
                    lut_counter = 0;
 490:	c5849008 	strgt	r9, [r4, #8]

                ++iaudiobuf;
 494:	e59c3000 	ldr	r3, [r12]
 498:	e2833001 	add	r3, r3, #1
 49c:	e58c3000 	str	r3, [r12]
                break;
            }
           
			fifospace = *(audio_ptr + 1);
 4a0:	e5153fbb 	ldr	r3, [r5, #-4027]	; 0xfffff045

	if (*(audio_ptr) & 0x100) // check read interrupt
	{  
		fifospace = *(audio_ptr + 1);
		// read until buffer is full or audio-in FIFO is empty
		while ((fifospace & 0x000000FF) && (iaudiobuf < AUDIO_BUF_SIZE))
 4a4:	e31300ff 	tst	r3, #255	; 0xff
 4a8:	1affffd6 	bne	408 <audio_ISR+0x90>
           
			fifospace = *(audio_ptr + 1);

		}
	}
	if (*(audio_ptr) & 0x200) // check write interrupt
 4ac:	e3033fff 	movw	r3, #16383	; 0x3fff
 4b0:	e34f3f20 	movt	r3, #65312	; 0xff20
 4b4:	e5132fbf 	ldr	r2, [r3, #-4031]	; 0xfffff041
 4b8:	e3120c02 	tst	r2, #512	; 0x200
 4bc:	0a000021 	beq	548 <audio_ISR+0x1d0>
	{
		fifospace = *(audio_ptr + 1);
 4c0:	e5132fbb 	ldr	r2, [r3, #-4027]	; 0xfffff045
		// output until buffer is empty or audio-out FIFO is full
		while ((fifospace & 0x00FF0000) && (iaudiobuf > 0))
 4c4:	e31208ff 	tst	r2, #16711680	; 0xff0000
 4c8:	0a00001e 	beq	548 <audio_ISR+0x1d0>
 4cc:	e308cc3c 	movw	r12, #35900	; 0x8c3c
 4d0:	e340c000 	movt	r12, #0
 4d4:	e59c2000 	ldr	r2, [r12]
 4d8:	e3520000 	cmp	r2, #0
 4dc:	da000019 	ble	548 <audio_ISR+0x1d0>
 4e0:	e3000bdc 	movw	r0, #3036	; 0xbdc
		{
            *(audio_ptr + 2) = left_buffer[iaudiobuf];
 4e4:	e1a0200c 	mov	r2, r12
 4e8:	e3400002 	movt	r0, #2
 4ec:	ea000002 	b	4fc <audio_ISR+0x184>
	}
	if (*(audio_ptr) & 0x200) // check write interrupt
	{
		fifospace = *(audio_ptr + 1);
		// output until buffer is empty or audio-out FIFO is full
		while ((fifospace & 0x00FF0000) && (iaudiobuf > 0))
 4f0:	e59c1000 	ldr	r1, [r12]
 4f4:	e3510000 	cmp	r1, #0
 4f8:	da000012 	ble	548 <audio_ISR+0x1d0>
		{
            *(audio_ptr + 2) = left_buffer[iaudiobuf];
 4fc:	e59c1000 	ldr	r1, [r12]
 500:	e08c1101 	add	r1, r12, r1, lsl #2
 504:	e5911014 	ldr	r1, [r1, #20]
 508:	e5031fb7 	str	r1, [r3, #-4023]	; 0xfffff049
            *(audio_ptr + 3) = right_buffer[iaudiobuf];
 50c:	e59c1000 	ldr	r1, [r12]
 510:	e0801101 	add	r1, r0, r1, lsl #2
 514:	e511188c 	ldr	r1, [r1, #-2188]	; 0xfffff774
 518:	e5031fb3 	str	r1, [r3, #-4019]	; 0xfffff04d

            if (effect == EFF_PITCH)
 51c:	e59c100c 	ldr	r1, [r12, #12]
 520:	e3510001 	cmp	r1, #1
                iaudiobuf -= freq_mult;
 524:	05924000 	ldreq	r4, [r2]
            else --iaudiobuf;
 528:	15921000 	ldrne	r1, [r2]
		{
            *(audio_ptr + 2) = left_buffer[iaudiobuf];
            *(audio_ptr + 3) = right_buffer[iaudiobuf];

            if (effect == EFF_PITCH)
                iaudiobuf -= freq_mult;
 52c:	05921004 	ldreq	r1, [r2, #4]
            else --iaudiobuf;
 530:	12411001 	subne	r1, r1, #1
		{
            *(audio_ptr + 2) = left_buffer[iaudiobuf];
            *(audio_ptr + 3) = right_buffer[iaudiobuf];

            if (effect == EFF_PITCH)
                iaudiobuf -= freq_mult;
 534:	00611004 	rsbeq	r1, r1, r4
            else --iaudiobuf;
 538:	e5821000 	str	r1, [r2]

			fifospace = *(audio_ptr + 1);
 53c:	e5131fbb 	ldr	r1, [r3, #-4027]	; 0xfffff045
	}
	if (*(audio_ptr) & 0x200) // check write interrupt
	{
		fifospace = *(audio_ptr + 1);
		// output until buffer is empty or audio-out FIFO is full
		while ((fifospace & 0x00FF0000) && (iaudiobuf > 0))
 540:	e31108ff 	tst	r1, #16711680	; 0xff0000
 544:	1affffe9 	bne	4f0 <audio_ISR+0x178>
		}
	}

    enable_irq();
	return;
}
 548:	e8bd47f0 	pop	{r4, r5, r6, r7, r8, r9, r10, lr}

			fifospace = *(audio_ptr + 1);
		}
	}

    enable_irq();
 54c:	ea000014 	b	5a4 <enable_irq>

00000550 <__cs3_reset>:
#include "defines.h"
#include "address_map_arm.h"


void __attribute__((interrupt)) __cs3_reset(void)
{
 550:	eafffffe 	b	550 <__cs3_reset>

00000554 <__cs3_isr_undef>:
    while (1);
}

void __attribute__((interrupt)) __cs3_isr_undef(void)
{
 554:	eafffffe 	b	554 <__cs3_isr_undef>

00000558 <__cs3_isr_swi>:
    while (1);
}

void __attribute__((interrupt)) __cs3_isr_swi(void)
{
 558:	eafffffe 	b	558 <__cs3_isr_swi>

0000055c <__cs3_isr_pabort>:
    while (1);
}

void __attribute__((interrupt)) __cs3_isr_pabort(void)
{
 55c:	eafffffe 	b	55c <__cs3_isr_pabort>

00000560 <__cs3_isr_dabort>:
    while (1);
}

void __attribute__((interrupt)) __cs3_isr_dabort(void)
{
 560:	eafffffe 	b	560 <__cs3_isr_dabort>

00000564 <__cs3_isr_irq>:
    while (1);
}

// using_gic.pdf
void __attribute__((interrupt)) __cs3_isr_irq(void)
{
 564:	e24ee004 	sub	lr, lr, #4
 568:	e92d503f 	push	{r0, r1, r2, r3, r4, r5, r12, lr}
    int address = MPCORE_GIC_CPUIF + ICCIAR;
    int int_ID = *((int*)address);
 56c:	e3e03a13 	mvn	r3, #77824	; 0x13000
 570:	e5134ef3 	ldr	r4, [r3, #-3827]	; 0xfffff10d

    if (int_ID == AUDIO_IRQ)
 574:	e354004e 	cmp	r4, #78	; 0x4e
 578:	0a000006 	beq	598 <__cs3_isr_irq+0x34>
        audio_ISR();
    else if (int_ID == KEYS_IRQ)
 57c:	e3540049 	cmp	r4, #73	; 0x49
 580:	0a000000 	beq	588 <__cs3_isr_irq+0x24>
 584:	eafffffe 	b	584 <__cs3_isr_irq+0x20>
        keys_ISR();
 588:	ebffff4b 	bl	2bc <keys_ISR>
    else
        while (1);

    // acknowledge interrupt
    address = MPCORE_GIC_CPUIF + ICCEOIR;
    *((int*)address) = int_ID;
 58c:	e3e03a13 	mvn	r3, #77824	; 0x13000
 590:	e5034eef 	str	r4, [r3, #-3823]	; 0xfffff111
 594:	e8fd903f 	ldm	sp!, {r0, r1, r2, r3, r4, r5, r12, pc}^
{
    int address = MPCORE_GIC_CPUIF + ICCIAR;
    int int_ID = *((int*)address);

    if (int_ID == AUDIO_IRQ)
        audio_ISR();
 598:	ebffff76 	bl	378 <audio_ISR>
 59c:	eafffffa 	b	58c <__cs3_isr_irq+0x28>

000005a0 <__cs3_isr_fiq>:

    return;
}

void __attribute__((interrupt)) __cs3_isr_fiq(void)
{
 5a0:	eafffffe 	b	5a0 <__cs3_isr_fiq>

000005a4 <enable_irq>:


void enable_irq(void)
{
    int status;
    asm("mrs %[ps], cpsr" : [ps] "=r"(status) :);
 5a4:	e10f3000 	mrs	r3, CPSR
    write_bits(&status, ~CPSR_IRQ_MASK, 0);
 5a8:	e3c33080 	bic	r3, r3, #128	; 0x80
    asm("msr cpsr, %[ps]" : : [ps] "r"(status));
 5ac:	e129f003 	msr	CPSR_fc, r3
 5b0:	e12fff1e 	bx	lr

000005b4 <disable_irq>:
}

void disable_irq(void)
{
    int status;
    asm("mrs %[ps], cpsr" : [ps] "=r"(status) : );
 5b4:	e10f3000 	mrs	r3, CPSR
    write_bits(&status, ~CPSR_IRQ_MASK, CPSR_IRQ_MASK);
 5b8:	e3833080 	orr	r3, r3, #128	; 0x80
    asm("msr cpsr, %[ps]" : : [ps] "r"(status));
 5bc:	e129f003 	msr	CPSR_fc, r3
 5c0:	e12fff1e 	bx	lr

000005c4 <config_interrupt>:

    // Set interrupt CPU targets (ICDIPTRn).
    // reg offset = ICPIPTR + integer_div(N, 4) * 4
    // interrupt bit = (N mod 4) * 8
    intr_bit = (int_ID & 0x3) << 3;
    addr = MPCORE_GIC_DIST + ICDIPTR + ((int_ID >> 2) << 2);
 5c4:	e3c02003 	bic	r2, r0, #3
}


// using_gic.pdf
void config_interrupt(int int_ID, int CPU_targets)
{
 5c8:	e92d0030 	push	{r4, r5}

    // Set interrupt CPU targets (ICDIPTRn).
    // reg offset = ICPIPTR + integer_div(N, 4) * 4
    // interrupt bit = (N mod 4) * 8
    intr_bit = (int_ID & 0x3) << 3;
    addr = MPCORE_GIC_DIST + ICDIPTR + ((int_ID >> 2) << 2);
 5cc:	e2422b4a 	sub	r2, r2, #75776	; 0x12800
    int intr_bit, addr;

    // Set interrupt CPU targets (ICDIPTRn).
    // reg offset = ICPIPTR + integer_div(N, 4) * 4
    // interrupt bit = (N mod 4) * 8
    intr_bit = (int_ID & 0x3) << 3;
 5d0:	e200c003 	and	r12, r0, #3
 5d4:	e1a0c18c 	lsl	r12, r12, #3

    // Set interrupt enable (ICDISERn).
    // reg offset = ICDISER + integer_div(N, 32) * 4
    // interrupt bit = N mod 32
    intr_bit = int_ID & 0x1f;
    addr = MPCORE_GIC_DIST + ICDISER + ((int_ID >> 5) << 2);
 5d8:	e1a032c0 	asr	r3, r0, #5
    // Set interrupt CPU targets (ICDIPTRn).
    // reg offset = ICPIPTR + integer_div(N, 4) * 4
    // interrupt bit = (N mod 4) * 8
    intr_bit = (int_ID & 0x3) << 3;
    addr = MPCORE_GIC_DIST + ICDIPTR + ((int_ID >> 2) << 2);
    write_bits((volatile int*)addr, ~(0xff << intr_bit), CPU_targets << intr_bit);
 5dc:	e5924000 	ldr	r4, [r2]
    // Set interrupt enable (ICDISERn).
    // reg offset = ICDISER + integer_div(N, 32) * 4
    // interrupt bit = N mod 32
    intr_bit = int_ID & 0x1f;
    addr = MPCORE_GIC_DIST + ICDISER + ((int_ID >> 5) << 2);
    write_bits((volatile int*)addr, ~(0x1 << intr_bit), 0x1 << intr_bit);
 5e0:	e3a05001 	mov	r5, #1
    write_bits((volatile int*)addr, ~(0xff << intr_bit), CPU_targets << intr_bit);

    // Set interrupt enable (ICDISERn).
    // reg offset = ICDISER + integer_div(N, 32) * 4
    // interrupt bit = N mod 32
    intr_bit = int_ID & 0x1f;
 5e4:	e200001f 	and	r0, r0, #31
    addr = MPCORE_GIC_DIST + ICDISER + ((int_ID >> 5) << 2);
    write_bits((volatile int*)addr, ~(0x1 << intr_bit), 0x1 << intr_bit);
 5e8:	e1a00015 	lsl	r0, r5, r0
    // Set interrupt CPU targets (ICDIPTRn).
    // reg offset = ICPIPTR + integer_div(N, 4) * 4
    // interrupt bit = (N mod 4) * 8
    intr_bit = (int_ID & 0x3) << 3;
    addr = MPCORE_GIC_DIST + ICDIPTR + ((int_ID >> 2) << 2);
    write_bits((volatile int*)addr, ~(0xff << intr_bit), CPU_targets << intr_bit);
 5ec:	e3a050ff 	mov	r5, #255	; 0xff

    // Set interrupt enable (ICDISERn).
    // reg offset = ICDISER + integer_div(N, 32) * 4
    // interrupt bit = N mod 32
    intr_bit = int_ID & 0x1f;
    addr = MPCORE_GIC_DIST + ICDISER + ((int_ID >> 5) << 2);
 5f0:	e1a03103 	lsl	r3, r3, #2
    // Set interrupt CPU targets (ICDIPTRn).
    // reg offset = ICPIPTR + integer_div(N, 4) * 4
    // interrupt bit = (N mod 4) * 8
    intr_bit = (int_ID & 0x3) << 3;
    addr = MPCORE_GIC_DIST + ICDIPTR + ((int_ID >> 2) << 2);
    write_bits((volatile int*)addr, ~(0xff << intr_bit), CPU_targets << intr_bit);
 5f4:	e1c44c15 	bic	r4, r4, r5, lsl r12

    // Set interrupt enable (ICDISERn).
    // reg offset = ICDISER + integer_div(N, 32) * 4
    // interrupt bit = N mod 32
    intr_bit = int_ID & 0x1f;
    addr = MPCORE_GIC_DIST + ICDISER + ((int_ID >> 5) << 2);
 5f8:	e2433b4b 	sub	r3, r3, #76800	; 0x12c00
    // Set interrupt CPU targets (ICDIPTRn).
    // reg offset = ICPIPTR + integer_div(N, 4) * 4
    // interrupt bit = (N mod 4) * 8
    intr_bit = (int_ID & 0x3) << 3;
    addr = MPCORE_GIC_DIST + ICDIPTR + ((int_ID >> 2) << 2);
    write_bits((volatile int*)addr, ~(0xff << intr_bit), CPU_targets << intr_bit);
 5fc:	e1841c11 	orr	r1, r4, r1, lsl r12
 600:	e5821000 	str	r1, [r2]
    // Set interrupt enable (ICDISERn).
    // reg offset = ICDISER + integer_div(N, 32) * 4
    // interrupt bit = N mod 32
    intr_bit = int_ID & 0x1f;
    addr = MPCORE_GIC_DIST + ICDISER + ((int_ID >> 5) << 2);
    write_bits((volatile int*)addr, ~(0x1 << intr_bit), 0x1 << intr_bit);
 604:	e5132300 	ldr	r2, [r3, #-768]	; 0xfffffd00
 608:	e1c22000 	bic	r2, r2, r0
 60c:	e1820000 	orr	r0, r2, r0
 610:	e5030300 	str	r0, [r3, #-768]	; 0xfffffd00
}
 614:	e8bd0030 	pop	{r4, r5}
 618:	e12fff1e 	bx	lr

0000061c <init_interrupts>:
    int stack, mode, addr;

    // Initialize banked stack pointer for IRQ mode
    stack = A9_ONCHIP_END - 7;
    mode = CPSR_IRQ_DISABLE | IRQ_MODE;
    asm("msr cpsr, %[ps]" : : [ps] "r" (mode));
 61c:	e3a030d2 	mov	r3, #210	; 0xd2
 620:	e129f003 	msr	CPSR_fc, r3
    asm("mov sp, %[ps]" : : [ps] "r" (stack));
 624:	e3e03007 	mvn	r3, #7
 628:	e1a0d003 	mov	sp, r3
    mode = CPSR_IRQ_DISABLE | SVC_MODE;
    asm("msr cpsr, %[ps]" : : [ps] "r" (mode));
 62c:	e3a030d3 	mov	r3, #211	; 0xd3
 630:	e129f003 	msr	CPSR_fc, r3

    // enable interrupts for all priorities
    addr = MPCORE_GIC_CPUIF + ICCPMR;
    *((int*)addr) = 0xFFFF;
 634:	e3e02a13 	mvn	r2, #77824	; 0x13000

    // enable interrupt signalling from CPU interface
    addr = MPCORE_GIC_CPUIF + ICCICR;
    *((int*)addr) = ENABLE;
 638:	e3a03001 	mov	r3, #1
    mode = CPSR_IRQ_DISABLE | SVC_MODE;
    asm("msr cpsr, %[ps]" : : [ps] "r" (mode));

    // enable interrupts for all priorities
    addr = MPCORE_GIC_CPUIF + ICCPMR;
    *((int*)addr) = 0xFFFF;
 63c:	e30f1fff 	movw	r1, #65535	; 0xffff

    // enable interrupt signalling from CPU interface
    addr = MPCORE_GIC_CPUIF + ICCICR;
    *((int*)addr) = ENABLE;
 640:	e5023eff 	str	r3, [r2, #-3839]	; 0xfffff101
    mode = CPSR_IRQ_DISABLE | SVC_MODE;
    asm("msr cpsr, %[ps]" : : [ps] "r" (mode));

    // enable interrupts for all priorities
    addr = MPCORE_GIC_CPUIF + ICCPMR;
    *((int*)addr) = 0xFFFF;
 644:	e5021efb 	str	r1, [r2, #-3835]	; 0xfffff105
    addr = MPCORE_GIC_CPUIF + ICCICR;
    *((int*)addr) = ENABLE;

    // enable interrupt distributor
    addr = MPCORE_GIC_DIST + ICDDCR;
    *((int*)addr) = ENABLE;
 648:	e3e02a12 	mvn	r2, #73728	; 0x12000
 64c:	e5023fff 	str	r3, [r2, #-4095]	; 0xfffff001
 650:	e12fff1e 	bx	lr

00000654 <main>:
#include "defines.h"

int main(void) 
{
 654:	e92d4008 	push	{r3, lr}
    init_interrupts();
 658:	ebffffef 	bl	61c <init_interrupts>
    config_audio_demo();
 65c:	ebfffefe 	bl	25c <config_audio_demo>
    enable_irq();
 660:	ebffffcf 	bl	5a4 <enable_irq>
 664:	eafffffe 	b	664 <main+0x10>

00000668 <atexit>:
 668:	e1a01000 	mov	r1, r0
 66c:	e3a00000 	mov	r0, #0
 670:	e92d4008 	push	{r3, lr}
 674:	e1a02000 	mov	r2, r0
 678:	e1a03000 	mov	r3, r0
 67c:	eb00000e 	bl	6bc <__register_exitproc>
 680:	e8bd4008 	pop	{r3, lr}
 684:	e12fff1e 	bx	lr

00000688 <exit>:
 688:	e92d4008 	push	{r3, lr}
 68c:	e3a01000 	mov	r1, #0
 690:	e1a04000 	mov	r4, r0
 694:	eb000045 	bl	7b0 <__call_exitprocs>
 698:	e59f3018 	ldr	r3, [pc, #24]	; 6b8 <exit+0x30>
 69c:	e5930000 	ldr	r0, [r3]
 6a0:	e590303c 	ldr	r3, [r0, #60]	; 0x3c
 6a4:	e3530000 	cmp	r3, #0
 6a8:	11a0e00f 	movne	lr, pc
 6ac:	112fff13 	bxne	r3
 6b0:	e1a00004 	mov	r0, r4
 6b4:	eb0000c9 	bl	9e0 <_exit>
 6b8:	00008788 	.word	0x00008788

000006bc <__register_exitproc>:
 6bc:	e59fc0e4 	ldr	r12, [pc, #228]	; 7a8 <__register_exitproc+0xec>
 6c0:	e92d41f0 	push	{r4, r5, r6, r7, r8, lr}
 6c4:	e59c4000 	ldr	r4, [r12]
 6c8:	e594c148 	ldr	r12, [r4, #328]	; 0x148
 6cc:	e35c0000 	cmp	r12, #0
 6d0:	0284cf53 	addeq	r12, r4, #332	; 0x14c
 6d4:	e59c5004 	ldr	r5, [r12, #4]
 6d8:	0584c148 	streq	r12, [r4, #328]	; 0x148
 6dc:	e355001f 	cmp	r5, #31
 6e0:	e24dd010 	sub	sp, sp, #16
 6e4:	e1a06000 	mov	r6, r0
 6e8:	da000015 	ble	744 <__register_exitproc+0x88>
 6ec:	e59f00b8 	ldr	r0, [pc, #184]	; 7ac <__register_exitproc+0xf0>
 6f0:	e3500000 	cmp	r0, #0
 6f4:	1a000001 	bne	700 <__register_exitproc+0x44>
 6f8:	e3e00000 	mvn	r0, #0
 6fc:	ea000018 	b	764 <__register_exitproc+0xa8>
 700:	e3a00e19 	mov	r0, #400	; 0x190
 704:	e58d100c 	str	r1, [sp, #12]
 708:	e58d2008 	str	r2, [sp, #8]
 70c:	e58d3004 	str	r3, [sp, #4]
 710:	e320f000 	nop	{0}
 714:	e250c000 	subs	r12, r0, #0
 718:	e59d100c 	ldr	r1, [sp, #12]
 71c:	e59d2008 	ldr	r2, [sp, #8]
 720:	e59d3004 	ldr	r3, [sp, #4]
 724:	0afffff3 	beq	6f8 <__register_exitproc+0x3c>
 728:	e5945148 	ldr	r5, [r4, #328]	; 0x148
 72c:	e3a00000 	mov	r0, #0
 730:	e58c0004 	str	r0, [r12, #4]
 734:	e58c5000 	str	r5, [r12]
 738:	e584c148 	str	r12, [r4, #328]	; 0x148
 73c:	e58c0188 	str	r0, [r12, #392]	; 0x188
 740:	e58c018c 	str	r0, [r12, #396]	; 0x18c
 744:	e3560000 	cmp	r6, #0
 748:	e59c4004 	ldr	r4, [r12, #4]
 74c:	1a000007 	bne	770 <__register_exitproc+0xb4>
 750:	e2843002 	add	r3, r4, #2
 754:	e2844001 	add	r4, r4, #1
 758:	e78c1103 	str	r1, [r12, r3, lsl #2]
 75c:	e58c4004 	str	r4, [r12, #4]
 760:	e3a00000 	mov	r0, #0
 764:	e28dd010 	add	sp, sp, #16
 768:	e8bd41f0 	pop	{r4, r5, r6, r7, r8, lr}
 76c:	e12fff1e 	bx	lr
 770:	e3a00001 	mov	r0, #1
 774:	e1a00410 	lsl	r0, r0, r4
 778:	e08c8104 	add	r8, r12, r4, lsl #2
 77c:	e3560002 	cmp	r6, #2
 780:	e59c7188 	ldr	r7, [r12, #392]	; 0x188
 784:	e5883108 	str	r3, [r8, #264]	; 0x108
 788:	059c318c 	ldreq	r3, [r12, #396]	; 0x18c
 78c:	e1877000 	orr	r7, r7, r0
 790:	01830000 	orreq	r0, r3, r0
 794:	e1a05008 	mov	r5, r8
 798:	e5882088 	str	r2, [r8, #136]	; 0x88
 79c:	e58c7188 	str	r7, [r12, #392]	; 0x188
 7a0:	058c018c 	streq	r0, [r12, #396]	; 0x18c
 7a4:	eaffffe9 	b	750 <__register_exitproc+0x94>
 7a8:	00008788 	.word	0x00008788
 7ac:	00000000 	.word	0x00000000

000007b0 <__call_exitprocs>:
 7b0:	e92d4ff0 	push	{r4, r5, r6, r7, r8, r9, r10, r11, lr}
 7b4:	e59f3168 	ldr	r3, [pc, #360]	; 924 <__call_exitprocs+0x174>
 7b8:	e5933000 	ldr	r3, [r3]
 7bc:	e24dd014 	sub	sp, sp, #20
 7c0:	e58d3004 	str	r3, [sp, #4]
 7c4:	e2833f52 	add	r3, r3, #328	; 0x148
 7c8:	e58d0008 	str	r0, [sp, #8]
 7cc:	e58d300c 	str	r3, [sp, #12]
 7d0:	e1a07001 	mov	r7, r1
 7d4:	e3a08001 	mov	r8, #1
 7d8:	e59d3004 	ldr	r3, [sp, #4]
 7dc:	e5936148 	ldr	r6, [r3, #328]	; 0x148
 7e0:	e3560000 	cmp	r6, #0
 7e4:	e59db00c 	ldr	r11, [sp, #12]
 7e8:	0a000033 	beq	8bc <__call_exitprocs+0x10c>
 7ec:	e5965004 	ldr	r5, [r6, #4]
 7f0:	e2554001 	subs	r4, r5, #1
 7f4:	5286a088 	addpl	r10, r6, #136	; 0x88
 7f8:	5285501f 	addpl	r5, r5, #31
 7fc:	508a5105 	addpl	r5, r10, r5, lsl #2
 800:	5a000007 	bpl	824 <__call_exitprocs+0x74>
 804:	ea000029 	b	8b0 <__call_exitprocs+0x100>
 808:	e5953000 	ldr	r3, [r5]
 80c:	e1530007 	cmp	r3, r7
 810:	0a000005 	beq	82c <__call_exitprocs+0x7c>
 814:	e2444001 	sub	r4, r4, #1
 818:	e3740001 	cmn	r4, #1
 81c:	e2455004 	sub	r5, r5, #4
 820:	0a000022 	beq	8b0 <__call_exitprocs+0x100>
 824:	e3570000 	cmp	r7, #0
 828:	1afffff6 	bne	808 <__call_exitprocs+0x58>
 82c:	e5963004 	ldr	r3, [r6, #4]
 830:	e06a2005 	rsb	r2, r10, r5
 834:	e2433001 	sub	r3, r3, #1
 838:	e0862002 	add	r2, r6, r2
 83c:	e1530004 	cmp	r3, r4
 840:	e5123078 	ldr	r3, [r2, #-120]	; 0xffffff88
 844:	13a01000 	movne	r1, #0
 848:	05864004 	streq	r4, [r6, #4]
 84c:	15021078 	strne	r1, [r2, #-120]	; 0xffffff88
 850:	e3530000 	cmp	r3, #0
 854:	0affffee 	beq	814 <__call_exitprocs+0x64>
 858:	e1a02418 	lsl	r2, r8, r4
 85c:	e5961188 	ldr	r1, [r6, #392]	; 0x188
 860:	e1120001 	tst	r2, r1
 864:	e5969004 	ldr	r9, [r6, #4]
 868:	0a000016 	beq	8c8 <__call_exitprocs+0x118>
 86c:	e596118c 	ldr	r1, [r6, #396]	; 0x18c
 870:	e1120001 	tst	r2, r1
 874:	1a000016 	bne	8d4 <__call_exitprocs+0x124>
 878:	e59d0008 	ldr	r0, [sp, #8]
 87c:	e5151080 	ldr	r1, [r5, #-128]	; 0xffffff80
 880:	e1a0e00f 	mov	lr, pc
 884:	e12fff13 	bx	r3
 888:	e5963004 	ldr	r3, [r6, #4]
 88c:	e1530009 	cmp	r3, r9
 890:	1affffd0 	bne	7d8 <__call_exitprocs+0x28>
 894:	e59b3000 	ldr	r3, [r11]
 898:	e1530006 	cmp	r3, r6
 89c:	1affffcd 	bne	7d8 <__call_exitprocs+0x28>
 8a0:	e2444001 	sub	r4, r4, #1
 8a4:	e3740001 	cmn	r4, #1
 8a8:	e2455004 	sub	r5, r5, #4
 8ac:	1affffdc 	bne	824 <__call_exitprocs+0x74>
 8b0:	e59f1070 	ldr	r1, [pc, #112]	; 928 <__call_exitprocs+0x178>
 8b4:	e3510000 	cmp	r1, #0
 8b8:	1a000009 	bne	8e4 <__call_exitprocs+0x134>
 8bc:	e28dd014 	add	sp, sp, #20
 8c0:	e8bd4ff0 	pop	{r4, r5, r6, r7, r8, r9, r10, r11, lr}
 8c4:	e12fff1e 	bx	lr
 8c8:	e1a0e00f 	mov	lr, pc
 8cc:	e12fff13 	bx	r3
 8d0:	eaffffec 	b	888 <__call_exitprocs+0xd8>
 8d4:	e5150080 	ldr	r0, [r5, #-128]	; 0xffffff80
 8d8:	e1a0e00f 	mov	lr, pc
 8dc:	e12fff13 	bx	r3
 8e0:	eaffffe8 	b	888 <__call_exitprocs+0xd8>
 8e4:	e5963004 	ldr	r3, [r6, #4]
 8e8:	e3530000 	cmp	r3, #0
 8ec:	e5963000 	ldr	r3, [r6]
 8f0:	1a000008 	bne	918 <__call_exitprocs+0x168>
 8f4:	e3530000 	cmp	r3, #0
 8f8:	0a000006 	beq	918 <__call_exitprocs+0x168>
 8fc:	e1a00006 	mov	r0, r6
 900:	e58b3000 	str	r3, [r11]
 904:	e320f000 	nop	{0}
 908:	e59b6000 	ldr	r6, [r11]
 90c:	e3560000 	cmp	r6, #0
 910:	1affffb5 	bne	7ec <__call_exitprocs+0x3c>
 914:	eaffffe8 	b	8bc <__call_exitprocs+0x10c>
 918:	e1a0b006 	mov	r11, r6
 91c:	e1a06003 	mov	r6, r3
 920:	eafffff9 	b	90c <__call_exitprocs+0x15c>
 924:	00008788 	.word	0x00008788
 928:	00000000 	.word	0x00000000

0000092c <register_fini>:
 92c:	e92d4008 	push	{r3, lr}
 930:	e59f3010 	ldr	r3, [pc, #16]	; 948 <register_fini+0x1c>
 934:	e3530000 	cmp	r3, #0
 938:	159f000c 	ldrne	r0, [pc, #12]	; 94c <register_fini+0x20>
 93c:	1bffff49 	blne	668 <atexit>
 940:	e8bd4008 	pop	{r3, lr}
 944:	e12fff1e 	bx	lr
 948:	000087b0 	.word	0x000087b0
 94c:	00000950 	.word	0x00000950

00000950 <__libc_fini_array>:
 950:	e92d4038 	push	{r3, r4, r5, lr}
 954:	e59f5030 	ldr	r5, [pc, #48]	; 98c <__libc_fini_array+0x3c>
 958:	e59f4030 	ldr	r4, [pc, #48]	; 990 <__libc_fini_array+0x40>
 95c:	e0654004 	rsb	r4, r5, r4
 960:	e1b04144 	asrs	r4, r4, #2
 964:	10855104 	addne	r5, r5, r4, lsl #2
 968:	0a000004 	beq	980 <__libc_fini_array+0x30>
 96c:	e5353004 	ldr	r3, [r5, #-4]!
 970:	e1a0e00f 	mov	lr, pc
 974:	e12fff13 	bx	r3
 978:	e2544001 	subs	r4, r4, #1
 97c:	1afffffa 	bne	96c <__libc_fini_array+0x1c>
 980:	eb001f8a 	bl	87b0 <__libc_fini>
 984:	e8bd4038 	pop	{r3, r4, r5, lr}
 988:	e12fff1e 	bx	lr
 98c:	000087c8 	.word	0x000087c8
 990:	000087cc 	.word	0x000087cc

00000994 <__cs3_premain>:
 994:	e92d4008 	push	{r3, lr}
 998:	eb000017 	bl	9fc <__libc_init_array>
 99c:	e59f3030 	ldr	r3, [pc, #48]	; 9d4 <__cs3_premain+0x40>
 9a0:	e3530000 	cmp	r3, #0
 9a4:	15930000 	ldrne	r0, [r3]
 9a8:	01a00003 	moveq	r0, r3
 9ac:	e59f3024 	ldr	r3, [pc, #36]	; 9d8 <__cs3_premain+0x44>
 9b0:	e3530000 	cmp	r3, #0
 9b4:	15931000 	ldrne	r1, [r3]
 9b8:	01a01003 	moveq	r1, r3
 9bc:	e3a02000 	mov	r2, #0
 9c0:	ebffff23 	bl	654 <main>
 9c4:	e59f3010 	ldr	r3, [pc, #16]	; 9dc <__cs3_premain+0x48>
 9c8:	e3530000 	cmp	r3, #0
 9cc:	1bffff2d 	blne	688 <exit>
 9d0:	eafffffe 	b	9d0 <__cs3_premain+0x3c>
	...
 9dc:	00000688 	.word	0x00000688

000009e0 <_exit>:
 9e0:	e52de004 	push	{lr}		; (str lr, [sp, #-4]!)
 9e4:	e3a00018 	mov	r0, #24
 9e8:	e59f1004 	ldr	r1, [pc, #4]	; 9f4 <_exit+0x14>
 9ec:	ef123456 	svc	0x00123456
 9f0:	eafffffe 	b	9f0 <_exit+0x10>
 9f4:	00020026 	.word	0x00020026

000009f8 <__cs3_isr_interrupt>:
 9f8:	eafffffe 	b	9f8 <__cs3_isr_interrupt>

000009fc <__libc_init_array>:
 9fc:	e92d4070 	push	{r4, r5, r6, lr}
 a00:	e59f506c 	ldr	r5, [pc, #108]	; a74 <__libc_init_array+0x78>
 a04:	e59f606c 	ldr	r6, [pc, #108]	; a78 <__libc_init_array+0x7c>
 a08:	e0656006 	rsb	r6, r5, r6
 a0c:	e1b06146 	asrs	r6, r6, #2
 a10:	12455004 	subne	r5, r5, #4
 a14:	13a04000 	movne	r4, #0
 a18:	0a000005 	beq	a34 <__libc_init_array+0x38>
 a1c:	e5b53004 	ldr	r3, [r5, #4]!
 a20:	e2844001 	add	r4, r4, #1
 a24:	e1a0e00f 	mov	lr, pc
 a28:	e12fff13 	bx	r3
 a2c:	e1560004 	cmp	r6, r4
 a30:	1afffff9 	bne	a1c <__libc_init_array+0x20>
 a34:	e59f5040 	ldr	r5, [pc, #64]	; a7c <__libc_init_array+0x80>
 a38:	e59f6040 	ldr	r6, [pc, #64]	; a80 <__libc_init_array+0x84>
 a3c:	e0656006 	rsb	r6, r5, r6
 a40:	eb001f52 	bl	8790 <_init>
 a44:	e1b06146 	asrs	r6, r6, #2
 a48:	12455004 	subne	r5, r5, #4
 a4c:	13a04000 	movne	r4, #0
 a50:	0a000005 	beq	a6c <__libc_init_array+0x70>
 a54:	e5b53004 	ldr	r3, [r5, #4]!
 a58:	e2844001 	add	r4, r4, #1
 a5c:	e1a0e00f 	mov	lr, pc
 a60:	e12fff13 	bx	r3
 a64:	e1560004 	cmp	r6, r4
 a68:	1afffff9 	bne	a54 <__libc_init_array+0x58>
 a6c:	e8bd4070 	pop	{r4, r5, r6, lr}
 a70:	e12fff1e 	bx	lr
 a74:	000087a8 	.word	0x000087a8
 a78:	000087a8 	.word	0x000087a8
 a7c:	000087a8 	.word	0x000087a8
 a80:	000087b0 	.word	0x000087b0
